
enclave.signed.so:     file format elf64-x86-64


Disassembly of section .plt:

0000000000002000 <.plt>:
    2000:	ff 35 02 80 02 00    	push   0x28002(%rip)        # 2a008 <_GLOBAL_OFFSET_TABLE_+0x8>
    2006:	ff 25 04 80 02 00    	jmp    *0x28004(%rip)        # 2a010 <_GLOBAL_OFFSET_TABLE_+0x10>
    200c:	0f 1f 40 00          	nopl   0x0(%rax)

Disassembly of section .plt.got:

0000000000002010 <_Z9pcl_entryPvS_@plt>:
    2010:	ff 25 c2 7f 02 00    	jmp    *0x27fc2(%rip)        # 29fd8 <_Z9pcl_entryPvS_>
    2016:	66 90                	xchg   %ax,%ax

0000000000002018 <ippcpSetCpuFeatures@plt>:
    2018:	ff 25 d2 7f 02 00    	jmp    *0x27fd2(%rip)        # 29ff0 <ippcpSetCpuFeatures>
    201e:	66 90                	xchg   %ax,%ax

Disassembly of section .text:

0000000000002020 <_ZSt10unexpectedv.cold>:
    2020:	48 8d 3d b1 90 02 00 	lea    0x290b1(%rip),%rdi        # 2b0d8 <_ZGVZSt10unexpectedvE4info>
    2027:	e8 64 a0 01 00       	call   1c090 <__cxa_guard_abort>
    202c:	48 89 ef             	mov    %rbp,%rdi
    202f:	e8 5c 65 01 00       	call   18590 <_Unwind_Resume>

0000000000002034 <__cxa_call_unexpected>:
    2034:	f3 0f 1e fa          	endbr64 
    2038:	50                   	push   %rax
    2039:	58                   	pop    %rax
    203a:	50                   	push   %rax
    203b:	48 b8 00 2b 2b 43 43 	movabs $0x474e5543432b2b00,%rax
    2042:	55 4e 47 
    2045:	48 39 07             	cmp    %rax,(%rdi)
    2048:	75 10                	jne    205a <__cxa_call_unexpected+0x26>
    204a:	48 8b 47 b8          	mov    -0x48(%rdi),%rax
    204e:	48 85 c0             	test   %rax,%rax
    2051:	74 07                	je     205a <__cxa_call_unexpected+0x26>
    2053:	ff d0                	call   *%rax
    2055:	e8 3a e7 01 00       	call   20794 <abort>
    205a:	e8 41 95 01 00       	call   1b5a0 <_ZSt10unexpectedv>
    205f:	e8 30 e7 01 00       	call   20794 <abort>

0000000000002064 <__cxa_begin_catch.cold>:
    2064:	48 83 c0 01          	add    $0x1,%rax
    2068:	75 05                	jne    206f <__cxa_begin_catch.cold+0xb>
    206a:	e8 c5 ff ff ff       	call   2034 <__cxa_call_unexpected>
    206f:	e8 1c 65 01 00       	call   18590 <_Unwind_Resume>

0000000000002074 <_ZSt9terminatev.cold>:
    2074:	48 8d 3d 6d 90 02 00 	lea    0x2906d(%rip),%rdi        # 2b0e8 <_ZGVZSt9terminatevE4info>
    207b:	e8 10 a0 01 00       	call   1c090 <__cxa_guard_abort>
    2080:	48 89 ef             	mov    %rbp,%rdi
    2083:	e8 08 65 01 00       	call   18590 <_Unwind_Resume>
    2088:	e8 93 95 01 00       	call   1b620 <__cxa_begin_catch>
    208d:	e8 02 e7 01 00       	call   20794 <abort>
    2092:	e8 89 95 01 00       	call   1b620 <__cxa_begin_catch>
    2097:	e8 f8 e6 01 00       	call   20794 <abort>
    209c:	f3 0f 1e fa          	endbr64 
    20a0:	48 89 c5             	mov    %rax,%rbp
    20a3:	e8 48 97 01 00       	call   1b7f0 <__cxa_end_catch>
    20a8:	48 89 ef             	mov    %rbp,%rdi
    20ab:	e8 e0 64 01 00       	call   18590 <_Unwind_Resume>
    20b0:	f3 0f 1e fa          	endbr64 
    20b4:	48 89 c5             	mov    %rax,%rbp
    20b7:	e8 34 97 01 00       	call   1b7f0 <__cxa_end_catch>
    20bc:	48 89 ef             	mov    %rbp,%rdi
    20bf:	e8 cc 64 01 00       	call   18590 <_Unwind_Resume>

00000000000020c4 <__cxa_free_exception.cold>:
    20c4:	e8 57 95 01 00       	call   1b620 <__cxa_begin_catch>
    20c9:	e8 d2 95 01 00       	call   1b6a0 <_ZSt9terminatev>
    20ce:	f3 0f 1e fa          	endbr64 
    20d2:	48 89 c5             	mov    %rax,%rbp
    20d5:	e8 16 97 01 00       	call   1b7f0 <__cxa_end_catch>
    20da:	48 89 ef             	mov    %rbp,%rdi
    20dd:	e8 ae 64 01 00       	call   18590 <_Unwind_Resume>

00000000000020e2 <_Znwm.cold>:
    20e2:	bf 08 00 00 00       	mov    $0x8,%edi
    20e7:	e8 94 98 01 00       	call   1b980 <__cxa_allocate_exception>
    20ec:	48 89 c7             	mov    %rax,%rdi
    20ef:	48 89 c5             	mov    %rax,%rbp
    20f2:	e8 29 a0 01 00       	call   1c120 <_ZNSt9bad_allocC1Ev>
    20f7:	48 8d 15 d2 9f 01 00 	lea    0x19fd2(%rip),%rdx        # 1c0d0 <_ZNSt9bad_allocD1Ev>
    20fe:	48 8d 35 6b 7c 02 00 	lea    0x27c6b(%rip),%rsi        # 29d70 <_ZTISt9bad_alloc>
    2105:	48 89 ef             	mov    %rbp,%rdi
    2108:	e8 73 99 01 00       	call   1ba80 <__cxa_throw>
    210d:	90                   	nop

000000000000210e <_ZNKSt3__120__vector_base_commonILb1EE20__throw_length_errorEv>:
    210e:	f3 0f 1e fa          	endbr64 
    2112:	41 54                	push   %r12
    2114:	bf 10 00 00 00       	mov    $0x10,%edi
    2119:	55                   	push   %rbp
    211a:	50                   	push   %rax
    211b:	e8 60 98 01 00       	call   1b980 <__cxa_allocate_exception>
    2120:	48 8d 35 7e 03 02 00 	lea    0x2037e(%rip),%rsi        # 224a5 <_ZTSN10__cxxabiv120__si_class_type_infoE+0x25>
    2127:	48 89 c7             	mov    %rax,%rdi
    212a:	48 89 c5             	mov    %rax,%rbp
    212d:	e8 ee a3 01 00       	call   1c520 <_ZNSt11logic_errorC1EPKc>
    2132:	48 8d 15 07 a2 01 00 	lea    0x1a207(%rip),%rdx        # 1c340 <_ZNSt12length_errorD1Ev>
    2139:	48 8d 05 78 7b 02 00 	lea    0x27b78(%rip),%rax        # 29cb8 <_ZTVSt12length_error+0x10>
    2140:	48 8d 35 01 7d 02 00 	lea    0x27d01(%rip),%rsi        # 29e48 <_ZTISt12length_error>
    2147:	48 89 ef             	mov    %rbp,%rdi
    214a:	48 89 45 00          	mov    %rax,0x0(%rbp)
    214e:	e8 2d 99 01 00       	call   1ba80 <__cxa_throw>
    2153:	f3 0f 1e fa          	endbr64 
    2157:	49 89 c4             	mov    %rax,%r12
    215a:	48 89 ef             	mov    %rbp,%rdi
    215d:	e8 ce 95 01 00       	call   1b730 <__cxa_free_exception>
    2162:	4c 89 e7             	mov    %r12,%rdi
    2165:	e8 26 64 01 00       	call   18590 <_Unwind_Resume>

000000000000216a <_ZNSt11logic_errorC2EPKc.cold>:
    216a:	4c 89 e7             	mov    %r12,%rdi
    216d:	e8 3e 9f 01 00       	call   1c0b0 <_ZNSt9exceptionD1Ev>
    2172:	48 89 ef             	mov    %rbp,%rdi
    2175:	e8 16 64 01 00       	call   18590 <_Unwind_Resume>

000000000000217a <_ZNSt13runtime_errorC2ERKNSt3__112basic_stringIcNS0_11char_traitsIcEENS0_9allocatorIcEEEE.cold>:
    217a:	4c 89 e7             	mov    %r12,%rdi
    217d:	e8 2e 9f 01 00       	call   1c0b0 <_ZNSt9exceptionD1Ev>
    2182:	48 89 ef             	mov    %rbp,%rdi
    2185:	e8 06 64 01 00       	call   18590 <_Unwind_Resume>

000000000000218a <_ZNSt13runtime_errorC2EPKc.cold>:
    218a:	4c 89 e7             	mov    %r12,%rdi
    218d:	e8 1e 9f 01 00       	call   1c0b0 <_ZNSt9exceptionD1Ev>
    2192:	48 89 ef             	mov    %rbp,%rdi
    2195:	e8 f6 63 01 00       	call   18590 <_Unwind_Resume>

000000000000219a <_ZNKSt3__121__basic_string_commonILb1EE20__throw_length_errorEv>:
    219a:	f3 0f 1e fa          	endbr64 
    219e:	41 54                	push   %r12
    21a0:	bf 10 00 00 00       	mov    $0x10,%edi
    21a5:	55                   	push   %rbp
    21a6:	50                   	push   %rax
    21a7:	e8 d4 97 01 00       	call   1b980 <__cxa_allocate_exception>
    21ac:	48 8d 35 5e 03 02 00 	lea    0x2035e(%rip),%rsi        # 22511 <_ZTSSt12out_of_range+0x11>
    21b3:	48 89 c7             	mov    %rax,%rdi
    21b6:	48 89 c5             	mov    %rax,%rbp
    21b9:	e8 62 a3 01 00       	call   1c520 <_ZNSt11logic_errorC1EPKc>
    21be:	48 8d 15 7b a1 01 00 	lea    0x1a17b(%rip),%rdx        # 1c340 <_ZNSt12length_errorD1Ev>
    21c5:	48 8d 05 ec 7a 02 00 	lea    0x27aec(%rip),%rax        # 29cb8 <_ZTVSt12length_error+0x10>
    21cc:	48 8d 35 75 7c 02 00 	lea    0x27c75(%rip),%rsi        # 29e48 <_ZTISt12length_error>
    21d3:	48 89 ef             	mov    %rbp,%rdi
    21d6:	48 89 45 00          	mov    %rax,0x0(%rbp)
    21da:	e8 a1 98 01 00       	call   1ba80 <__cxa_throw>
    21df:	f3 0f 1e fa          	endbr64 
    21e3:	49 89 c4             	mov    %rax,%r12
    21e6:	48 89 ef             	mov    %rbp,%rdi
    21e9:	e8 42 95 01 00       	call   1b730 <__cxa_free_exception>
    21ee:	4c 89 e7             	mov    %r12,%rdi
    21f1:	e8 9a 63 01 00       	call   18590 <_Unwind_Resume>

00000000000021f6 <_ZNKSt3__121__basic_string_commonILb1EE20__throw_out_of_rangeEv>:
    21f6:	f3 0f 1e fa          	endbr64 
    21fa:	41 54                	push   %r12
    21fc:	bf 10 00 00 00       	mov    $0x10,%edi
    2201:	55                   	push   %rbp
    2202:	50                   	push   %rax
    2203:	e8 78 97 01 00       	call   1b980 <__cxa_allocate_exception>
    2208:	48 8d 35 02 03 02 00 	lea    0x20302(%rip),%rsi        # 22511 <_ZTSSt12out_of_range+0x11>
    220f:	48 89 c7             	mov    %rax,%rdi
    2212:	48 89 c5             	mov    %rax,%rbp
    2215:	e8 06 a3 01 00       	call   1c520 <_ZNSt11logic_errorC1EPKc>
    221a:	48 8d 15 6f a1 01 00 	lea    0x1a16f(%rip),%rdx        # 1c390 <_ZNSt12out_of_rangeD1Ev>
    2221:	48 8d 05 b8 7a 02 00 	lea    0x27ab8(%rip),%rax        # 29ce0 <_ZTVSt12out_of_range+0x10>
    2228:	48 8d 35 31 7c 02 00 	lea    0x27c31(%rip),%rsi        # 29e60 <_ZTISt12out_of_range>
    222f:	48 89 ef             	mov    %rbp,%rdi
    2232:	48 89 45 00          	mov    %rax,0x0(%rbp)
    2236:	e8 45 98 01 00       	call   1ba80 <__cxa_throw>
    223b:	f3 0f 1e fa          	endbr64 
    223f:	49 89 c4             	mov    %rax,%r12
    2242:	48 89 ef             	mov    %rbp,%rdi
    2245:	e8 e6 94 01 00       	call   1b730 <__cxa_free_exception>
    224a:	4c 89 e7             	mov    %r12,%rdi
    224d:	e8 3e 63 01 00       	call   18590 <_Unwind_Resume>

0000000000002252 <_ULx86_64_r_uc_addr.cold>:
    2252:	31 c0                	xor    %eax,%eax
    2254:	c3                   	ret    

0000000000002255 <_ULx86_64_access_reg.cold>:
    2255:	b8 fd ff ff ff       	mov    $0xfffffffd,%eax
    225a:	e9 69 b4 01 00       	jmp    1d6c8 <_ULx86_64_access_reg+0x58>
    225f:	90                   	nop

0000000000002260 <trts_access_version_dummy1>:
    2260:	f3 0f 1e fa          	endbr64 
    2264:	48 8d 05 55 7f 02 00 	lea    0x27f55(%rip),%rax        # 2a1c0 <sgx_trts_version>
    226b:	c6 00 73             	movb   $0x73,(%rax)
    226e:	c3                   	ret    
    226f:	90                   	nop

0000000000002270 <tstdc_access_version_dummy1>:
    2270:	f3 0f 1e fa          	endbr64 
    2274:	c6 05 75 7f 02 00 73 	movb   $0x73,0x27f75(%rip)        # 2a1f0 <sgx_tstdc_version>
    227b:	48 8d 05 6e 7f 02 00 	lea    0x27f6e(%rip),%rax        # 2a1f0 <sgx_tstdc_version>
    2282:	c3                   	ret    
    2283:	66 2e 0f 1f 84 00 00 	cs nopw 0x0(%rax,%rax,1)
    228a:	00 00 00 
    228d:	0f 1f 00             	nopl   (%rax)

0000000000002290 <tcxx_access_version_dummy1>:
    2290:	f3 0f 1e fa          	endbr64 
    2294:	c6 05 c5 7f 02 00 73 	movb   $0x73,0x27fc5(%rip)        # 2a260 <sgx_tcxx_version>
    229b:	48 8d 05 be 7f 02 00 	lea    0x27fbe(%rip),%rax        # 2a260 <sgx_tcxx_version>
    22a2:	c3                   	ret    
    22a3:	66 2e 0f 1f 84 00 00 	cs nopw 0x0(%rax,%rax,1)
    22aa:	00 00 00 
    22ad:	0f 1f 00             	nopl   (%rax)

00000000000022b0 <tcxx_access_version_dummy3>:
    22b0:	f3 0f 1e fa          	endbr64 
    22b4:	c6 05 a5 7f 02 00 73 	movb   $0x73,0x27fa5(%rip)        # 2a260 <sgx_tcxx_version>
    22bb:	48 8d 05 9e 7f 02 00 	lea    0x27f9e(%rip),%rax        # 2a260 <sgx_tcxx_version>
    22c2:	c3                   	ret    
    22c3:	66 2e 0f 1f 84 00 00 	cs nopw 0x0(%rax,%rax,1)
    22ca:	00 00 00 
    22cd:	0f 1f 00             	nopl   (%rax)

00000000000022d0 <tcxx_access_version_dummy5>:
    22d0:	f3 0f 1e fa          	endbr64 
    22d4:	c6 05 85 7f 02 00 73 	movb   $0x73,0x27f85(%rip)        # 2a260 <sgx_tcxx_version>
    22db:	48 8d 05 7e 7f 02 00 	lea    0x27f7e(%rip),%rax        # 2a260 <sgx_tcxx_version>
    22e2:	c3                   	ret    
    22e3:	66 2e 0f 1f 84 00 00 	cs nopw 0x0(%rax,%rax,1)
    22ea:	00 00 00 
    22ed:	0f 1f 00             	nopl   (%rax)

00000000000022f0 <tcxx_access_version_dummy4>:
    22f0:	f3 0f 1e fa          	endbr64 
    22f4:	c6 05 65 7f 02 00 73 	movb   $0x73,0x27f65(%rip)        # 2a260 <sgx_tcxx_version>
    22fb:	48 8d 05 5e 7f 02 00 	lea    0x27f5e(%rip),%rax        # 2a260 <sgx_tcxx_version>
    2302:	c3                   	ret    
    2303:	66 2e 0f 1f 84 00 00 	cs nopw 0x0(%rax,%rax,1)
    230a:	00 00 00 
    230d:	0f 1f 00             	nopl   (%rax)

0000000000002310 <tcrypto_access_version_dummy1>:
    2310:	f3 0f 1e fa          	endbr64 
    2314:	c6 05 75 7f 02 00 73 	movb   $0x73,0x27f75(%rip)        # 2a290 <sgx_tcrypto_version>
    231b:	48 8d 05 6e 7f 02 00 	lea    0x27f6e(%rip),%rax        # 2a290 <sgx_tcrypto_version>
    2322:	c3                   	ret    
    2323:	66 2e 0f 1f 84 00 00 	cs nopw 0x0(%rax,%rax,1)
    232a:	00 00 00 
    232d:	0f 1f 00             	nopl   (%rax)

0000000000002330 <tservice_access_version_dummy1>:
    2330:	f3 0f 1e fa          	endbr64 
    2334:	c6 05 85 7f 02 00 73 	movb   $0x73,0x27f85(%rip)        # 2a2c0 <sgx_tservice_version>
    233b:	48 8d 05 7e 7f 02 00 	lea    0x27f7e(%rip),%rax        # 2a2c0 <sgx_tservice_version>
    2342:	c3                   	ret    
    2343:	66 2e 0f 1f 84 00 00 	cs nopw 0x0(%rax,%rax,1)
    234a:	00 00 00 
    234d:	0f 1f 00             	nopl   (%rax)

0000000000002350 <sgx_ecall_consumer>:
    2350:	48 85 ff             	test   %rdi,%rdi
    2353:	74 0b                	je     2360 <sgx_ecall_consumer+0x10>
    2355:	b8 02 00 00 00       	mov    $0x2,%eax
    235a:	c3                   	ret    
    235b:	0f 1f 44 00 00       	nopl   0x0(%rax,%rax,1)
    2360:	48 83 ec 08          	sub    $0x8,%rsp
    2364:	e8 57 4f 00 00       	call   72c0 <ecall_consumer>
    2369:	31 c0                	xor    %eax,%eax
    236b:	48 83 c4 08          	add    $0x8,%rsp
    236f:	c3                   	ret    

0000000000002370 <sgx_ecall_producer>:
    2370:	48 85 ff             	test   %rdi,%rdi
    2373:	74 0b                	je     2380 <sgx_ecall_producer+0x10>
    2375:	b8 02 00 00 00       	mov    $0x2,%eax
    237a:	c3                   	ret    
    237b:	0f 1f 44 00 00       	nopl   0x0(%rax,%rax,1)
    2380:	48 83 ec 08          	sub    $0x8,%rsp
    2384:	e8 87 4e 00 00       	call   7210 <ecall_producer>
    2389:	31 c0                	xor    %eax,%eax
    238b:	48 83 c4 08          	add    $0x8,%rsp
    238f:	c3                   	ret    

0000000000002390 <sgx_ecall_map>:
    2390:	48 85 ff             	test   %rdi,%rdi
    2393:	74 0b                	je     23a0 <sgx_ecall_map+0x10>
    2395:	b8 02 00 00 00       	mov    $0x2,%eax
    239a:	c3                   	ret    
    239b:	0f 1f 44 00 00       	nopl   0x0(%rax,%rax,1)
    23a0:	48 83 ec 08          	sub    $0x8,%rsp
    23a4:	e8 f7 53 00 00       	call   77a0 <ecall_map>
    23a9:	31 c0                	xor    %eax,%eax
    23ab:	48 83 c4 08          	add    $0x8,%rsp
    23af:	c3                   	ret    

00000000000023b0 <sgx_ecall_exception>:
    23b0:	48 85 ff             	test   %rdi,%rdi
    23b3:	74 0b                	je     23c0 <sgx_ecall_exception+0x10>
    23b5:	b8 02 00 00 00       	mov    $0x2,%eax
    23ba:	c3                   	ret    
    23bb:	0f 1f 44 00 00       	nopl   0x0(%rax,%rax,1)
    23c0:	48 83 ec 08          	sub    $0x8,%rsp
    23c4:	e8 57 56 00 00       	call   7a20 <ecall_exception>
    23c9:	31 c0                	xor    %eax,%eax
    23cb:	48 83 c4 08          	add    $0x8,%rsp
    23cf:	c3                   	ret    

00000000000023d0 <sgx_ecall_malloc_free>:
    23d0:	48 85 ff             	test   %rdi,%rdi
    23d3:	74 0b                	je     23e0 <sgx_ecall_malloc_free+0x10>
    23d5:	b8 02 00 00 00       	mov    $0x2,%eax
    23da:	c3                   	ret    
    23db:	0f 1f 44 00 00       	nopl   0x0(%rax,%rax,1)
    23e0:	48 83 ec 08          	sub    $0x8,%rsp
    23e4:	e8 f7 58 00 00       	call   7ce0 <ecall_malloc_free>
    23e9:	31 c0                	xor    %eax,%eax
    23eb:	48 83 c4 08          	add    $0x8,%rsp
    23ef:	c3                   	ret    

00000000000023f0 <sgx_ecall_function_public>:
    23f0:	48 85 ff             	test   %rdi,%rdi
    23f3:	74 0b                	je     2400 <sgx_ecall_function_public+0x10>
    23f5:	b8 02 00 00 00       	mov    $0x2,%eax
    23fa:	c3                   	ret    
    23fb:	0f 1f 44 00 00       	nopl   0x0(%rax,%rax,1)
    2400:	48 83 ec 08          	sub    $0x8,%rsp
    2404:	e8 77 4d 00 00       	call   7180 <ecall_function_public>
    2409:	31 c0                	xor    %eax,%eax
    240b:	48 83 c4 08          	add    $0x8,%rsp
    240f:	c3                   	ret    

0000000000002410 <sgx_ecall_function_calling_convs>:
    2410:	48 85 ff             	test   %rdi,%rdi
    2413:	74 0b                	je     2420 <sgx_ecall_function_calling_convs+0x10>
    2415:	b8 02 00 00 00       	mov    $0x2,%eax
    241a:	c3                   	ret    
    241b:	0f 1f 44 00 00       	nopl   0x0(%rax,%rax,1)
    2420:	48 83 ec 08          	sub    $0x8,%rsp
    2424:	e8 17 4c 00 00       	call   7040 <ecall_function_calling_convs>
    2429:	31 c0                	xor    %eax,%eax
    242b:	48 83 c4 08          	add    $0x8,%rsp
    242f:	c3                   	ret    

0000000000002430 <sgx_ocall_pointer_attr>:
    2430:	48 85 ff             	test   %rdi,%rdi
    2433:	74 0b                	je     2440 <sgx_ocall_pointer_attr+0x10>
    2435:	b8 02 00 00 00       	mov    $0x2,%eax
    243a:	c3                   	ret    
    243b:	0f 1f 44 00 00       	nopl   0x0(%rax,%rax,1)
    2440:	48 83 ec 08          	sub    $0x8,%rsp
    2444:	e8 67 48 00 00       	call   6cb0 <ocall_pointer_attr>
    2449:	31 c0                	xor    %eax,%eax
    244b:	48 83 c4 08          	add    $0x8,%rsp
    244f:	c3                   	ret    

0000000000002450 <sgx_ecall_increase_counter>:
    2450:	53                   	push   %rbx
    2451:	48 83 ec 20          	sub    $0x20,%rsp
    2455:	64 48 8b 04 25 28 00 	mov    %fs:0x28,%rax
    245c:	00 00 
    245e:	48 89 44 24 18       	mov    %rax,0x18(%rsp)
    2463:	31 c0                	xor    %eax,%eax
    2465:	48 85 ff             	test   %rdi,%rdi
    2468:	74 11                	je     247b <sgx_ecall_increase_counter+0x2b>
    246a:	be 08 00 00 00       	mov    $0x8,%esi
    246f:	48 89 fb             	mov    %rdi,%rbx
    2472:	e8 b9 5a 00 00       	call   7f30 <sgx_is_outside_enclave>
    2477:	85 c0                	test   %eax,%eax
    2479:	75 25                	jne    24a0 <sgx_ecall_increase_counter+0x50>
    247b:	b8 02 00 00 00       	mov    $0x2,%eax
    2480:	48 8b 4c 24 18       	mov    0x18(%rsp),%rcx
    2485:	64 48 33 0c 25 28 00 	xor    %fs:0x28,%rcx
    248c:	00 00 
    248e:	75 5e                	jne    24ee <sgx_ecall_increase_counter+0x9e>
    2490:	48 83 c4 20          	add    $0x20,%rsp
    2494:	5b                   	pop    %rbx
    2495:	c3                   	ret    
    2496:	66 2e 0f 1f 84 00 00 	cs nopw 0x0(%rax,%rax,1)
    249d:	00 00 00 
    24a0:	48 89 da             	mov    %rbx,%rdx
    24a3:	48 89 e7             	mov    %rsp,%rdi
    24a6:	b9 08 00 00 00       	mov    $0x8,%ecx
    24ab:	be 08 00 00 00       	mov    $0x8,%esi
    24b0:	0f ae e8             	lfence 
    24b3:	e8 d8 cb 00 00       	call   f090 <memcpy_s>
    24b8:	89 c2                	mov    %eax,%edx
    24ba:	b8 01 00 00 00       	mov    $0x1,%eax
    24bf:	85 d2                	test   %edx,%edx
    24c1:	75 bd                	jne    2480 <sgx_ecall_increase_counter+0x30>
    24c3:	e8 e8 4c 00 00       	call   71b0 <ecall_increase_counter>
    24c8:	48 8d 54 24 10       	lea    0x10(%rsp),%rdx
    24cd:	b9 08 00 00 00       	mov    $0x8,%ecx
    24d2:	be 08 00 00 00       	mov    $0x8,%esi
    24d7:	48 89 df             	mov    %rbx,%rdi
    24da:	48 89 44 24 10       	mov    %rax,0x10(%rsp)
    24df:	e8 2c cc 00 00       	call   f110 <memcpy_verw_s>
    24e4:	85 c0                	test   %eax,%eax
    24e6:	0f 95 c0             	setne  %al
    24e9:	0f b6 c0             	movzbl %al,%eax
    24ec:	eb 92                	jmp    2480 <sgx_ecall_increase_counter+0x30>
    24ee:	e8 5d c6 00 00       	call   eb50 <__stack_chk_fail>
    24f3:	66 2e 0f 1f 84 00 00 	cs nopw 0x0(%rax,%rax,1)
    24fa:	00 00 00 
    24fd:	0f 1f 00             	nopl   (%rax)

0000000000002500 <sgx_ecall_sgx_cpuid>:
    2500:	55                   	push   %rbp
    2501:	53                   	push   %rbx
    2502:	48 83 ec 38          	sub    $0x38,%rsp
    2506:	64 48 8b 04 25 28 00 	mov    %fs:0x28,%rax
    250d:	00 00 
    250f:	48 89 44 24 28       	mov    %rax,0x28(%rsp)
    2514:	31 c0                	xor    %eax,%eax
    2516:	48 85 ff             	test   %rdi,%rdi
    2519:	74 11                	je     252c <sgx_ecall_sgx_cpuid+0x2c>
    251b:	be 10 00 00 00       	mov    $0x10,%esi
    2520:	48 89 fb             	mov    %rdi,%rbx
    2523:	e8 08 5a 00 00       	call   7f30 <sgx_is_outside_enclave>
    2528:	85 c0                	test   %eax,%eax
    252a:	75 24                	jne    2550 <sgx_ecall_sgx_cpuid+0x50>
    252c:	b8 02 00 00 00       	mov    $0x2,%eax
    2531:	48 8b 4c 24 28       	mov    0x28(%rsp),%rcx
    2536:	64 48 33 0c 25 28 00 	xor    %fs:0x28,%rcx
    253d:	00 00 
    253f:	0f 85 c9 00 00 00    	jne    260e <sgx_ecall_sgx_cpuid+0x10e>
    2545:	48 83 c4 38          	add    $0x38,%rsp
    2549:	5b                   	pop    %rbx
    254a:	5d                   	pop    %rbp
    254b:	c3                   	ret    
    254c:	0f 1f 40 00          	nopl   0x0(%rax)
    2550:	48 8d 7c 24 10       	lea    0x10(%rsp),%rdi
    2555:	48 89 da             	mov    %rbx,%rdx
    2558:	b9 10 00 00 00       	mov    $0x10,%ecx
    255d:	be 10 00 00 00       	mov    $0x10,%esi
    2562:	0f ae e8             	lfence 
    2565:	e8 26 cb 00 00       	call   f090 <memcpy_s>
    256a:	89 c2                	mov    %eax,%edx
    256c:	b8 01 00 00 00       	mov    $0x1,%eax
    2571:	85 d2                	test   %edx,%edx
    2573:	75 bc                	jne    2531 <sgx_ecall_sgx_cpuid+0x31>
    2575:	48 8b 5c 24 10       	mov    0x10(%rsp),%rbx
    257a:	48 85 db             	test   %rbx,%rbx
    257d:	74 70                	je     25ef <sgx_ecall_sgx_cpuid+0xef>
    257f:	be 10 00 00 00       	mov    $0x10,%esi
    2584:	48 89 df             	mov    %rbx,%rdi
    2587:	e8 a4 59 00 00       	call   7f30 <sgx_is_outside_enclave>
    258c:	89 c2                	mov    %eax,%edx
    258e:	b8 02 00 00 00       	mov    $0x2,%eax
    2593:	85 d2                	test   %edx,%edx
    2595:	74 9a                	je     2531 <sgx_ecall_sgx_cpuid+0x31>
    2597:	be 01 00 00 00       	mov    $0x1,%esi
    259c:	bf 10 00 00 00       	mov    $0x10,%edi
    25a1:	0f ae e8             	lfence 
    25a4:	e8 d7 b5 00 00       	call   db80 <calloc>
    25a9:	48 85 c0             	test   %rax,%rax
    25ac:	48 89 c5             	mov    %rax,%rbp
    25af:	74 53                	je     2604 <sgx_ecall_sgx_cpuid+0x104>
    25b1:	8b 74 24 18          	mov    0x18(%rsp),%esi
    25b5:	48 89 ef             	mov    %rbp,%rdi
    25b8:	e8 83 57 00 00       	call   7d40 <ecall_sgx_cpuid>
    25bd:	b9 10 00 00 00       	mov    $0x10,%ecx
    25c2:	48 89 ea             	mov    %rbp,%rdx
    25c5:	be 10 00 00 00       	mov    $0x10,%esi
    25ca:	48 89 df             	mov    %rbx,%rdi
    25cd:	e8 3e cb 00 00       	call   f110 <memcpy_verw_s>
    25d2:	85 c0                	test   %eax,%eax
    25d4:	48 89 ef             	mov    %rbp,%rdi
    25d7:	0f 95 c0             	setne  %al
    25da:	0f b6 c0             	movzbl %al,%eax
    25dd:	89 44 24 0c          	mov    %eax,0xc(%rsp)
    25e1:	e8 8a ab 00 00       	call   d170 <dlfree>
    25e6:	8b 44 24 0c          	mov    0xc(%rsp),%eax
    25ea:	e9 42 ff ff ff       	jmp    2531 <sgx_ecall_sgx_cpuid+0x31>
    25ef:	0f ae e8             	lfence 
    25f2:	8b 74 24 18          	mov    0x18(%rsp),%esi
    25f6:	31 ff                	xor    %edi,%edi
    25f8:	e8 43 57 00 00       	call   7d40 <ecall_sgx_cpuid>
    25fd:	31 c0                	xor    %eax,%eax
    25ff:	e9 2d ff ff ff       	jmp    2531 <sgx_ecall_sgx_cpuid+0x31>
    2604:	b8 03 00 00 00       	mov    $0x3,%eax
    2609:	e9 23 ff ff ff       	jmp    2531 <sgx_ecall_sgx_cpuid+0x31>
    260e:	e8 3d c5 00 00       	call   eb50 <__stack_chk_fail>
    2613:	66 2e 0f 1f 84 00 00 	cs nopw 0x0(%rax,%rax,1)
    261a:	00 00 00 
    261d:	0f 1f 00             	nopl   (%rax)

0000000000002620 <sgx_ecall_function_private>:
    2620:	53                   	push   %rbx
    2621:	48 83 ec 10          	sub    $0x10,%rsp
    2625:	64 48 8b 04 25 28 00 	mov    %fs:0x28,%rax
    262c:	00 00 
    262e:	48 89 44 24 08       	mov    %rax,0x8(%rsp)
    2633:	31 c0                	xor    %eax,%eax
    2635:	48 85 ff             	test   %rdi,%rdi
    2638:	74 11                	je     264b <sgx_ecall_function_private+0x2b>
    263a:	be 04 00 00 00       	mov    $0x4,%esi
    263f:	48 89 fb             	mov    %rdi,%rbx
    2642:	e8 e9 58 00 00       	call   7f30 <sgx_is_outside_enclave>
    2647:	85 c0                	test   %eax,%eax
    2649:	75 25                	jne    2670 <sgx_ecall_function_private+0x50>
    264b:	b8 02 00 00 00       	mov    $0x2,%eax
    2650:	48 8b 4c 24 08       	mov    0x8(%rsp),%rcx
    2655:	64 48 33 0c 25 28 00 	xor    %fs:0x28,%rcx
    265c:	00 00 
    265e:	75 5d                	jne    26bd <sgx_ecall_function_private+0x9d>
    2660:	48 83 c4 10          	add    $0x10,%rsp
    2664:	5b                   	pop    %rbx
    2665:	c3                   	ret    
    2666:	66 2e 0f 1f 84 00 00 	cs nopw 0x0(%rax,%rax,1)
    266d:	00 00 00 
    2670:	48 89 da             	mov    %rbx,%rdx
    2673:	48 89 e7             	mov    %rsp,%rdi
    2676:	b9 04 00 00 00       	mov    $0x4,%ecx
    267b:	be 04 00 00 00       	mov    $0x4,%esi
    2680:	0f ae e8             	lfence 
    2683:	e8 08 ca 00 00       	call   f090 <memcpy_s>
    2688:	89 c2                	mov    %eax,%edx
    268a:	b8 01 00 00 00       	mov    $0x1,%eax
    268f:	85 d2                	test   %edx,%edx
    2691:	75 bd                	jne    2650 <sgx_ecall_function_private+0x30>
    2693:	e8 08 4b 00 00       	call   71a0 <ecall_function_private>
    2698:	48 8d 54 24 04       	lea    0x4(%rsp),%rdx
    269d:	b9 04 00 00 00       	mov    $0x4,%ecx
    26a2:	be 04 00 00 00       	mov    $0x4,%esi
    26a7:	48 89 df             	mov    %rbx,%rdi
    26aa:	89 44 24 04          	mov    %eax,0x4(%rsp)
    26ae:	e8 5d ca 00 00       	call   f110 <memcpy_verw_s>
    26b3:	85 c0                	test   %eax,%eax
    26b5:	0f 95 c0             	setne  %al
    26b8:	0f b6 c0             	movzbl %al,%eax
    26bb:	eb 93                	jmp    2650 <sgx_ecall_function_private+0x30>
    26bd:	e8 8e c4 00 00       	call   eb50 <__stack_chk_fail>
    26c2:	66 2e 0f 1f 84 00 00 	cs nopw 0x0(%rax,%rax,1)
    26c9:	00 00 00 
    26cc:	0f 1f 40 00          	nopl   0x0(%rax)

00000000000026d0 <sgx_ecall_array_isary>:
    26d0:	53                   	push   %rbx
    26d1:	48 83 ec 10          	sub    $0x10,%rsp
    26d5:	64 48 8b 04 25 28 00 	mov    %fs:0x28,%rax
    26dc:	00 00 
    26de:	48 89 44 24 08       	mov    %rax,0x8(%rsp)
    26e3:	31 c0                	xor    %eax,%eax
    26e5:	48 85 ff             	test   %rdi,%rdi
    26e8:	74 11                	je     26fb <sgx_ecall_array_isary+0x2b>
    26ea:	be 08 00 00 00       	mov    $0x8,%esi
    26ef:	48 89 fb             	mov    %rdi,%rbx
    26f2:	e8 39 58 00 00       	call   7f30 <sgx_is_outside_enclave>
    26f7:	85 c0                	test   %eax,%eax
    26f9:	75 25                	jne    2720 <sgx_ecall_array_isary+0x50>
    26fb:	b8 02 00 00 00       	mov    $0x2,%eax
    2700:	48 8b 4c 24 08       	mov    0x8(%rsp),%rcx
    2705:	64 48 33 0c 25 28 00 	xor    %fs:0x28,%rcx
    270c:	00 00 
    270e:	75 40                	jne    2750 <sgx_ecall_array_isary+0x80>
    2710:	48 83 c4 10          	add    $0x10,%rsp
    2714:	5b                   	pop    %rbx
    2715:	c3                   	ret    
    2716:	66 2e 0f 1f 84 00 00 	cs nopw 0x0(%rax,%rax,1)
    271d:	00 00 00 
    2720:	48 89 da             	mov    %rbx,%rdx
    2723:	48 89 e7             	mov    %rsp,%rdi
    2726:	b9 08 00 00 00       	mov    $0x8,%ecx
    272b:	be 08 00 00 00       	mov    $0x8,%esi
    2730:	0f ae e8             	lfence 
    2733:	e8 58 c9 00 00       	call   f090 <memcpy_s>
    2738:	89 c2                	mov    %eax,%edx
    273a:	b8 01 00 00 00       	mov    $0x1,%eax
    273f:	85 d2                	test   %edx,%edx
    2741:	75 bd                	jne    2700 <sgx_ecall_array_isary+0x30>
    2743:	48 8b 3c 24          	mov    (%rsp),%rdi
    2747:	e8 84 48 00 00       	call   6fd0 <ecall_array_isary>
    274c:	31 c0                	xor    %eax,%eax
    274e:	eb b0                	jmp    2700 <sgx_ecall_array_isary+0x30>
    2750:	e8 fb c3 00 00       	call   eb50 <__stack_chk_fail>
    2755:	66 2e 0f 1f 84 00 00 	cs nopw 0x0(%rax,%rax,1)
    275c:	00 00 00 
    275f:	90                   	nop

0000000000002760 <sgx_ecall_array_in_out>:
    2760:	41 54                	push   %r12
    2762:	55                   	push   %rbp
    2763:	53                   	push   %rbx
    2764:	48 83 ec 10          	sub    $0x10,%rsp
    2768:	64 48 8b 04 25 28 00 	mov    %fs:0x28,%rax
    276f:	00 00 
    2771:	48 89 44 24 08       	mov    %rax,0x8(%rsp)
    2776:	31 c0                	xor    %eax,%eax
    2778:	48 85 ff             	test   %rdi,%rdi
    277b:	74 11                	je     278e <sgx_ecall_array_in_out+0x2e>
    277d:	be 08 00 00 00       	mov    $0x8,%esi
    2782:	48 89 fb             	mov    %rdi,%rbx
    2785:	e8 a6 57 00 00       	call   7f30 <sgx_is_outside_enclave>
    278a:	85 c0                	test   %eax,%eax
    278c:	75 22                	jne    27b0 <sgx_ecall_array_in_out+0x50>
    278e:	b8 02 00 00 00       	mov    $0x2,%eax
    2793:	48 8b 4c 24 08       	mov    0x8(%rsp),%rcx
    2798:	64 48 33 0c 25 28 00 	xor    %fs:0x28,%rcx
    279f:	00 00 
    27a1:	0f 85 ce 00 00 00    	jne    2875 <sgx_ecall_array_in_out+0x115>
    27a7:	48 83 c4 10          	add    $0x10,%rsp
    27ab:	5b                   	pop    %rbx
    27ac:	5d                   	pop    %rbp
    27ad:	41 5c                	pop    %r12
    27af:	c3                   	ret    
    27b0:	48 89 da             	mov    %rbx,%rdx
    27b3:	48 89 e7             	mov    %rsp,%rdi
    27b6:	b9 08 00 00 00       	mov    $0x8,%ecx
    27bb:	be 08 00 00 00       	mov    $0x8,%esi
    27c0:	0f ae e8             	lfence 
    27c3:	e8 c8 c8 00 00       	call   f090 <memcpy_s>
    27c8:	89 c2                	mov    %eax,%edx
    27ca:	b8 01 00 00 00       	mov    $0x1,%eax
    27cf:	85 d2                	test   %edx,%edx
    27d1:	75 c0                	jne    2793 <sgx_ecall_array_in_out+0x33>
    27d3:	48 8b 2c 24          	mov    (%rsp),%rbp
    27d7:	48 85 ed             	test   %rbp,%rbp
    27da:	74 7e                	je     285a <sgx_ecall_array_in_out+0xfa>
    27dc:	be 10 00 00 00       	mov    $0x10,%esi
    27e1:	48 89 ef             	mov    %rbp,%rdi
    27e4:	e8 47 57 00 00       	call   7f30 <sgx_is_outside_enclave>
    27e9:	89 c2                	mov    %eax,%edx
    27eb:	b8 02 00 00 00       	mov    $0x2,%eax
    27f0:	85 d2                	test   %edx,%edx
    27f2:	74 9f                	je     2793 <sgx_ecall_array_in_out+0x33>
    27f4:	bf 10 00 00 00       	mov    $0x10,%edi
    27f9:	0f ae e8             	lfence 
    27fc:	e8 ff 8e 00 00       	call   b700 <dlmalloc>
    2801:	48 85 c0             	test   %rax,%rax
    2804:	49 89 c4             	mov    %rax,%r12
    2807:	74 62                	je     286b <sgx_ecall_array_in_out+0x10b>
    2809:	b9 10 00 00 00       	mov    $0x10,%ecx
    280e:	48 89 ea             	mov    %rbp,%rdx
    2811:	be 10 00 00 00       	mov    $0x10,%esi
    2816:	4c 89 e7             	mov    %r12,%rdi
    2819:	bb 01 00 00 00       	mov    $0x1,%ebx
    281e:	e8 6d c8 00 00       	call   f090 <memcpy_s>
    2823:	85 c0                	test   %eax,%eax
    2825:	75 24                	jne    284b <sgx_ecall_array_in_out+0xeb>
    2827:	4c 89 e7             	mov    %r12,%rdi
    282a:	31 db                	xor    %ebx,%ebx
    282c:	e8 4f 47 00 00       	call   6f80 <ecall_array_in_out>
    2831:	b9 10 00 00 00       	mov    $0x10,%ecx
    2836:	4c 89 e2             	mov    %r12,%rdx
    2839:	be 10 00 00 00       	mov    $0x10,%esi
    283e:	48 89 ef             	mov    %rbp,%rdi
    2841:	e8 ca c8 00 00       	call   f110 <memcpy_verw_s>
    2846:	85 c0                	test   %eax,%eax
    2848:	0f 95 c3             	setne  %bl
    284b:	4c 89 e7             	mov    %r12,%rdi
    284e:	e8 1d a9 00 00       	call   d170 <dlfree>
    2853:	89 d8                	mov    %ebx,%eax
    2855:	e9 39 ff ff ff       	jmp    2793 <sgx_ecall_array_in_out+0x33>
    285a:	31 ff                	xor    %edi,%edi
    285c:	0f ae e8             	lfence 
    285f:	e8 1c 47 00 00       	call   6f80 <ecall_array_in_out>
    2864:	31 c0                	xor    %eax,%eax
    2866:	e9 28 ff ff ff       	jmp    2793 <sgx_ecall_array_in_out+0x33>
    286b:	b8 03 00 00 00       	mov    $0x3,%eax
    2870:	e9 1e ff ff ff       	jmp    2793 <sgx_ecall_array_in_out+0x33>
    2875:	e8 d6 c2 00 00       	call   eb50 <__stack_chk_fail>
    287a:	66 0f 1f 44 00 00    	nopw   0x0(%rax,%rax,1)

0000000000002880 <sgx_ecall_array_out>:
    2880:	55                   	push   %rbp
    2881:	53                   	push   %rbx
    2882:	48 83 ec 28          	sub    $0x28,%rsp
    2886:	64 48 8b 04 25 28 00 	mov    %fs:0x28,%rax
    288d:	00 00 
    288f:	48 89 44 24 18       	mov    %rax,0x18(%rsp)
    2894:	31 c0                	xor    %eax,%eax
    2896:	48 85 ff             	test   %rdi,%rdi
    2899:	74 11                	je     28ac <sgx_ecall_array_out+0x2c>
    289b:	be 08 00 00 00       	mov    $0x8,%esi
    28a0:	48 89 fb             	mov    %rdi,%rbx
    28a3:	e8 88 56 00 00       	call   7f30 <sgx_is_outside_enclave>
    28a8:	85 c0                	test   %eax,%eax
    28aa:	75 24                	jne    28d0 <sgx_ecall_array_out+0x50>
    28ac:	b8 02 00 00 00       	mov    $0x2,%eax
    28b1:	48 8b 4c 24 18       	mov    0x18(%rsp),%rcx
    28b6:	64 48 33 0c 25 28 00 	xor    %fs:0x28,%rcx
    28bd:	00 00 
    28bf:	0f 85 c1 00 00 00    	jne    2986 <sgx_ecall_array_out+0x106>
    28c5:	48 83 c4 28          	add    $0x28,%rsp
    28c9:	5b                   	pop    %rbx
    28ca:	5d                   	pop    %rbp
    28cb:	c3                   	ret    
    28cc:	0f 1f 40 00          	nopl   0x0(%rax)
    28d0:	48 8d 7c 24 10       	lea    0x10(%rsp),%rdi
    28d5:	48 89 da             	mov    %rbx,%rdx
    28d8:	b9 08 00 00 00       	mov    $0x8,%ecx
    28dd:	be 08 00 00 00       	mov    $0x8,%esi
    28e2:	0f ae e8             	lfence 
    28e5:	e8 a6 c7 00 00       	call   f090 <memcpy_s>
    28ea:	89 c2                	mov    %eax,%edx
    28ec:	b8 01 00 00 00       	mov    $0x1,%eax
    28f1:	85 d2                	test   %edx,%edx
    28f3:	75 bc                	jne    28b1 <sgx_ecall_array_out+0x31>
    28f5:	48 8b 5c 24 10       	mov    0x10(%rsp),%rbx
    28fa:	48 85 db             	test   %rbx,%rbx
    28fd:	74 6c                	je     296b <sgx_ecall_array_out+0xeb>
    28ff:	be 10 00 00 00       	mov    $0x10,%esi
    2904:	48 89 df             	mov    %rbx,%rdi
    2907:	e8 24 56 00 00       	call   7f30 <sgx_is_outside_enclave>
    290c:	89 c2                	mov    %eax,%edx
    290e:	b8 02 00 00 00       	mov    $0x2,%eax
    2913:	85 d2                	test   %edx,%edx
    2915:	74 9a                	je     28b1 <sgx_ecall_array_out+0x31>
    2917:	be 01 00 00 00       	mov    $0x1,%esi
    291c:	bf 10 00 00 00       	mov    $0x10,%edi
    2921:	0f ae e8             	lfence 
    2924:	e8 57 b2 00 00       	call   db80 <calloc>
    2929:	48 85 c0             	test   %rax,%rax
    292c:	48 89 c5             	mov    %rax,%rbp
    292f:	74 4b                	je     297c <sgx_ecall_array_out+0xfc>
    2931:	48 89 ef             	mov    %rbp,%rdi
    2934:	e8 e7 45 00 00       	call   6f20 <ecall_array_out>
    2939:	b9 10 00 00 00       	mov    $0x10,%ecx
    293e:	48 89 ea             	mov    %rbp,%rdx
    2941:	be 10 00 00 00       	mov    $0x10,%esi
    2946:	48 89 df             	mov    %rbx,%rdi
    2949:	e8 c2 c7 00 00       	call   f110 <memcpy_verw_s>
    294e:	85 c0                	test   %eax,%eax
    2950:	48 89 ef             	mov    %rbp,%rdi
    2953:	0f 95 c0             	setne  %al
    2956:	0f b6 c0             	movzbl %al,%eax
    2959:	89 44 24 0c          	mov    %eax,0xc(%rsp)
    295d:	e8 0e a8 00 00       	call   d170 <dlfree>
    2962:	8b 44 24 0c          	mov    0xc(%rsp),%eax
    2966:	e9 46 ff ff ff       	jmp    28b1 <sgx_ecall_array_out+0x31>
    296b:	31 ff                	xor    %edi,%edi
    296d:	0f ae e8             	lfence 
    2970:	e8 ab 45 00 00       	call   6f20 <ecall_array_out>
    2975:	31 c0                	xor    %eax,%eax
    2977:	e9 35 ff ff ff       	jmp    28b1 <sgx_ecall_array_out+0x31>
    297c:	b8 03 00 00 00       	mov    $0x3,%eax
    2981:	e9 2b ff ff ff       	jmp    28b1 <sgx_ecall_array_out+0x31>
    2986:	e8 c5 c1 00 00       	call   eb50 <__stack_chk_fail>
    298b:	0f 1f 44 00 00       	nopl   0x0(%rax,%rax,1)

0000000000002990 <sgx_ecall_array_in>:
    2990:	55                   	push   %rbp
    2991:	53                   	push   %rbx
    2992:	48 83 ec 18          	sub    $0x18,%rsp
    2996:	64 48 8b 04 25 28 00 	mov    %fs:0x28,%rax
    299d:	00 00 
    299f:	48 89 44 24 08       	mov    %rax,0x8(%rsp)
    29a4:	31 c0                	xor    %eax,%eax
    29a6:	48 85 ff             	test   %rdi,%rdi
    29a9:	74 11                	je     29bc <sgx_ecall_array_in+0x2c>
    29ab:	be 08 00 00 00       	mov    $0x8,%esi
    29b0:	48 89 fb             	mov    %rdi,%rbx
    29b3:	e8 78 55 00 00       	call   7f30 <sgx_is_outside_enclave>
    29b8:	85 c0                	test   %eax,%eax
    29ba:	75 24                	jne    29e0 <sgx_ecall_array_in+0x50>
    29bc:	b8 02 00 00 00       	mov    $0x2,%eax
    29c1:	48 8b 4c 24 08       	mov    0x8(%rsp),%rcx
    29c6:	64 48 33 0c 25 28 00 	xor    %fs:0x28,%rcx
    29cd:	00 00 
    29cf:	0f 85 b3 00 00 00    	jne    2a88 <sgx_ecall_array_in+0xf8>
    29d5:	48 83 c4 18          	add    $0x18,%rsp
    29d9:	5b                   	pop    %rbx
    29da:	5d                   	pop    %rbp
    29db:	c3                   	ret    
    29dc:	0f 1f 40 00          	nopl   0x0(%rax)
    29e0:	48 89 da             	mov    %rbx,%rdx
    29e3:	48 89 e7             	mov    %rsp,%rdi
    29e6:	b9 08 00 00 00       	mov    $0x8,%ecx
    29eb:	be 08 00 00 00       	mov    $0x8,%esi
    29f0:	0f ae e8             	lfence 
    29f3:	e8 98 c6 00 00       	call   f090 <memcpy_s>
    29f8:	89 c2                	mov    %eax,%edx
    29fa:	b8 01 00 00 00       	mov    $0x1,%eax
    29ff:	85 d2                	test   %edx,%edx
    2a01:	75 be                	jne    29c1 <sgx_ecall_array_in+0x31>
    2a03:	48 8b 1c 24          	mov    (%rsp),%rbx
    2a07:	48 85 db             	test   %rbx,%rbx
    2a0a:	74 5f                	je     2a6b <sgx_ecall_array_in+0xdb>
    2a0c:	be 10 00 00 00       	mov    $0x10,%esi
    2a11:	48 89 df             	mov    %rbx,%rdi
    2a14:	e8 17 55 00 00       	call   7f30 <sgx_is_outside_enclave>
    2a19:	89 c2                	mov    %eax,%edx
    2a1b:	b8 02 00 00 00       	mov    $0x2,%eax
    2a20:	85 d2                	test   %edx,%edx
    2a22:	74 9d                	je     29c1 <sgx_ecall_array_in+0x31>
    2a24:	bf 10 00 00 00       	mov    $0x10,%edi
    2a29:	0f ae e8             	lfence 
    2a2c:	e8 cf 8c 00 00       	call   b700 <dlmalloc>
    2a31:	48 89 c5             	mov    %rax,%rbp
    2a34:	b8 03 00 00 00       	mov    $0x3,%eax
    2a39:	48 85 ed             	test   %rbp,%rbp
    2a3c:	74 83                	je     29c1 <sgx_ecall_array_in+0x31>
    2a3e:	b9 10 00 00 00       	mov    $0x10,%ecx
    2a43:	48 89 da             	mov    %rbx,%rdx
    2a46:	be 10 00 00 00       	mov    $0x10,%esi
    2a4b:	48 89 ef             	mov    %rbp,%rdi
    2a4e:	e8 3d c6 00 00       	call   f090 <memcpy_s>
    2a53:	85 c0                	test   %eax,%eax
    2a55:	74 25                	je     2a7c <sgx_ecall_array_in+0xec>
    2a57:	bb 01 00 00 00       	mov    $0x1,%ebx
    2a5c:	48 89 ef             	mov    %rbp,%rdi
    2a5f:	e8 0c a7 00 00       	call   d170 <dlfree>
    2a64:	89 d8                	mov    %ebx,%eax
    2a66:	e9 56 ff ff ff       	jmp    29c1 <sgx_ecall_array_in+0x31>
    2a6b:	31 ff                	xor    %edi,%edi
    2a6d:	0f ae e8             	lfence 
    2a70:	e8 5b 44 00 00       	call   6ed0 <ecall_array_in>
    2a75:	31 c0                	xor    %eax,%eax
    2a77:	e9 45 ff ff ff       	jmp    29c1 <sgx_ecall_array_in+0x31>
    2a7c:	48 89 ef             	mov    %rbp,%rdi
    2a7f:	31 db                	xor    %ebx,%ebx
    2a81:	e8 4a 44 00 00       	call   6ed0 <ecall_array_in>
    2a86:	eb d4                	jmp    2a5c <sgx_ecall_array_in+0xcc>
    2a88:	e8 c3 c0 00 00       	call   eb50 <__stack_chk_fail>
    2a8d:	0f 1f 00             	nopl   (%rax)

0000000000002a90 <sgx_ecall_array_user_check>:
    2a90:	53                   	push   %rbx
    2a91:	48 83 ec 10          	sub    $0x10,%rsp
    2a95:	64 48 8b 04 25 28 00 	mov    %fs:0x28,%rax
    2a9c:	00 00 
    2a9e:	48 89 44 24 08       	mov    %rax,0x8(%rsp)
    2aa3:	31 c0                	xor    %eax,%eax
    2aa5:	48 85 ff             	test   %rdi,%rdi
    2aa8:	74 11                	je     2abb <sgx_ecall_array_user_check+0x2b>
    2aaa:	be 08 00 00 00       	mov    $0x8,%esi
    2aaf:	48 89 fb             	mov    %rdi,%rbx
    2ab2:	e8 79 54 00 00       	call   7f30 <sgx_is_outside_enclave>
    2ab7:	85 c0                	test   %eax,%eax
    2ab9:	75 25                	jne    2ae0 <sgx_ecall_array_user_check+0x50>
    2abb:	b8 02 00 00 00       	mov    $0x2,%eax
    2ac0:	48 8b 4c 24 08       	mov    0x8(%rsp),%rcx
    2ac5:	64 48 33 0c 25 28 00 	xor    %fs:0x28,%rcx
    2acc:	00 00 
    2ace:	75 40                	jne    2b10 <sgx_ecall_array_user_check+0x80>
    2ad0:	48 83 c4 10          	add    $0x10,%rsp
    2ad4:	5b                   	pop    %rbx
    2ad5:	c3                   	ret    
    2ad6:	66 2e 0f 1f 84 00 00 	cs nopw 0x0(%rax,%rax,1)
    2add:	00 00 00 
    2ae0:	48 89 da             	mov    %rbx,%rdx
    2ae3:	48 89 e7             	mov    %rsp,%rdi
    2ae6:	b9 08 00 00 00       	mov    $0x8,%ecx
    2aeb:	be 08 00 00 00       	mov    $0x8,%esi
    2af0:	0f ae e8             	lfence 
    2af3:	e8 98 c5 00 00       	call   f090 <memcpy_s>
    2af8:	89 c2                	mov    %eax,%edx
    2afa:	b8 01 00 00 00       	mov    $0x1,%eax
    2aff:	85 d2                	test   %edx,%edx
    2b01:	75 bd                	jne    2ac0 <sgx_ecall_array_user_check+0x30>
    2b03:	48 8b 3c 24          	mov    (%rsp),%rdi
    2b07:	e8 64 43 00 00       	call   6e70 <ecall_array_user_check>
    2b0c:	31 c0                	xor    %eax,%eax
    2b0e:	eb b0                	jmp    2ac0 <sgx_ecall_array_user_check+0x30>
    2b10:	e8 3b c0 00 00       	call   eb50 <__stack_chk_fail>
    2b15:	66 2e 0f 1f 84 00 00 	cs nopw 0x0(%rax,%rax,1)
    2b1c:	00 00 00 
    2b1f:	90                   	nop

0000000000002b20 <sgx_ecall_pointer_isptr_readonly>:
    2b20:	41 54                	push   %r12
    2b22:	55                   	push   %rbp
    2b23:	53                   	push   %rbx
    2b24:	48 83 ec 20          	sub    $0x20,%rsp
    2b28:	64 48 8b 04 25 28 00 	mov    %fs:0x28,%rax
    2b2f:	00 00 
    2b31:	48 89 44 24 18       	mov    %rax,0x18(%rsp)
    2b36:	31 c0                	xor    %eax,%eax
    2b38:	48 85 ff             	test   %rdi,%rdi
    2b3b:	74 11                	je     2b4e <sgx_ecall_pointer_isptr_readonly+0x2e>
    2b3d:	be 10 00 00 00       	mov    $0x10,%esi
    2b42:	48 89 fb             	mov    %rdi,%rbx
    2b45:	e8 e6 53 00 00       	call   7f30 <sgx_is_outside_enclave>
    2b4a:	85 c0                	test   %eax,%eax
    2b4c:	75 22                	jne    2b70 <sgx_ecall_pointer_isptr_readonly+0x50>
    2b4e:	b8 02 00 00 00       	mov    $0x2,%eax
    2b53:	48 8b 4c 24 18       	mov    0x18(%rsp),%rcx
    2b58:	64 48 33 0c 25 28 00 	xor    %fs:0x28,%rcx
    2b5f:	00 00 
    2b61:	0f 85 cd 00 00 00    	jne    2c34 <sgx_ecall_pointer_isptr_readonly+0x114>
    2b67:	48 83 c4 20          	add    $0x20,%rsp
    2b6b:	5b                   	pop    %rbx
    2b6c:	5d                   	pop    %rbp
    2b6d:	41 5c                	pop    %r12
    2b6f:	c3                   	ret    
    2b70:	48 89 da             	mov    %rbx,%rdx
    2b73:	48 89 e7             	mov    %rsp,%rdi
    2b76:	b9 10 00 00 00       	mov    $0x10,%ecx
    2b7b:	be 10 00 00 00       	mov    $0x10,%esi
    2b80:	0f ae e8             	lfence 
    2b83:	e8 08 c5 00 00       	call   f090 <memcpy_s>
    2b88:	89 c2                	mov    %eax,%edx
    2b8a:	b8 01 00 00 00       	mov    $0x1,%eax
    2b8f:	85 d2                	test   %edx,%edx
    2b91:	75 c0                	jne    2b53 <sgx_ecall_pointer_isptr_readonly+0x33>
    2b93:	48 8b 1c 24          	mov    (%rsp),%rbx
    2b97:	48 8b 6c 24 08       	mov    0x8(%rsp),%rbp
    2b9c:	48 85 db             	test   %rbx,%rbx
    2b9f:	74 60                	je     2c01 <sgx_ecall_pointer_isptr_readonly+0xe1>
    2ba1:	48 89 ee             	mov    %rbp,%rsi
    2ba4:	48 89 df             	mov    %rbx,%rdi
    2ba7:	e8 84 53 00 00       	call   7f30 <sgx_is_outside_enclave>
    2bac:	89 c2                	mov    %eax,%edx
    2bae:	b8 02 00 00 00       	mov    $0x2,%eax
    2bb3:	85 d2                	test   %edx,%edx
    2bb5:	74 9c                	je     2b53 <sgx_ecall_pointer_isptr_readonly+0x33>
    2bb7:	48 85 ed             	test   %rbp,%rbp
    2bba:	0f ae e8             	lfence 
    2bbd:	74 65                	je     2c24 <sgx_ecall_pointer_isptr_readonly+0x104>
    2bbf:	48 89 ef             	mov    %rbp,%rdi
    2bc2:	e8 39 8b 00 00       	call   b700 <dlmalloc>
    2bc7:	49 89 c4             	mov    %rax,%r12
    2bca:	b8 03 00 00 00       	mov    $0x3,%eax
    2bcf:	4d 85 e4             	test   %r12,%r12
    2bd2:	0f 84 7b ff ff ff    	je     2b53 <sgx_ecall_pointer_isptr_readonly+0x33>
    2bd8:	48 89 e9             	mov    %rbp,%rcx
    2bdb:	48 89 da             	mov    %rbx,%rdx
    2bde:	48 89 ee             	mov    %rbp,%rsi
    2be1:	4c 89 e7             	mov    %r12,%rdi
    2be4:	e8 a7 c4 00 00       	call   f090 <memcpy_s>
    2be9:	85 c0                	test   %eax,%eax
    2beb:	74 28                	je     2c15 <sgx_ecall_pointer_isptr_readonly+0xf5>
    2bed:	bb 01 00 00 00       	mov    $0x1,%ebx
    2bf2:	4c 89 e7             	mov    %r12,%rdi
    2bf5:	e8 76 a5 00 00       	call   d170 <dlfree>
    2bfa:	89 d8                	mov    %ebx,%eax
    2bfc:	e9 52 ff ff ff       	jmp    2b53 <sgx_ecall_pointer_isptr_readonly+0x33>
    2c01:	48 89 ee             	mov    %rbp,%rsi
    2c04:	31 ff                	xor    %edi,%edi
    2c06:	0f ae e8             	lfence 
    2c09:	e8 42 42 00 00       	call   6e50 <ecall_pointer_isptr_readonly>
    2c0e:	31 c0                	xor    %eax,%eax
    2c10:	e9 3e ff ff ff       	jmp    2b53 <sgx_ecall_pointer_isptr_readonly+0x33>
    2c15:	48 89 ee             	mov    %rbp,%rsi
    2c18:	4c 89 e7             	mov    %r12,%rdi
    2c1b:	31 db                	xor    %ebx,%ebx
    2c1d:	e8 2e 42 00 00       	call   6e50 <ecall_pointer_isptr_readonly>
    2c22:	eb ce                	jmp    2bf2 <sgx_ecall_pointer_isptr_readonly+0xd2>
    2c24:	31 f6                	xor    %esi,%esi
    2c26:	31 ff                	xor    %edi,%edi
    2c28:	e8 23 42 00 00       	call   6e50 <ecall_pointer_isptr_readonly>
    2c2d:	31 c0                	xor    %eax,%eax
    2c2f:	e9 1f ff ff ff       	jmp    2b53 <sgx_ecall_pointer_isptr_readonly+0x33>
    2c34:	e8 17 bf 00 00       	call   eb50 <__stack_chk_fail>
    2c39:	0f 1f 80 00 00 00 00 	nopl   0x0(%rax)

0000000000002c40 <sgx_ecall_pointer_count>:
    2c40:	41 56                	push   %r14
    2c42:	41 55                	push   %r13
    2c44:	41 54                	push   %r12
    2c46:	55                   	push   %rbp
    2c47:	53                   	push   %rbx
    2c48:	48 83 ec 20          	sub    $0x20,%rsp
    2c4c:	64 48 8b 04 25 28 00 	mov    %fs:0x28,%rax
    2c53:	00 00 
    2c55:	48 89 44 24 18       	mov    %rax,0x18(%rsp)
    2c5a:	31 c0                	xor    %eax,%eax
    2c5c:	48 85 ff             	test   %rdi,%rdi
    2c5f:	74 11                	je     2c72 <sgx_ecall_pointer_count+0x32>
    2c61:	be 10 00 00 00       	mov    $0x10,%esi
    2c66:	48 89 fb             	mov    %rdi,%rbx
    2c69:	e8 c2 52 00 00       	call   7f30 <sgx_is_outside_enclave>
    2c6e:	85 c0                	test   %eax,%eax
    2c70:	75 2e                	jne    2ca0 <sgx_ecall_pointer_count+0x60>
    2c72:	b8 02 00 00 00       	mov    $0x2,%eax
    2c77:	48 8b 4c 24 18       	mov    0x18(%rsp),%rcx
    2c7c:	64 48 33 0c 25 28 00 	xor    %fs:0x28,%rcx
    2c83:	00 00 
    2c85:	0f 85 e2 00 00 00    	jne    2d6d <sgx_ecall_pointer_count+0x12d>
    2c8b:	48 83 c4 20          	add    $0x20,%rsp
    2c8f:	5b                   	pop    %rbx
    2c90:	5d                   	pop    %rbp
    2c91:	41 5c                	pop    %r12
    2c93:	41 5d                	pop    %r13
    2c95:	41 5e                	pop    %r14
    2c97:	c3                   	ret    
    2c98:	0f 1f 84 00 00 00 00 	nopl   0x0(%rax,%rax,1)
    2c9f:	00 
    2ca0:	48 89 da             	mov    %rbx,%rdx
    2ca3:	48 89 e7             	mov    %rsp,%rdi
    2ca6:	b9 10 00 00 00       	mov    $0x10,%ecx
    2cab:	be 10 00 00 00       	mov    $0x10,%esi
    2cb0:	0f ae e8             	lfence 
    2cb3:	e8 d8 c3 00 00       	call   f090 <memcpy_s>
    2cb8:	89 c2                	mov    %eax,%edx
    2cba:	b8 01 00 00 00       	mov    $0x1,%eax
    2cbf:	85 d2                	test   %edx,%edx
    2cc1:	75 b4                	jne    2c77 <sgx_ecall_pointer_count+0x37>
    2cc3:	8b 6c 24 08          	mov    0x8(%rsp),%ebp
    2cc7:	85 ed                	test   %ebp,%ebp
    2cc9:	78 a7                	js     2c72 <sgx_ecall_pointer_count+0x32>
    2ccb:	4c 8b 2c 24          	mov    (%rsp),%r13
    2ccf:	4d 85 ed             	test   %r13,%r13
    2cd2:	0f 84 82 00 00 00    	je     2d5a <sgx_ecall_pointer_count+0x11a>
    2cd8:	4c 63 e5             	movslq %ebp,%r12
    2cdb:	4c 89 ef             	mov    %r13,%rdi
    2cde:	49 c1 e4 02          	shl    $0x2,%r12
    2ce2:	4c 89 e6             	mov    %r12,%rsi
    2ce5:	e8 46 52 00 00       	call   7f30 <sgx_is_outside_enclave>
    2cea:	85 c0                	test   %eax,%eax
    2cec:	74 84                	je     2c72 <sgx_ecall_pointer_count+0x32>
    2cee:	4d 85 e4             	test   %r12,%r12
    2cf1:	0f ae e8             	lfence 
    2cf4:	74 67                	je     2d5d <sgx_ecall_pointer_count+0x11d>
    2cf6:	4c 89 e7             	mov    %r12,%rdi
    2cf9:	e8 02 8a 00 00       	call   b700 <dlmalloc>
    2cfe:	49 89 c6             	mov    %rax,%r14
    2d01:	b8 03 00 00 00       	mov    $0x3,%eax
    2d06:	4d 85 f6             	test   %r14,%r14
    2d09:	0f 84 68 ff ff ff    	je     2c77 <sgx_ecall_pointer_count+0x37>
    2d0f:	4c 89 e1             	mov    %r12,%rcx
    2d12:	4c 89 ea             	mov    %r13,%rdx
    2d15:	4c 89 e6             	mov    %r12,%rsi
    2d18:	4c 89 f7             	mov    %r14,%rdi
    2d1b:	bb 01 00 00 00       	mov    $0x1,%ebx
    2d20:	e8 6b c3 00 00       	call   f090 <memcpy_s>
    2d25:	85 c0                	test   %eax,%eax
    2d27:	75 22                	jne    2d4b <sgx_ecall_pointer_count+0x10b>
    2d29:	89 ee                	mov    %ebp,%esi
    2d2b:	4c 89 f7             	mov    %r14,%rdi
    2d2e:	31 db                	xor    %ebx,%ebx
    2d30:	e8 fb 40 00 00       	call   6e30 <ecall_pointer_count>
    2d35:	4c 89 e1             	mov    %r12,%rcx
    2d38:	4c 89 f2             	mov    %r14,%rdx
    2d3b:	4c 89 e6             	mov    %r12,%rsi
    2d3e:	4c 89 ef             	mov    %r13,%rdi
    2d41:	e8 ca c3 00 00       	call   f110 <memcpy_verw_s>
    2d46:	85 c0                	test   %eax,%eax
    2d48:	0f 95 c3             	setne  %bl
    2d4b:	4c 89 f7             	mov    %r14,%rdi
    2d4e:	e8 1d a4 00 00       	call   d170 <dlfree>
    2d53:	89 d8                	mov    %ebx,%eax
    2d55:	e9 1d ff ff ff       	jmp    2c77 <sgx_ecall_pointer_count+0x37>
    2d5a:	0f ae e8             	lfence 
    2d5d:	89 ee                	mov    %ebp,%esi
    2d5f:	31 ff                	xor    %edi,%edi
    2d61:	e8 ca 40 00 00       	call   6e30 <ecall_pointer_count>
    2d66:	31 c0                	xor    %eax,%eax
    2d68:	e9 0a ff ff ff       	jmp    2c77 <sgx_ecall_pointer_count+0x37>
    2d6d:	e8 de bd 00 00       	call   eb50 <__stack_chk_fail>
    2d72:	66 2e 0f 1f 84 00 00 	cs nopw 0x0(%rax,%rax,1)
    2d79:	00 00 00 
    2d7c:	0f 1f 40 00          	nopl   0x0(%rax)

0000000000002d80 <sgx_ecall_pointer_size>:
    2d80:	41 55                	push   %r13
    2d82:	41 54                	push   %r12
    2d84:	55                   	push   %rbp
    2d85:	53                   	push   %rbx
    2d86:	48 83 ec 28          	sub    $0x28,%rsp
    2d8a:	64 48 8b 04 25 28 00 	mov    %fs:0x28,%rax
    2d91:	00 00 
    2d93:	48 89 44 24 18       	mov    %rax,0x18(%rsp)
    2d98:	31 c0                	xor    %eax,%eax
    2d9a:	48 85 ff             	test   %rdi,%rdi
    2d9d:	74 11                	je     2db0 <sgx_ecall_pointer_size+0x30>
    2d9f:	be 10 00 00 00       	mov    $0x10,%esi
    2da4:	48 89 fb             	mov    %rdi,%rbx
    2da7:	e8 84 51 00 00       	call   7f30 <sgx_is_outside_enclave>
    2dac:	85 c0                	test   %eax,%eax
    2dae:	75 28                	jne    2dd8 <sgx_ecall_pointer_size+0x58>
    2db0:	b8 02 00 00 00       	mov    $0x2,%eax
    2db5:	48 8b 4c 24 18       	mov    0x18(%rsp),%rcx
    2dba:	64 48 33 0c 25 28 00 	xor    %fs:0x28,%rcx
    2dc1:	00 00 
    2dc3:	0f 85 db 00 00 00    	jne    2ea4 <sgx_ecall_pointer_size+0x124>
    2dc9:	48 83 c4 28          	add    $0x28,%rsp
    2dcd:	5b                   	pop    %rbx
    2dce:	5d                   	pop    %rbp
    2dcf:	41 5c                	pop    %r12
    2dd1:	41 5d                	pop    %r13
    2dd3:	c3                   	ret    
    2dd4:	0f 1f 40 00          	nopl   0x0(%rax)
    2dd8:	48 89 da             	mov    %rbx,%rdx
    2ddb:	48 89 e7             	mov    %rsp,%rdi
    2dde:	b9 10 00 00 00       	mov    $0x10,%ecx
    2de3:	be 10 00 00 00       	mov    $0x10,%esi
    2de8:	0f ae e8             	lfence 
    2deb:	e8 a0 c2 00 00       	call   f090 <memcpy_s>
    2df0:	89 c2                	mov    %eax,%edx
    2df2:	b8 01 00 00 00       	mov    $0x1,%eax
    2df7:	85 d2                	test   %edx,%edx
    2df9:	75 ba                	jne    2db5 <sgx_ecall_pointer_size+0x35>
    2dfb:	4c 8b 24 24          	mov    (%rsp),%r12
    2dff:	48 8b 6c 24 08       	mov    0x8(%rsp),%rbp
    2e04:	4d 85 e4             	test   %r12,%r12
    2e07:	0f 84 83 00 00 00    	je     2e90 <sgx_ecall_pointer_size+0x110>
    2e0d:	48 89 ee             	mov    %rbp,%rsi
    2e10:	4c 89 e7             	mov    %r12,%rdi
    2e13:	e8 18 51 00 00       	call   7f30 <sgx_is_outside_enclave>
    2e18:	89 c2                	mov    %eax,%edx
    2e1a:	b8 02 00 00 00       	mov    $0x2,%eax
    2e1f:	85 d2                	test   %edx,%edx
    2e21:	74 92                	je     2db5 <sgx_ecall_pointer_size+0x35>
    2e23:	48 85 ed             	test   %rbp,%rbp
    2e26:	0f ae e8             	lfence 
    2e29:	74 68                	je     2e93 <sgx_ecall_pointer_size+0x113>
    2e2b:	48 89 ef             	mov    %rbp,%rdi
    2e2e:	e8 cd 88 00 00       	call   b700 <dlmalloc>
    2e33:	49 89 c5             	mov    %rax,%r13
    2e36:	b8 03 00 00 00       	mov    $0x3,%eax
    2e3b:	4d 85 ed             	test   %r13,%r13
    2e3e:	0f 84 71 ff ff ff    	je     2db5 <sgx_ecall_pointer_size+0x35>
    2e44:	48 89 e9             	mov    %rbp,%rcx
    2e47:	4c 89 e2             	mov    %r12,%rdx
    2e4a:	48 89 ee             	mov    %rbp,%rsi
    2e4d:	4c 89 ef             	mov    %r13,%rdi
    2e50:	bb 01 00 00 00       	mov    $0x1,%ebx
    2e55:	e8 36 c2 00 00       	call   f090 <memcpy_s>
    2e5a:	85 c0                	test   %eax,%eax
    2e5c:	75 23                	jne    2e81 <sgx_ecall_pointer_size+0x101>
    2e5e:	48 89 ee             	mov    %rbp,%rsi
    2e61:	4c 89 ef             	mov    %r13,%rdi
    2e64:	31 db                	xor    %ebx,%ebx
    2e66:	e8 f5 3f 00 00       	call   6e60 <ecall_pointer_size>
    2e6b:	48 89 e9             	mov    %rbp,%rcx
    2e6e:	4c 89 ea             	mov    %r13,%rdx
    2e71:	48 89 ee             	mov    %rbp,%rsi
    2e74:	4c 89 e7             	mov    %r12,%rdi
    2e77:	e8 94 c2 00 00       	call   f110 <memcpy_verw_s>
    2e7c:	85 c0                	test   %eax,%eax
    2e7e:	0f 95 c3             	setne  %bl
    2e81:	4c 89 ef             	mov    %r13,%rdi
    2e84:	e8 e7 a2 00 00       	call   d170 <dlfree>
    2e89:	89 d8                	mov    %ebx,%eax
    2e8b:	e9 25 ff ff ff       	jmp    2db5 <sgx_ecall_pointer_size+0x35>
    2e90:	0f ae e8             	lfence 
    2e93:	48 89 ee             	mov    %rbp,%rsi
    2e96:	31 ff                	xor    %edi,%edi
    2e98:	e8 c3 3f 00 00       	call   6e60 <ecall_pointer_size>
    2e9d:	31 c0                	xor    %eax,%eax
    2e9f:	e9 11 ff ff ff       	jmp    2db5 <sgx_ecall_pointer_size+0x35>
    2ea4:	e8 a7 bc 00 00       	call   eb50 <__stack_chk_fail>
    2ea9:	0f 1f 80 00 00 00 00 	nopl   0x0(%rax)

0000000000002eb0 <sgx_ecall_pointer_string_const>:
    2eb0:	41 54                	push   %r12
    2eb2:	55                   	push   %rbp
    2eb3:	53                   	push   %rbx
    2eb4:	48 83 ec 20          	sub    $0x20,%rsp
    2eb8:	64 48 8b 04 25 28 00 	mov    %fs:0x28,%rax
    2ebf:	00 00 
    2ec1:	48 89 44 24 18       	mov    %rax,0x18(%rsp)
    2ec6:	31 c0                	xor    %eax,%eax
    2ec8:	48 85 ff             	test   %rdi,%rdi
    2ecb:	74 11                	je     2ede <sgx_ecall_pointer_string_const+0x2e>
    2ecd:	be 10 00 00 00       	mov    $0x10,%esi
    2ed2:	48 89 fb             	mov    %rdi,%rbx
    2ed5:	e8 56 50 00 00       	call   7f30 <sgx_is_outside_enclave>
    2eda:	85 c0                	test   %eax,%eax
    2edc:	75 22                	jne    2f00 <sgx_ecall_pointer_string_const+0x50>
    2ede:	b8 02 00 00 00       	mov    $0x2,%eax
    2ee3:	48 8b 4c 24 18       	mov    0x18(%rsp),%rcx
    2ee8:	64 48 33 0c 25 28 00 	xor    %fs:0x28,%rcx
    2eef:	00 00 
    2ef1:	0f 85 17 01 00 00    	jne    300e <sgx_ecall_pointer_string_const+0x15e>
    2ef7:	48 83 c4 20          	add    $0x20,%rsp
    2efb:	5b                   	pop    %rbx
    2efc:	5d                   	pop    %rbp
    2efd:	41 5c                	pop    %r12
    2eff:	c3                   	ret    
    2f00:	48 89 da             	mov    %rbx,%rdx
    2f03:	48 89 e7             	mov    %rsp,%rdi
    2f06:	b9 10 00 00 00       	mov    $0x10,%ecx
    2f0b:	be 10 00 00 00       	mov    $0x10,%esi
    2f10:	0f ae e8             	lfence 
    2f13:	e8 78 c1 00 00       	call   f090 <memcpy_s>
    2f18:	89 c2                	mov    %eax,%edx
    2f1a:	b8 01 00 00 00       	mov    $0x1,%eax
    2f1f:	85 d2                	test   %edx,%edx
    2f21:	75 c0                	jne    2ee3 <sgx_ecall_pointer_string_const+0x33>
    2f23:	48 8b 1c 24          	mov    (%rsp),%rbx
    2f27:	48 8b 6c 24 08       	mov    0x8(%rsp),%rbp
    2f2c:	48 85 db             	test   %rbx,%rbx
    2f2f:	0f 84 ae 00 00 00    	je     2fe3 <sgx_ecall_pointer_string_const+0x133>
    2f35:	48 89 ee             	mov    %rbp,%rsi
    2f38:	48 89 df             	mov    %rbx,%rdi
    2f3b:	e8 f0 4f 00 00       	call   7f30 <sgx_is_outside_enclave>
    2f40:	89 c2                	mov    %eax,%edx
    2f42:	b8 02 00 00 00       	mov    $0x2,%eax
    2f47:	85 d2                	test   %edx,%edx
    2f49:	74 98                	je     2ee3 <sgx_ecall_pointer_string_const+0x33>
    2f4b:	48 85 ed             	test   %rbp,%rbp
    2f4e:	0f ae e8             	lfence 
    2f51:	0f 84 9d 00 00 00    	je     2ff4 <sgx_ecall_pointer_string_const+0x144>
    2f57:	48 89 ef             	mov    %rbp,%rdi
    2f5a:	e8 a1 87 00 00       	call   b700 <dlmalloc>
    2f5f:	49 89 c4             	mov    %rax,%r12
    2f62:	b8 03 00 00 00       	mov    $0x3,%eax
    2f67:	4d 85 e4             	test   %r12,%r12
    2f6a:	0f 84 73 ff ff ff    	je     2ee3 <sgx_ecall_pointer_string_const+0x33>
    2f70:	48 89 e9             	mov    %rbp,%rcx
    2f73:	48 89 da             	mov    %rbx,%rdx
    2f76:	48 89 ee             	mov    %rbp,%rsi
    2f79:	4c 89 e7             	mov    %r12,%rdi
    2f7c:	e8 0f c1 00 00       	call   f090 <memcpy_s>
    2f81:	85 c0                	test   %eax,%eax
    2f83:	75 4a                	jne    2fcf <sgx_ecall_pointer_string_const+0x11f>
    2f85:	41 c6 44 2c ff 00    	movb   $0x0,-0x1(%r12,%rbp,1)
    2f8b:	4c 89 e2             	mov    %r12,%rdx
    2f8e:	8b 0a                	mov    (%rdx),%ecx
    2f90:	48 83 c2 04          	add    $0x4,%rdx
    2f94:	8d 81 ff fe fe fe    	lea    -0x1010101(%rcx),%eax
    2f9a:	f7 d1                	not    %ecx
    2f9c:	21 c8                	and    %ecx,%eax
    2f9e:	25 80 80 80 80       	and    $0x80808080,%eax
    2fa3:	74 e9                	je     2f8e <sgx_ecall_pointer_string_const+0xde>
    2fa5:	89 c1                	mov    %eax,%ecx
    2fa7:	c1 e9 10             	shr    $0x10,%ecx
    2faa:	a9 80 80 00 00       	test   $0x8080,%eax
    2faf:	0f 44 c1             	cmove  %ecx,%eax
    2fb2:	48 8d 4a 02          	lea    0x2(%rdx),%rcx
    2fb6:	89 c6                	mov    %eax,%esi
    2fb8:	48 0f 44 d1          	cmove  %rcx,%rdx
    2fbc:	40 00 c6             	add    %al,%sil
    2fbf:	48 83 da 03          	sbb    $0x3,%rdx
    2fc3:	4c 29 e2             	sub    %r12,%rdx
    2fc6:	48 83 c2 01          	add    $0x1,%rdx
    2fca:	48 39 d5             	cmp    %rdx,%rbp
    2fcd:	74 33                	je     3002 <sgx_ecall_pointer_string_const+0x152>
    2fcf:	bb 01 00 00 00       	mov    $0x1,%ebx
    2fd4:	4c 89 e7             	mov    %r12,%rdi
    2fd7:	e8 94 a1 00 00       	call   d170 <dlfree>
    2fdc:	89 d8                	mov    %ebx,%eax
    2fde:	e9 00 ff ff ff       	jmp    2ee3 <sgx_ecall_pointer_string_const+0x33>
    2fe3:	31 ff                	xor    %edi,%edi
    2fe5:	0f ae e8             	lfence 
    2fe8:	e8 03 3e 00 00       	call   6df0 <ecall_pointer_string_const>
    2fed:	31 c0                	xor    %eax,%eax
    2fef:	e9 ef fe ff ff       	jmp    2ee3 <sgx_ecall_pointer_string_const+0x33>
    2ff4:	31 ff                	xor    %edi,%edi
    2ff6:	e8 f5 3d 00 00       	call   6df0 <ecall_pointer_string_const>
    2ffb:	31 c0                	xor    %eax,%eax
    2ffd:	e9 e1 fe ff ff       	jmp    2ee3 <sgx_ecall_pointer_string_const+0x33>
    3002:	4c 89 e7             	mov    %r12,%rdi
    3005:	31 db                	xor    %ebx,%ebx
    3007:	e8 e4 3d 00 00       	call   6df0 <ecall_pointer_string_const>
    300c:	eb c6                	jmp    2fd4 <sgx_ecall_pointer_string_const+0x124>
    300e:	e8 3d bb 00 00       	call   eb50 <__stack_chk_fail>
    3013:	66 2e 0f 1f 84 00 00 	cs nopw 0x0(%rax,%rax,1)
    301a:	00 00 00 
    301d:	0f 1f 00             	nopl   (%rax)

0000000000003020 <sgx_ecall_pointer_string>:
    3020:	41 55                	push   %r13
    3022:	41 54                	push   %r12
    3024:	55                   	push   %rbp
    3025:	53                   	push   %rbx
    3026:	48 83 ec 28          	sub    $0x28,%rsp
    302a:	64 48 8b 04 25 28 00 	mov    %fs:0x28,%rax
    3031:	00 00 
    3033:	48 89 44 24 18       	mov    %rax,0x18(%rsp)
    3038:	31 c0                	xor    %eax,%eax
    303a:	48 85 ff             	test   %rdi,%rdi
    303d:	74 11                	je     3050 <sgx_ecall_pointer_string+0x30>
    303f:	be 10 00 00 00       	mov    $0x10,%esi
    3044:	48 89 fb             	mov    %rdi,%rbx
    3047:	e8 e4 4e 00 00       	call   7f30 <sgx_is_outside_enclave>
    304c:	85 c0                	test   %eax,%eax
    304e:	75 28                	jne    3078 <sgx_ecall_pointer_string+0x58>
    3050:	b8 02 00 00 00       	mov    $0x2,%eax
    3055:	48 8b 4c 24 18       	mov    0x18(%rsp),%rcx
    305a:	64 48 33 0c 25 28 00 	xor    %fs:0x28,%rcx
    3061:	00 00 
    3063:	0f 85 6d 01 00 00    	jne    31d6 <sgx_ecall_pointer_string+0x1b6>
    3069:	48 83 c4 28          	add    $0x28,%rsp
    306d:	5b                   	pop    %rbx
    306e:	5d                   	pop    %rbp
    306f:	41 5c                	pop    %r12
    3071:	41 5d                	pop    %r13
    3073:	c3                   	ret    
    3074:	0f 1f 40 00          	nopl   0x0(%rax)
    3078:	48 89 da             	mov    %rbx,%rdx
    307b:	48 89 e7             	mov    %rsp,%rdi
    307e:	b9 10 00 00 00       	mov    $0x10,%ecx
    3083:	be 10 00 00 00       	mov    $0x10,%esi
    3088:	0f ae e8             	lfence 
    308b:	e8 00 c0 00 00       	call   f090 <memcpy_s>
    3090:	89 c2                	mov    %eax,%edx
    3092:	b8 01 00 00 00       	mov    $0x1,%eax
    3097:	85 d2                	test   %edx,%edx
    3099:	75 ba                	jne    3055 <sgx_ecall_pointer_string+0x35>
    309b:	48 8b 1c 24          	mov    (%rsp),%rbx
    309f:	48 8b 6c 24 08       	mov    0x8(%rsp),%rbp
    30a4:	48 85 db             	test   %rbx,%rbx
    30a7:	0f 84 b2 00 00 00    	je     315f <sgx_ecall_pointer_string+0x13f>
    30ad:	48 89 ee             	mov    %rbp,%rsi
    30b0:	48 89 df             	mov    %rbx,%rdi
    30b3:	e8 78 4e 00 00       	call   7f30 <sgx_is_outside_enclave>
    30b8:	89 c2                	mov    %eax,%edx
    30ba:	b8 02 00 00 00       	mov    $0x2,%eax
    30bf:	85 d2                	test   %edx,%edx
    30c1:	74 92                	je     3055 <sgx_ecall_pointer_string+0x35>
    30c3:	48 85 ed             	test   %rbp,%rbp
    30c6:	0f ae e8             	lfence 
    30c9:	0f 84 93 00 00 00    	je     3162 <sgx_ecall_pointer_string+0x142>
    30cf:	48 89 ef             	mov    %rbp,%rdi
    30d2:	e8 29 86 00 00       	call   b700 <dlmalloc>
    30d7:	49 89 c4             	mov    %rax,%r12
    30da:	b8 03 00 00 00       	mov    $0x3,%eax
    30df:	4d 85 e4             	test   %r12,%r12
    30e2:	0f 84 6d ff ff ff    	je     3055 <sgx_ecall_pointer_string+0x35>
    30e8:	48 89 e9             	mov    %rbp,%rcx
    30eb:	48 89 da             	mov    %rbx,%rdx
    30ee:	48 89 ee             	mov    %rbp,%rsi
    30f1:	4c 89 e7             	mov    %r12,%rdi
    30f4:	e8 97 bf 00 00       	call   f090 <memcpy_s>
    30f9:	85 c0                	test   %eax,%eax
    30fb:	75 4e                	jne    314b <sgx_ecall_pointer_string+0x12b>
    30fd:	4d 8d 6c 2c ff       	lea    -0x1(%r12,%rbp,1),%r13
    3102:	4c 89 e2             	mov    %r12,%rdx
    3105:	41 c6 45 00 00       	movb   $0x0,0x0(%r13)
    310a:	8b 0a                	mov    (%rdx),%ecx
    310c:	48 83 c2 04          	add    $0x4,%rdx
    3110:	8d 81 ff fe fe fe    	lea    -0x1010101(%rcx),%eax
    3116:	f7 d1                	not    %ecx
    3118:	21 c8                	and    %ecx,%eax
    311a:	25 80 80 80 80       	and    $0x80808080,%eax
    311f:	74 e9                	je     310a <sgx_ecall_pointer_string+0xea>
    3121:	89 c1                	mov    %eax,%ecx
    3123:	c1 e9 10             	shr    $0x10,%ecx
    3126:	a9 80 80 00 00       	test   $0x8080,%eax
    312b:	0f 44 c1             	cmove  %ecx,%eax
    312e:	48 8d 4a 02          	lea    0x2(%rdx),%rcx
    3132:	89 c6                	mov    %eax,%esi
    3134:	48 0f 44 d1          	cmove  %rcx,%rdx
    3138:	40 00 c6             	add    %al,%sil
    313b:	48 83 da 03          	sbb    $0x3,%rdx
    313f:	4c 29 e2             	sub    %r12,%rdx
    3142:	48 83 c2 01          	add    $0x1,%rdx
    3146:	48 39 d5             	cmp    %rdx,%rbp
    3149:	74 25                	je     3170 <sgx_ecall_pointer_string+0x150>
    314b:	bb 01 00 00 00       	mov    $0x1,%ebx
    3150:	4c 89 e7             	mov    %r12,%rdi
    3153:	e8 18 a0 00 00       	call   d170 <dlfree>
    3158:	89 d8                	mov    %ebx,%eax
    315a:	e9 f6 fe ff ff       	jmp    3055 <sgx_ecall_pointer_string+0x35>
    315f:	0f ae e8             	lfence 
    3162:	31 ff                	xor    %edi,%edi
    3164:	e8 67 3c 00 00       	call   6dd0 <ecall_pointer_string>
    3169:	31 c0                	xor    %eax,%eax
    316b:	e9 e5 fe ff ff       	jmp    3055 <sgx_ecall_pointer_string+0x35>
    3170:	4c 89 e7             	mov    %r12,%rdi
    3173:	e8 58 3c 00 00       	call   6dd0 <ecall_pointer_string>
    3178:	41 c6 45 00 00       	movb   $0x0,0x0(%r13)
    317d:	4c 89 e2             	mov    %r12,%rdx
    3180:	8b 0a                	mov    (%rdx),%ecx
    3182:	48 83 c2 04          	add    $0x4,%rdx
    3186:	8d 81 ff fe fe fe    	lea    -0x1010101(%rcx),%eax
    318c:	f7 d1                	not    %ecx
    318e:	21 c8                	and    %ecx,%eax
    3190:	25 80 80 80 80       	and    $0x80808080,%eax
    3195:	74 e9                	je     3180 <sgx_ecall_pointer_string+0x160>
    3197:	89 c1                	mov    %eax,%ecx
    3199:	48 89 df             	mov    %rbx,%rdi
    319c:	c1 e9 10             	shr    $0x10,%ecx
    319f:	a9 80 80 00 00       	test   $0x8080,%eax
    31a4:	0f 44 c1             	cmove  %ecx,%eax
    31a7:	48 8d 4a 02          	lea    0x2(%rdx),%rcx
    31ab:	89 c6                	mov    %eax,%esi
    31ad:	48 0f 44 d1          	cmove  %rcx,%rdx
    31b1:	40 00 c6             	add    %al,%sil
    31b4:	48 83 da 03          	sbb    $0x3,%rdx
    31b8:	31 db                	xor    %ebx,%ebx
    31ba:	4c 29 e2             	sub    %r12,%rdx
    31bd:	48 8d 72 01          	lea    0x1(%rdx),%rsi
    31c1:	4c 89 e2             	mov    %r12,%rdx
    31c4:	48 89 f1             	mov    %rsi,%rcx
    31c7:	e8 44 bf 00 00       	call   f110 <memcpy_verw_s>
    31cc:	85 c0                	test   %eax,%eax
    31ce:	0f 95 c3             	setne  %bl
    31d1:	e9 7a ff ff ff       	jmp    3150 <sgx_ecall_pointer_string+0x130>
    31d6:	e8 75 b9 00 00       	call   eb50 <__stack_chk_fail>
    31db:	0f 1f 44 00 00       	nopl   0x0(%rax,%rax,1)

00000000000031e0 <sgx_ecall_pointer_in_out>:
    31e0:	41 54                	push   %r12
    31e2:	55                   	push   %rbp
    31e3:	53                   	push   %rbx
    31e4:	48 83 ec 10          	sub    $0x10,%rsp
    31e8:	64 48 8b 04 25 28 00 	mov    %fs:0x28,%rax
    31ef:	00 00 
    31f1:	48 89 44 24 08       	mov    %rax,0x8(%rsp)
    31f6:	31 c0                	xor    %eax,%eax
    31f8:	48 85 ff             	test   %rdi,%rdi
    31fb:	74 11                	je     320e <sgx_ecall_pointer_in_out+0x2e>
    31fd:	be 08 00 00 00       	mov    $0x8,%esi
    3202:	48 89 fb             	mov    %rdi,%rbx
    3205:	e8 26 4d 00 00       	call   7f30 <sgx_is_outside_enclave>
    320a:	85 c0                	test   %eax,%eax
    320c:	75 22                	jne    3230 <sgx_ecall_pointer_in_out+0x50>
    320e:	b8 02 00 00 00       	mov    $0x2,%eax
    3213:	48 8b 4c 24 08       	mov    0x8(%rsp),%rcx
    3218:	64 48 33 0c 25 28 00 	xor    %fs:0x28,%rcx
    321f:	00 00 
    3221:	0f 85 ce 00 00 00    	jne    32f5 <sgx_ecall_pointer_in_out+0x115>
    3227:	48 83 c4 10          	add    $0x10,%rsp
    322b:	5b                   	pop    %rbx
    322c:	5d                   	pop    %rbp
    322d:	41 5c                	pop    %r12
    322f:	c3                   	ret    
    3230:	48 89 da             	mov    %rbx,%rdx
    3233:	48 89 e7             	mov    %rsp,%rdi
    3236:	b9 08 00 00 00       	mov    $0x8,%ecx
    323b:	be 08 00 00 00       	mov    $0x8,%esi
    3240:	0f ae e8             	lfence 
    3243:	e8 48 be 00 00       	call   f090 <memcpy_s>
    3248:	89 c2                	mov    %eax,%edx
    324a:	b8 01 00 00 00       	mov    $0x1,%eax
    324f:	85 d2                	test   %edx,%edx
    3251:	75 c0                	jne    3213 <sgx_ecall_pointer_in_out+0x33>
    3253:	48 8b 2c 24          	mov    (%rsp),%rbp
    3257:	48 85 ed             	test   %rbp,%rbp
    325a:	74 7e                	je     32da <sgx_ecall_pointer_in_out+0xfa>
    325c:	be 04 00 00 00       	mov    $0x4,%esi
    3261:	48 89 ef             	mov    %rbp,%rdi
    3264:	e8 c7 4c 00 00       	call   7f30 <sgx_is_outside_enclave>
    3269:	89 c2                	mov    %eax,%edx
    326b:	b8 02 00 00 00       	mov    $0x2,%eax
    3270:	85 d2                	test   %edx,%edx
    3272:	74 9f                	je     3213 <sgx_ecall_pointer_in_out+0x33>
    3274:	bf 04 00 00 00       	mov    $0x4,%edi
    3279:	0f ae e8             	lfence 
    327c:	e8 7f 84 00 00       	call   b700 <dlmalloc>
    3281:	48 85 c0             	test   %rax,%rax
    3284:	49 89 c4             	mov    %rax,%r12
    3287:	74 62                	je     32eb <sgx_ecall_pointer_in_out+0x10b>
    3289:	b9 04 00 00 00       	mov    $0x4,%ecx
    328e:	48 89 ea             	mov    %rbp,%rdx
    3291:	be 04 00 00 00       	mov    $0x4,%esi
    3296:	4c 89 e7             	mov    %r12,%rdi
    3299:	bb 01 00 00 00       	mov    $0x1,%ebx
    329e:	e8 ed bd 00 00       	call   f090 <memcpy_s>
    32a3:	85 c0                	test   %eax,%eax
    32a5:	75 24                	jne    32cb <sgx_ecall_pointer_in_out+0xeb>
    32a7:	4c 89 e7             	mov    %r12,%rdi
    32aa:	31 db                	xor    %ebx,%ebx
    32ac:	e8 cf 39 00 00       	call   6c80 <ecall_pointer_in_out>
    32b1:	b9 04 00 00 00       	mov    $0x4,%ecx
    32b6:	4c 89 e2             	mov    %r12,%rdx
    32b9:	be 04 00 00 00       	mov    $0x4,%esi
    32be:	48 89 ef             	mov    %rbp,%rdi
    32c1:	e8 4a be 00 00       	call   f110 <memcpy_verw_s>
    32c6:	85 c0                	test   %eax,%eax
    32c8:	0f 95 c3             	setne  %bl
    32cb:	4c 89 e7             	mov    %r12,%rdi
    32ce:	e8 9d 9e 00 00       	call   d170 <dlfree>
    32d3:	89 d8                	mov    %ebx,%eax
    32d5:	e9 39 ff ff ff       	jmp    3213 <sgx_ecall_pointer_in_out+0x33>
    32da:	31 ff                	xor    %edi,%edi
    32dc:	0f ae e8             	lfence 
    32df:	e8 9c 39 00 00       	call   6c80 <ecall_pointer_in_out>
    32e4:	31 c0                	xor    %eax,%eax
    32e6:	e9 28 ff ff ff       	jmp    3213 <sgx_ecall_pointer_in_out+0x33>
    32eb:	b8 03 00 00 00       	mov    $0x3,%eax
    32f0:	e9 1e ff ff ff       	jmp    3213 <sgx_ecall_pointer_in_out+0x33>
    32f5:	e8 56 b8 00 00       	call   eb50 <__stack_chk_fail>
    32fa:	66 0f 1f 44 00 00    	nopw   0x0(%rax,%rax,1)

0000000000003300 <sgx_ecall_pointer_out>:
    3300:	55                   	push   %rbp
    3301:	53                   	push   %rbx
    3302:	48 83 ec 28          	sub    $0x28,%rsp
    3306:	64 48 8b 04 25 28 00 	mov    %fs:0x28,%rax
    330d:	00 00 
    330f:	48 89 44 24 18       	mov    %rax,0x18(%rsp)
    3314:	31 c0                	xor    %eax,%eax
    3316:	48 85 ff             	test   %rdi,%rdi
    3319:	74 11                	je     332c <sgx_ecall_pointer_out+0x2c>
    331b:	be 08 00 00 00       	mov    $0x8,%esi
    3320:	48 89 fb             	mov    %rdi,%rbx
    3323:	e8 08 4c 00 00       	call   7f30 <sgx_is_outside_enclave>
    3328:	85 c0                	test   %eax,%eax
    332a:	75 24                	jne    3350 <sgx_ecall_pointer_out+0x50>
    332c:	b8 02 00 00 00       	mov    $0x2,%eax
    3331:	48 8b 4c 24 18       	mov    0x18(%rsp),%rcx
    3336:	64 48 33 0c 25 28 00 	xor    %fs:0x28,%rcx
    333d:	00 00 
    333f:	0f 85 c1 00 00 00    	jne    3406 <sgx_ecall_pointer_out+0x106>
    3345:	48 83 c4 28          	add    $0x28,%rsp
    3349:	5b                   	pop    %rbx
    334a:	5d                   	pop    %rbp
    334b:	c3                   	ret    
    334c:	0f 1f 40 00          	nopl   0x0(%rax)
    3350:	48 8d 7c 24 10       	lea    0x10(%rsp),%rdi
    3355:	48 89 da             	mov    %rbx,%rdx
    3358:	b9 08 00 00 00       	mov    $0x8,%ecx
    335d:	be 08 00 00 00       	mov    $0x8,%esi
    3362:	0f ae e8             	lfence 
    3365:	e8 26 bd 00 00       	call   f090 <memcpy_s>
    336a:	89 c2                	mov    %eax,%edx
    336c:	b8 01 00 00 00       	mov    $0x1,%eax
    3371:	85 d2                	test   %edx,%edx
    3373:	75 bc                	jne    3331 <sgx_ecall_pointer_out+0x31>
    3375:	48 8b 5c 24 10       	mov    0x10(%rsp),%rbx
    337a:	48 85 db             	test   %rbx,%rbx
    337d:	74 6c                	je     33eb <sgx_ecall_pointer_out+0xeb>
    337f:	be 04 00 00 00       	mov    $0x4,%esi
    3384:	48 89 df             	mov    %rbx,%rdi
    3387:	e8 a4 4b 00 00       	call   7f30 <sgx_is_outside_enclave>
    338c:	89 c2                	mov    %eax,%edx
    338e:	b8 02 00 00 00       	mov    $0x2,%eax
    3393:	85 d2                	test   %edx,%edx
    3395:	74 9a                	je     3331 <sgx_ecall_pointer_out+0x31>
    3397:	be 01 00 00 00       	mov    $0x1,%esi
    339c:	bf 04 00 00 00       	mov    $0x4,%edi
    33a1:	0f ae e8             	lfence 
    33a4:	e8 d7 a7 00 00       	call   db80 <calloc>
    33a9:	48 85 c0             	test   %rax,%rax
    33ac:	48 89 c5             	mov    %rax,%rbp
    33af:	74 4b                	je     33fc <sgx_ecall_pointer_out+0xfc>
    33b1:	48 89 ef             	mov    %rbp,%rdi
    33b4:	e8 77 38 00 00       	call   6c30 <ecall_pointer_out>
    33b9:	b9 04 00 00 00       	mov    $0x4,%ecx
    33be:	48 89 ea             	mov    %rbp,%rdx
    33c1:	be 04 00 00 00       	mov    $0x4,%esi
    33c6:	48 89 df             	mov    %rbx,%rdi
    33c9:	e8 42 bd 00 00       	call   f110 <memcpy_verw_s>
    33ce:	85 c0                	test   %eax,%eax
    33d0:	48 89 ef             	mov    %rbp,%rdi
    33d3:	0f 95 c0             	setne  %al
    33d6:	0f b6 c0             	movzbl %al,%eax
    33d9:	89 44 24 0c          	mov    %eax,0xc(%rsp)
    33dd:	e8 8e 9d 00 00       	call   d170 <dlfree>
    33e2:	8b 44 24 0c          	mov    0xc(%rsp),%eax
    33e6:	e9 46 ff ff ff       	jmp    3331 <sgx_ecall_pointer_out+0x31>
    33eb:	31 ff                	xor    %edi,%edi
    33ed:	0f ae e8             	lfence 
    33f0:	e8 3b 38 00 00       	call   6c30 <ecall_pointer_out>
    33f5:	31 c0                	xor    %eax,%eax
    33f7:	e9 35 ff ff ff       	jmp    3331 <sgx_ecall_pointer_out+0x31>
    33fc:	b8 03 00 00 00       	mov    $0x3,%eax
    3401:	e9 2b ff ff ff       	jmp    3331 <sgx_ecall_pointer_out+0x31>
    3406:	e8 45 b7 00 00       	call   eb50 <__stack_chk_fail>
    340b:	0f 1f 44 00 00       	nopl   0x0(%rax,%rax,1)

0000000000003410 <sgx_ecall_pointer_in>:
    3410:	55                   	push   %rbp
    3411:	53                   	push   %rbx
    3412:	48 83 ec 18          	sub    $0x18,%rsp
    3416:	64 48 8b 04 25 28 00 	mov    %fs:0x28,%rax
    341d:	00 00 
    341f:	48 89 44 24 08       	mov    %rax,0x8(%rsp)
    3424:	31 c0                	xor    %eax,%eax
    3426:	48 85 ff             	test   %rdi,%rdi
    3429:	74 11                	je     343c <sgx_ecall_pointer_in+0x2c>
    342b:	be 08 00 00 00       	mov    $0x8,%esi
    3430:	48 89 fb             	mov    %rdi,%rbx
    3433:	e8 f8 4a 00 00       	call   7f30 <sgx_is_outside_enclave>
    3438:	85 c0                	test   %eax,%eax
    343a:	75 24                	jne    3460 <sgx_ecall_pointer_in+0x50>
    343c:	b8 02 00 00 00       	mov    $0x2,%eax
    3441:	48 8b 4c 24 08       	mov    0x8(%rsp),%rcx
    3446:	64 48 33 0c 25 28 00 	xor    %fs:0x28,%rcx
    344d:	00 00 
    344f:	0f 85 b3 00 00 00    	jne    3508 <sgx_ecall_pointer_in+0xf8>
    3455:	48 83 c4 18          	add    $0x18,%rsp
    3459:	5b                   	pop    %rbx
    345a:	5d                   	pop    %rbp
    345b:	c3                   	ret    
    345c:	0f 1f 40 00          	nopl   0x0(%rax)
    3460:	48 89 da             	mov    %rbx,%rdx
    3463:	48 89 e7             	mov    %rsp,%rdi
    3466:	b9 08 00 00 00       	mov    $0x8,%ecx
    346b:	be 08 00 00 00       	mov    $0x8,%esi
    3470:	0f ae e8             	lfence 
    3473:	e8 18 bc 00 00       	call   f090 <memcpy_s>
    3478:	89 c2                	mov    %eax,%edx
    347a:	b8 01 00 00 00       	mov    $0x1,%eax
    347f:	85 d2                	test   %edx,%edx
    3481:	75 be                	jne    3441 <sgx_ecall_pointer_in+0x31>
    3483:	48 8b 1c 24          	mov    (%rsp),%rbx
    3487:	48 85 db             	test   %rbx,%rbx
    348a:	74 5f                	je     34eb <sgx_ecall_pointer_in+0xdb>
    348c:	be 04 00 00 00       	mov    $0x4,%esi
    3491:	48 89 df             	mov    %rbx,%rdi
    3494:	e8 97 4a 00 00       	call   7f30 <sgx_is_outside_enclave>
    3499:	89 c2                	mov    %eax,%edx
    349b:	b8 02 00 00 00       	mov    $0x2,%eax
    34a0:	85 d2                	test   %edx,%edx
    34a2:	74 9d                	je     3441 <sgx_ecall_pointer_in+0x31>
    34a4:	bf 04 00 00 00       	mov    $0x4,%edi
    34a9:	0f ae e8             	lfence 
    34ac:	e8 4f 82 00 00       	call   b700 <dlmalloc>
    34b1:	48 89 c5             	mov    %rax,%rbp
    34b4:	b8 03 00 00 00       	mov    $0x3,%eax
    34b9:	48 85 ed             	test   %rbp,%rbp
    34bc:	74 83                	je     3441 <sgx_ecall_pointer_in+0x31>
    34be:	b9 04 00 00 00       	mov    $0x4,%ecx
    34c3:	48 89 da             	mov    %rbx,%rdx
    34c6:	be 04 00 00 00       	mov    $0x4,%esi
    34cb:	48 89 ef             	mov    %rbp,%rdi
    34ce:	e8 bd bb 00 00       	call   f090 <memcpy_s>
    34d3:	85 c0                	test   %eax,%eax
    34d5:	74 25                	je     34fc <sgx_ecall_pointer_in+0xec>
    34d7:	bb 01 00 00 00       	mov    $0x1,%ebx
    34dc:	48 89 ef             	mov    %rbp,%rdi
    34df:	e8 8c 9c 00 00       	call   d170 <dlfree>
    34e4:	89 d8                	mov    %ebx,%eax
    34e6:	e9 56 ff ff ff       	jmp    3441 <sgx_ecall_pointer_in+0x31>
    34eb:	31 ff                	xor    %edi,%edi
    34ed:	0f ae e8             	lfence 
    34f0:	e8 ab 37 00 00       	call   6ca0 <ecall_pointer_in>
    34f5:	31 c0                	xor    %eax,%eax
    34f7:	e9 45 ff ff ff       	jmp    3441 <sgx_ecall_pointer_in+0x31>
    34fc:	48 89 ef             	mov    %rbp,%rdi
    34ff:	31 db                	xor    %ebx,%ebx
    3501:	e8 9a 37 00 00       	call   6ca0 <ecall_pointer_in>
    3506:	eb d4                	jmp    34dc <sgx_ecall_pointer_in+0xcc>
    3508:	e8 43 b6 00 00       	call   eb50 <__stack_chk_fail>
    350d:	0f 1f 00             	nopl   (%rax)

0000000000003510 <sgx_ecall_pointer_user_check>:
    3510:	53                   	push   %rbx
    3511:	48 83 ec 30          	sub    $0x30,%rsp
    3515:	64 48 8b 04 25 28 00 	mov    %fs:0x28,%rax
    351c:	00 00 
    351e:	48 89 44 24 28       	mov    %rax,0x28(%rsp)
    3523:	31 c0                	xor    %eax,%eax
    3525:	48 85 ff             	test   %rdi,%rdi
    3528:	74 11                	je     353b <sgx_ecall_pointer_user_check+0x2b>
    352a:	be 18 00 00 00       	mov    $0x18,%esi
    352f:	48 89 fb             	mov    %rdi,%rbx
    3532:	e8 f9 49 00 00       	call   7f30 <sgx_is_outside_enclave>
    3537:	85 c0                	test   %eax,%eax
    3539:	75 25                	jne    3560 <sgx_ecall_pointer_user_check+0x50>
    353b:	b8 02 00 00 00       	mov    $0x2,%eax
    3540:	48 8b 4c 24 28       	mov    0x28(%rsp),%rcx
    3545:	64 48 33 0c 25 28 00 	xor    %fs:0x28,%rcx
    354c:	00 00 
    354e:	75 6a                	jne    35ba <sgx_ecall_pointer_user_check+0xaa>
    3550:	48 83 c4 30          	add    $0x30,%rsp
    3554:	5b                   	pop    %rbx
    3555:	c3                   	ret    
    3556:	66 2e 0f 1f 84 00 00 	cs nopw 0x0(%rax,%rax,1)
    355d:	00 00 00 
    3560:	48 8d 7c 24 10       	lea    0x10(%rsp),%rdi
    3565:	48 89 da             	mov    %rbx,%rdx
    3568:	b9 18 00 00 00       	mov    $0x18,%ecx
    356d:	be 18 00 00 00       	mov    $0x18,%esi
    3572:	0f ae e8             	lfence 
    3575:	e8 16 bb 00 00       	call   f090 <memcpy_s>
    357a:	89 c2                	mov    %eax,%edx
    357c:	b8 01 00 00 00       	mov    $0x1,%eax
    3581:	85 d2                	test   %edx,%edx
    3583:	75 bb                	jne    3540 <sgx_ecall_pointer_user_check+0x30>
    3585:	48 8b 74 24 20       	mov    0x20(%rsp),%rsi
    358a:	48 8b 7c 24 18       	mov    0x18(%rsp),%rdi
    358f:	e8 cc 34 00 00       	call   6a60 <ecall_pointer_user_check>
    3594:	48 8d 54 24 08       	lea    0x8(%rsp),%rdx
    3599:	b9 08 00 00 00       	mov    $0x8,%ecx
    359e:	be 08 00 00 00       	mov    $0x8,%esi
    35a3:	48 89 df             	mov    %rbx,%rdi
    35a6:	48 89 44 24 08       	mov    %rax,0x8(%rsp)
    35ab:	e8 60 bb 00 00       	call   f110 <memcpy_verw_s>
    35b0:	85 c0                	test   %eax,%eax
    35b2:	0f 95 c0             	setne  %al
    35b5:	0f b6 c0             	movzbl %al,%eax
    35b8:	eb 86                	jmp    3540 <sgx_ecall_pointer_user_check+0x30>
    35ba:	e8 91 b5 00 00       	call   eb50 <__stack_chk_fail>
    35bf:	90                   	nop

00000000000035c0 <sgx_ecall_type_enum_union>:
    35c0:	53                   	push   %rbx
    35c1:	48 83 ec 20          	sub    $0x20,%rsp
    35c5:	64 48 8b 04 25 28 00 	mov    %fs:0x28,%rax
    35cc:	00 00 
    35ce:	48 89 44 24 18       	mov    %rax,0x18(%rsp)
    35d3:	31 c0                	xor    %eax,%eax
    35d5:	48 85 ff             	test   %rdi,%rdi
    35d8:	74 11                	je     35eb <sgx_ecall_type_enum_union+0x2b>
    35da:	be 10 00 00 00       	mov    $0x10,%esi
    35df:	48 89 fb             	mov    %rdi,%rbx
    35e2:	e8 49 49 00 00       	call   7f30 <sgx_is_outside_enclave>
    35e7:	85 c0                	test   %eax,%eax
    35e9:	75 25                	jne    3610 <sgx_ecall_type_enum_union+0x50>
    35eb:	b8 02 00 00 00       	mov    $0x2,%eax
    35f0:	48 8b 4c 24 18       	mov    0x18(%rsp),%rcx
    35f5:	64 48 33 0c 25 28 00 	xor    %fs:0x28,%rcx
    35fc:	00 00 
    35fe:	75 44                	jne    3644 <sgx_ecall_type_enum_union+0x84>
    3600:	48 83 c4 20          	add    $0x20,%rsp
    3604:	5b                   	pop    %rbx
    3605:	c3                   	ret    
    3606:	66 2e 0f 1f 84 00 00 	cs nopw 0x0(%rax,%rax,1)
    360d:	00 00 00 
    3610:	48 89 da             	mov    %rbx,%rdx
    3613:	48 89 e7             	mov    %rsp,%rdi
    3616:	b9 10 00 00 00       	mov    $0x10,%ecx
    361b:	be 10 00 00 00       	mov    $0x10,%esi
    3620:	0f ae e8             	lfence 
    3623:	e8 68 ba 00 00       	call   f090 <memcpy_s>
    3628:	89 c2                	mov    %eax,%edx
    362a:	b8 01 00 00 00       	mov    $0x1,%eax
    362f:	85 d2                	test   %edx,%edx
    3631:	75 bd                	jne    35f0 <sgx_ecall_type_enum_union+0x30>
    3633:	48 8b 74 24 08       	mov    0x8(%rsp),%rsi
    3638:	8b 3c 24             	mov    (%rsp),%edi
    363b:	e8 c0 33 00 00       	call   6a00 <ecall_type_enum_union>
    3640:	31 c0                	xor    %eax,%eax
    3642:	eb ac                	jmp    35f0 <sgx_ecall_type_enum_union+0x30>
    3644:	e8 07 b5 00 00       	call   eb50 <__stack_chk_fail>
    3649:	0f 1f 80 00 00 00 00 	nopl   0x0(%rax)

0000000000003650 <sgx_ecall_type_struct>:
    3650:	53                   	push   %rbx
    3651:	48 83 ec 20          	sub    $0x20,%rsp
    3655:	64 48 8b 04 25 28 00 	mov    %fs:0x28,%rax
    365c:	00 00 
    365e:	48 89 44 24 18       	mov    %rax,0x18(%rsp)
    3663:	31 c0                	xor    %eax,%eax
    3665:	48 85 ff             	test   %rdi,%rdi
    3668:	74 11                	je     367b <sgx_ecall_type_struct+0x2b>
    366a:	be 10 00 00 00       	mov    $0x10,%esi
    366f:	48 89 fb             	mov    %rdi,%rbx
    3672:	e8 b9 48 00 00       	call   7f30 <sgx_is_outside_enclave>
    3677:	85 c0                	test   %eax,%eax
    3679:	75 25                	jne    36a0 <sgx_ecall_type_struct+0x50>
    367b:	b8 02 00 00 00       	mov    $0x2,%eax
    3680:	48 8b 4c 24 18       	mov    0x18(%rsp),%rcx
    3685:	64 48 33 0c 25 28 00 	xor    %fs:0x28,%rcx
    368c:	00 00 
    368e:	75 44                	jne    36d4 <sgx_ecall_type_struct+0x84>
    3690:	48 83 c4 20          	add    $0x20,%rsp
    3694:	5b                   	pop    %rbx
    3695:	c3                   	ret    
    3696:	66 2e 0f 1f 84 00 00 	cs nopw 0x0(%rax,%rax,1)
    369d:	00 00 00 
    36a0:	48 89 da             	mov    %rbx,%rdx
    36a3:	48 89 e7             	mov    %rsp,%rdi
    36a6:	b9 10 00 00 00       	mov    $0x10,%ecx
    36ab:	be 10 00 00 00       	mov    $0x10,%esi
    36b0:	0f ae e8             	lfence 
    36b3:	e8 d8 b9 00 00       	call   f090 <memcpy_s>
    36b8:	89 c2                	mov    %eax,%edx
    36ba:	b8 01 00 00 00       	mov    $0x1,%eax
    36bf:	85 d2                	test   %edx,%edx
    36c1:	75 bd                	jne    3680 <sgx_ecall_type_struct+0x30>
    36c3:	8b 3c 24             	mov    (%rsp),%edi
    36c6:	48 8b 74 24 08       	mov    0x8(%rsp),%rsi
    36cb:	e8 d0 32 00 00       	call   69a0 <ecall_type_struct>
    36d0:	31 c0                	xor    %eax,%eax
    36d2:	eb ac                	jmp    3680 <sgx_ecall_type_struct+0x30>
    36d4:	e8 77 b4 00 00       	call   eb50 <__stack_chk_fail>
    36d9:	0f 1f 80 00 00 00 00 	nopl   0x0(%rax)

00000000000036e0 <sgx_ecall_type_wchar_t>:
    36e0:	53                   	push   %rbx
    36e1:	48 83 ec 10          	sub    $0x10,%rsp
    36e5:	64 48 8b 04 25 28 00 	mov    %fs:0x28,%rax
    36ec:	00 00 
    36ee:	48 89 44 24 08       	mov    %rax,0x8(%rsp)
    36f3:	31 c0                	xor    %eax,%eax
    36f5:	48 85 ff             	test   %rdi,%rdi
    36f8:	74 11                	je     370b <sgx_ecall_type_wchar_t+0x2b>
    36fa:	be 04 00 00 00       	mov    $0x4,%esi
    36ff:	48 89 fb             	mov    %rdi,%rbx
    3702:	e8 29 48 00 00       	call   7f30 <sgx_is_outside_enclave>
    3707:	85 c0                	test   %eax,%eax
    3709:	75 25                	jne    3730 <sgx_ecall_type_wchar_t+0x50>
    370b:	b8 02 00 00 00       	mov    $0x2,%eax
    3710:	48 8b 4c 24 08       	mov    0x8(%rsp),%rcx
    3715:	64 48 33 0c 25 28 00 	xor    %fs:0x28,%rcx
    371c:	00 00 
    371e:	75 3f                	jne    375f <sgx_ecall_type_wchar_t+0x7f>
    3720:	48 83 c4 10          	add    $0x10,%rsp
    3724:	5b                   	pop    %rbx
    3725:	c3                   	ret    
    3726:	66 2e 0f 1f 84 00 00 	cs nopw 0x0(%rax,%rax,1)
    372d:	00 00 00 
    3730:	48 89 da             	mov    %rbx,%rdx
    3733:	48 89 e7             	mov    %rsp,%rdi
    3736:	b9 04 00 00 00       	mov    $0x4,%ecx
    373b:	be 04 00 00 00       	mov    $0x4,%esi
    3740:	0f ae e8             	lfence 
    3743:	e8 48 b9 00 00       	call   f090 <memcpy_s>
    3748:	89 c2                	mov    %eax,%edx
    374a:	b8 01 00 00 00       	mov    $0x1,%eax
    374f:	85 d2                	test   %edx,%edx
    3751:	75 bd                	jne    3710 <sgx_ecall_type_wchar_t+0x30>
    3753:	8b 3c 24             	mov    (%rsp),%edi
    3756:	e8 05 32 00 00       	call   6960 <ecall_type_wchar_t>
    375b:	31 c0                	xor    %eax,%eax
    375d:	eb b1                	jmp    3710 <sgx_ecall_type_wchar_t+0x30>
    375f:	e8 ec b3 00 00       	call   eb50 <__stack_chk_fail>
    3764:	66 2e 0f 1f 84 00 00 	cs nopw 0x0(%rax,%rax,1)
    376b:	00 00 00 
    376e:	66 90                	xchg   %ax,%ax

0000000000003770 <sgx_ecall_type_size_t>:
    3770:	53                   	push   %rbx
    3771:	48 83 ec 10          	sub    $0x10,%rsp
    3775:	64 48 8b 04 25 28 00 	mov    %fs:0x28,%rax
    377c:	00 00 
    377e:	48 89 44 24 08       	mov    %rax,0x8(%rsp)
    3783:	31 c0                	xor    %eax,%eax
    3785:	48 85 ff             	test   %rdi,%rdi
    3788:	74 11                	je     379b <sgx_ecall_type_size_t+0x2b>
    378a:	be 08 00 00 00       	mov    $0x8,%esi
    378f:	48 89 fb             	mov    %rdi,%rbx
    3792:	e8 99 47 00 00       	call   7f30 <sgx_is_outside_enclave>
    3797:	85 c0                	test   %eax,%eax
    3799:	75 25                	jne    37c0 <sgx_ecall_type_size_t+0x50>
    379b:	b8 02 00 00 00       	mov    $0x2,%eax
    37a0:	48 8b 4c 24 08       	mov    0x8(%rsp),%rcx
    37a5:	64 48 33 0c 25 28 00 	xor    %fs:0x28,%rcx
    37ac:	00 00 
    37ae:	75 40                	jne    37f0 <sgx_ecall_type_size_t+0x80>
    37b0:	48 83 c4 10          	add    $0x10,%rsp
    37b4:	5b                   	pop    %rbx
    37b5:	c3                   	ret    
    37b6:	66 2e 0f 1f 84 00 00 	cs nopw 0x0(%rax,%rax,1)
    37bd:	00 00 00 
    37c0:	48 89 da             	mov    %rbx,%rdx
    37c3:	48 89 e7             	mov    %rsp,%rdi
    37c6:	b9 08 00 00 00       	mov    $0x8,%ecx
    37cb:	be 08 00 00 00       	mov    $0x8,%esi
    37d0:	0f ae e8             	lfence 
    37d3:	e8 b8 b8 00 00       	call   f090 <memcpy_s>
    37d8:	89 c2                	mov    %eax,%edx
    37da:	b8 01 00 00 00       	mov    $0x1,%eax
    37df:	85 d2                	test   %edx,%edx
    37e1:	75 bd                	jne    37a0 <sgx_ecall_type_size_t+0x30>
    37e3:	48 8b 3c 24          	mov    (%rsp),%rdi
    37e7:	e8 34 31 00 00       	call   6920 <ecall_type_size_t>
    37ec:	31 c0                	xor    %eax,%eax
    37ee:	eb b0                	jmp    37a0 <sgx_ecall_type_size_t+0x30>
    37f0:	e8 5b b3 00 00       	call   eb50 <__stack_chk_fail>
    37f5:	66 2e 0f 1f 84 00 00 	cs nopw 0x0(%rax,%rax,1)
    37fc:	00 00 00 
    37ff:	90                   	nop

0000000000003800 <sgx_ecall_type_double>:
    3800:	53                   	push   %rbx
    3801:	48 83 ec 10          	sub    $0x10,%rsp
    3805:	64 48 8b 04 25 28 00 	mov    %fs:0x28,%rax
    380c:	00 00 
    380e:	48 89 44 24 08       	mov    %rax,0x8(%rsp)
    3813:	31 c0                	xor    %eax,%eax
    3815:	48 85 ff             	test   %rdi,%rdi
    3818:	74 11                	je     382b <sgx_ecall_type_double+0x2b>
    381a:	be 08 00 00 00       	mov    $0x8,%esi
    381f:	48 89 fb             	mov    %rdi,%rbx
    3822:	e8 09 47 00 00       	call   7f30 <sgx_is_outside_enclave>
    3827:	85 c0                	test   %eax,%eax
    3829:	75 25                	jne    3850 <sgx_ecall_type_double+0x50>
    382b:	b8 02 00 00 00       	mov    $0x2,%eax
    3830:	48 8b 4c 24 08       	mov    0x8(%rsp),%rcx
    3835:	64 48 33 0c 25 28 00 	xor    %fs:0x28,%rcx
    383c:	00 00 
    383e:	75 41                	jne    3881 <sgx_ecall_type_double+0x81>
    3840:	48 83 c4 10          	add    $0x10,%rsp
    3844:	5b                   	pop    %rbx
    3845:	c3                   	ret    
    3846:	66 2e 0f 1f 84 00 00 	cs nopw 0x0(%rax,%rax,1)
    384d:	00 00 00 
    3850:	48 89 da             	mov    %rbx,%rdx
    3853:	48 89 e7             	mov    %rsp,%rdi
    3856:	b9 08 00 00 00       	mov    $0x8,%ecx
    385b:	be 08 00 00 00       	mov    $0x8,%esi
    3860:	0f ae e8             	lfence 
    3863:	e8 28 b8 00 00       	call   f090 <memcpy_s>
    3868:	89 c2                	mov    %eax,%edx
    386a:	b8 01 00 00 00       	mov    $0x1,%eax
    386f:	85 d2                	test   %edx,%edx
    3871:	75 bd                	jne    3830 <sgx_ecall_type_double+0x30>
    3873:	f2 0f 10 04 24       	movsd  (%rsp),%xmm0
    3878:	e8 43 30 00 00       	call   68c0 <ecall_type_double>
    387d:	31 c0                	xor    %eax,%eax
    387f:	eb af                	jmp    3830 <sgx_ecall_type_double+0x30>
    3881:	e8 ca b2 00 00       	call   eb50 <__stack_chk_fail>
    3886:	66 2e 0f 1f 84 00 00 	cs nopw 0x0(%rax,%rax,1)
    388d:	00 00 00 

0000000000003890 <sgx_ecall_type_float>:
    3890:	53                   	push   %rbx
    3891:	48 83 ec 10          	sub    $0x10,%rsp
    3895:	64 48 8b 04 25 28 00 	mov    %fs:0x28,%rax
    389c:	00 00 
    389e:	48 89 44 24 08       	mov    %rax,0x8(%rsp)
    38a3:	31 c0                	xor    %eax,%eax
    38a5:	48 85 ff             	test   %rdi,%rdi
    38a8:	74 11                	je     38bb <sgx_ecall_type_float+0x2b>
    38aa:	be 04 00 00 00       	mov    $0x4,%esi
    38af:	48 89 fb             	mov    %rdi,%rbx
    38b2:	e8 79 46 00 00       	call   7f30 <sgx_is_outside_enclave>
    38b7:	85 c0                	test   %eax,%eax
    38b9:	75 25                	jne    38e0 <sgx_ecall_type_float+0x50>
    38bb:	b8 02 00 00 00       	mov    $0x2,%eax
    38c0:	48 8b 4c 24 08       	mov    0x8(%rsp),%rcx
    38c5:	64 48 33 0c 25 28 00 	xor    %fs:0x28,%rcx
    38cc:	00 00 
    38ce:	75 41                	jne    3911 <sgx_ecall_type_float+0x81>
    38d0:	48 83 c4 10          	add    $0x10,%rsp
    38d4:	5b                   	pop    %rbx
    38d5:	c3                   	ret    
    38d6:	66 2e 0f 1f 84 00 00 	cs nopw 0x0(%rax,%rax,1)
    38dd:	00 00 00 
    38e0:	48 89 da             	mov    %rbx,%rdx
    38e3:	48 89 e7             	mov    %rsp,%rdi
    38e6:	b9 04 00 00 00       	mov    $0x4,%ecx
    38eb:	be 04 00 00 00       	mov    $0x4,%esi
    38f0:	0f ae e8             	lfence 
    38f3:	e8 98 b7 00 00       	call   f090 <memcpy_s>
    38f8:	89 c2                	mov    %eax,%edx
    38fa:	b8 01 00 00 00       	mov    $0x1,%eax
    38ff:	85 d2                	test   %edx,%edx
    3901:	75 bd                	jne    38c0 <sgx_ecall_type_float+0x30>
    3903:	f3 0f 10 04 24       	movss  (%rsp),%xmm0
    3908:	e8 53 2f 00 00       	call   6860 <ecall_type_float>
    390d:	31 c0                	xor    %eax,%eax
    390f:	eb af                	jmp    38c0 <sgx_ecall_type_float+0x30>
    3911:	e8 3a b2 00 00       	call   eb50 <__stack_chk_fail>
    3916:	66 2e 0f 1f 84 00 00 	cs nopw 0x0(%rax,%rax,1)
    391d:	00 00 00 

0000000000003920 <sgx_ecall_type_int>:
    3920:	53                   	push   %rbx
    3921:	48 83 ec 10          	sub    $0x10,%rsp
    3925:	64 48 8b 04 25 28 00 	mov    %fs:0x28,%rax
    392c:	00 00 
    392e:	48 89 44 24 08       	mov    %rax,0x8(%rsp)
    3933:	31 c0                	xor    %eax,%eax
    3935:	48 85 ff             	test   %rdi,%rdi
    3938:	74 11                	je     394b <sgx_ecall_type_int+0x2b>
    393a:	be 04 00 00 00       	mov    $0x4,%esi
    393f:	48 89 fb             	mov    %rdi,%rbx
    3942:	e8 e9 45 00 00       	call   7f30 <sgx_is_outside_enclave>
    3947:	85 c0                	test   %eax,%eax
    3949:	75 25                	jne    3970 <sgx_ecall_type_int+0x50>
    394b:	b8 02 00 00 00       	mov    $0x2,%eax
    3950:	48 8b 4c 24 08       	mov    0x8(%rsp),%rcx
    3955:	64 48 33 0c 25 28 00 	xor    %fs:0x28,%rcx
    395c:	00 00 
    395e:	75 3f                	jne    399f <sgx_ecall_type_int+0x7f>
    3960:	48 83 c4 10          	add    $0x10,%rsp
    3964:	5b                   	pop    %rbx
    3965:	c3                   	ret    
    3966:	66 2e 0f 1f 84 00 00 	cs nopw 0x0(%rax,%rax,1)
    396d:	00 00 00 
    3970:	48 89 da             	mov    %rbx,%rdx
    3973:	48 89 e7             	mov    %rsp,%rdi
    3976:	b9 04 00 00 00       	mov    $0x4,%ecx
    397b:	be 04 00 00 00       	mov    $0x4,%esi
    3980:	0f ae e8             	lfence 
    3983:	e8 08 b7 00 00       	call   f090 <memcpy_s>
    3988:	89 c2                	mov    %eax,%edx
    398a:	b8 01 00 00 00       	mov    $0x1,%eax
    398f:	85 d2                	test   %edx,%edx
    3991:	75 bd                	jne    3950 <sgx_ecall_type_int+0x30>
    3993:	8b 3c 24             	mov    (%rsp),%edi
    3996:	e8 85 2e 00 00       	call   6820 <ecall_type_int>
    399b:	31 c0                	xor    %eax,%eax
    399d:	eb b1                	jmp    3950 <sgx_ecall_type_int+0x30>
    399f:	e8 ac b1 00 00       	call   eb50 <__stack_chk_fail>
    39a4:	66 2e 0f 1f 84 00 00 	cs nopw 0x0(%rax,%rax,1)
    39ab:	00 00 00 
    39ae:	66 90                	xchg   %ax,%ax

00000000000039b0 <sgx_ecall_type_char>:
    39b0:	53                   	push   %rbx
    39b1:	48 83 ec 10          	sub    $0x10,%rsp
    39b5:	64 48 8b 04 25 28 00 	mov    %fs:0x28,%rax
    39bc:	00 00 
    39be:	48 89 44 24 08       	mov    %rax,0x8(%rsp)
    39c3:	31 c0                	xor    %eax,%eax
    39c5:	48 85 ff             	test   %rdi,%rdi
    39c8:	74 11                	je     39db <sgx_ecall_type_char+0x2b>
    39ca:	be 01 00 00 00       	mov    $0x1,%esi
    39cf:	48 89 fb             	mov    %rdi,%rbx
    39d2:	e8 59 45 00 00       	call   7f30 <sgx_is_outside_enclave>
    39d7:	85 c0                	test   %eax,%eax
    39d9:	75 25                	jne    3a00 <sgx_ecall_type_char+0x50>
    39db:	b8 02 00 00 00       	mov    $0x2,%eax
    39e0:	48 8b 4c 24 08       	mov    0x8(%rsp),%rcx
    39e5:	64 48 33 0c 25 28 00 	xor    %fs:0x28,%rcx
    39ec:	00 00 
    39ee:	75 43                	jne    3a33 <sgx_ecall_type_char+0x83>
    39f0:	48 83 c4 10          	add    $0x10,%rsp
    39f4:	5b                   	pop    %rbx
    39f5:	c3                   	ret    
    39f6:	66 2e 0f 1f 84 00 00 	cs nopw 0x0(%rax,%rax,1)
    39fd:	00 00 00 
    3a00:	48 8d 7c 24 07       	lea    0x7(%rsp),%rdi
    3a05:	48 89 da             	mov    %rbx,%rdx
    3a08:	b9 01 00 00 00       	mov    $0x1,%ecx
    3a0d:	be 01 00 00 00       	mov    $0x1,%esi
    3a12:	0f ae e8             	lfence 
    3a15:	e8 76 b6 00 00       	call   f090 <memcpy_s>
    3a1a:	89 c2                	mov    %eax,%edx
    3a1c:	b8 01 00 00 00       	mov    $0x1,%eax
    3a21:	85 d2                	test   %edx,%edx
    3a23:	75 bb                	jne    39e0 <sgx_ecall_type_char+0x30>
    3a25:	0f be 7c 24 07       	movsbl 0x7(%rsp),%edi
    3a2a:	e8 c1 2d 00 00       	call   67f0 <ecall_type_char>
    3a2f:	31 c0                	xor    %eax,%eax
    3a31:	eb ad                	jmp    39e0 <sgx_ecall_type_char+0x30>
    3a33:	e8 18 b1 00 00       	call   eb50 <__stack_chk_fail>
    3a38:	0f 1f 84 00 00 00 00 	nopl   0x0(%rax,%rax,1)
    3a3f:	00 

0000000000003a40 <sgx_process_input>:
    3a40:	41 55                	push   %r13
    3a42:	41 54                	push   %r12
    3a44:	55                   	push   %rbp
    3a45:	53                   	push   %rbx
    3a46:	48 83 ec 28          	sub    $0x28,%rsp
    3a4a:	64 48 8b 04 25 28 00 	mov    %fs:0x28,%rax
    3a51:	00 00 
    3a53:	48 89 44 24 18       	mov    %rax,0x18(%rsp)
    3a58:	31 c0                	xor    %eax,%eax
    3a5a:	48 85 ff             	test   %rdi,%rdi
    3a5d:	74 11                	je     3a70 <sgx_process_input+0x30>
    3a5f:	be 10 00 00 00       	mov    $0x10,%esi
    3a64:	48 89 fb             	mov    %rdi,%rbx
    3a67:	e8 c4 44 00 00       	call   7f30 <sgx_is_outside_enclave>
    3a6c:	85 c0                	test   %eax,%eax
    3a6e:	75 28                	jne    3a98 <sgx_process_input+0x58>
    3a70:	b8 02 00 00 00       	mov    $0x2,%eax
    3a75:	48 8b 4c 24 18       	mov    0x18(%rsp),%rcx
    3a7a:	64 48 33 0c 25 28 00 	xor    %fs:0x28,%rcx
    3a81:	00 00 
    3a83:	0f 85 db 00 00 00    	jne    3b64 <sgx_process_input+0x124>
    3a89:	48 83 c4 28          	add    $0x28,%rsp
    3a8d:	5b                   	pop    %rbx
    3a8e:	5d                   	pop    %rbp
    3a8f:	41 5c                	pop    %r12
    3a91:	41 5d                	pop    %r13
    3a93:	c3                   	ret    
    3a94:	0f 1f 40 00          	nopl   0x0(%rax)
    3a98:	48 89 da             	mov    %rbx,%rdx
    3a9b:	48 89 e7             	mov    %rsp,%rdi
    3a9e:	b9 10 00 00 00       	mov    $0x10,%ecx
    3aa3:	be 10 00 00 00       	mov    $0x10,%esi
    3aa8:	0f ae e8             	lfence 
    3aab:	e8 e0 b5 00 00       	call   f090 <memcpy_s>
    3ab0:	89 c2                	mov    %eax,%edx
    3ab2:	b8 01 00 00 00       	mov    $0x1,%eax
    3ab7:	85 d2                	test   %edx,%edx
    3ab9:	75 ba                	jne    3a75 <sgx_process_input+0x35>
    3abb:	4c 8b 24 24          	mov    (%rsp),%r12
    3abf:	48 8b 6c 24 08       	mov    0x8(%rsp),%rbp
    3ac4:	4d 85 e4             	test   %r12,%r12
    3ac7:	0f 84 83 00 00 00    	je     3b50 <sgx_process_input+0x110>
    3acd:	48 89 ee             	mov    %rbp,%rsi
    3ad0:	4c 89 e7             	mov    %r12,%rdi
    3ad3:	e8 58 44 00 00       	call   7f30 <sgx_is_outside_enclave>
    3ad8:	89 c2                	mov    %eax,%edx
    3ada:	b8 02 00 00 00       	mov    $0x2,%eax
    3adf:	85 d2                	test   %edx,%edx
    3ae1:	74 92                	je     3a75 <sgx_process_input+0x35>
    3ae3:	48 85 ed             	test   %rbp,%rbp
    3ae6:	0f ae e8             	lfence 
    3ae9:	74 68                	je     3b53 <sgx_process_input+0x113>
    3aeb:	48 89 ef             	mov    %rbp,%rdi
    3aee:	e8 0d 7c 00 00       	call   b700 <dlmalloc>
    3af3:	49 89 c5             	mov    %rax,%r13
    3af6:	b8 03 00 00 00       	mov    $0x3,%eax
    3afb:	4d 85 ed             	test   %r13,%r13
    3afe:	0f 84 71 ff ff ff    	je     3a75 <sgx_process_input+0x35>
    3b04:	48 89 e9             	mov    %rbp,%rcx
    3b07:	4c 89 e2             	mov    %r12,%rdx
    3b0a:	48 89 ee             	mov    %rbp,%rsi
    3b0d:	4c 89 ef             	mov    %r13,%rdi
    3b10:	bb 01 00 00 00       	mov    $0x1,%ebx
    3b15:	e8 76 b5 00 00       	call   f090 <memcpy_s>
    3b1a:	85 c0                	test   %eax,%eax
    3b1c:	75 23                	jne    3b41 <sgx_process_input+0x101>
    3b1e:	48 89 ee             	mov    %rbp,%rsi
    3b21:	4c 89 ef             	mov    %r13,%rdi
    3b24:	31 db                	xor    %ebx,%ebx
    3b26:	e8 55 28 00 00       	call   6380 <process_input>
    3b2b:	48 89 e9             	mov    %rbp,%rcx
    3b2e:	4c 89 ea             	mov    %r13,%rdx
    3b31:	48 89 ee             	mov    %rbp,%rsi
    3b34:	4c 89 e7             	mov    %r12,%rdi
    3b37:	e8 d4 b5 00 00       	call   f110 <memcpy_verw_s>
    3b3c:	85 c0                	test   %eax,%eax
    3b3e:	0f 95 c3             	setne  %bl
    3b41:	4c 89 ef             	mov    %r13,%rdi
    3b44:	e8 27 96 00 00       	call   d170 <dlfree>
    3b49:	89 d8                	mov    %ebx,%eax
    3b4b:	e9 25 ff ff ff       	jmp    3a75 <sgx_process_input+0x35>
    3b50:	0f ae e8             	lfence 
    3b53:	48 89 ee             	mov    %rbp,%rsi
    3b56:	31 ff                	xor    %edi,%edi
    3b58:	e8 23 28 00 00       	call   6380 <process_input>
    3b5d:	31 c0                	xor    %eax,%eax
    3b5f:	e9 11 ff ff ff       	jmp    3a75 <sgx_process_input+0x35>
    3b64:	e8 e7 af 00 00       	call   eb50 <__stack_chk_fail>
    3b69:	0f 1f 80 00 00 00 00 	nopl   0x0(%rax)

0000000000003b70 <ocall_print_string>:
    3b70:	41 54                	push   %r12
    3b72:	55                   	push   %rbp
    3b73:	53                   	push   %rbx
    3b74:	48 83 ec 10          	sub    $0x10,%rsp
    3b78:	64 48 8b 04 25 28 00 	mov    %fs:0x28,%rax
    3b7f:	00 00 
    3b81:	48 89 44 24 08       	mov    %rax,0x8(%rsp)
    3b86:	31 c0                	xor    %eax,%eax
    3b88:	48 85 ff             	test   %rdi,%rdi
    3b8b:	0f 84 a7 00 00 00    	je     3c38 <ocall_print_string+0xc8>
    3b91:	48 89 fb             	mov    %rdi,%rbx
    3b94:	e8 77 ae 00 00       	call   ea10 <strlen>
    3b99:	4c 8d 60 01          	lea    0x1(%rax),%r12
    3b9d:	48 89 df             	mov    %rbx,%rdi
    3ba0:	48 89 c5             	mov    %rax,%rbp
    3ba3:	48 c7 04 24 00 00 00 	movq   $0x0,(%rsp)
    3baa:	00 
    3bab:	4c 89 e6             	mov    %r12,%rsi
    3bae:	e8 1d 43 00 00       	call   7ed0 <sgx_is_within_enclave>
    3bb3:	85 c0                	test   %eax,%eax
    3bb5:	ba 02 00 00 00       	mov    $0x2,%edx
    3bba:	75 24                	jne    3be0 <ocall_print_string+0x70>
    3bbc:	48 8b 4c 24 08       	mov    0x8(%rsp),%rcx
    3bc1:	64 48 33 0c 25 28 00 	xor    %fs:0x28,%rcx
    3bc8:	00 00 
    3bca:	89 d0                	mov    %edx,%eax
    3bcc:	0f 85 c6 00 00 00    	jne    3c98 <ocall_print_string+0x128>
    3bd2:	48 83 c4 10          	add    $0x10,%rsp
    3bd6:	5b                   	pop    %rbx
    3bd7:	5d                   	pop    %rbp
    3bd8:	41 5c                	pop    %r12
    3bda:	c3                   	ret    
    3bdb:	0f 1f 44 00 00       	nopl   0x0(%rax,%rax,1)
    3be0:	48 8d 7d 09          	lea    0x9(%rbp),%rdi
    3be4:	49 39 fc             	cmp    %rdi,%r12
    3be7:	77 d3                	ja     3bbc <ocall_print_string+0x4c>
    3be9:	e8 92 43 00 00       	call   7f80 <sgx_ocalloc>
    3bee:	48 85 c0             	test   %rax,%rax
    3bf1:	48 89 c5             	mov    %rax,%rbp
    3bf4:	74 5c                	je     3c52 <ocall_print_string+0xe2>
    3bf6:	48 8d 45 08          	lea    0x8(%rbp),%rax
    3bfa:	48 89 e2             	mov    %rsp,%rdx
    3bfd:	b9 08 00 00 00       	mov    $0x8,%ecx
    3c02:	be 08 00 00 00       	mov    $0x8,%esi
    3c07:	48 89 ef             	mov    %rbp,%rdi
    3c0a:	48 89 04 24          	mov    %rax,(%rsp)
    3c0e:	e8 fd b4 00 00       	call   f110 <memcpy_verw_s>
    3c13:	85 c0                	test   %eax,%eax
    3c15:	75 43                	jne    3c5a <ocall_print_string+0xea>
    3c17:	48 8b 3c 24          	mov    (%rsp),%rdi
    3c1b:	4c 89 e1             	mov    %r12,%rcx
    3c1e:	48 89 da             	mov    %rbx,%rdx
    3c21:	4c 89 e6             	mov    %r12,%rsi
    3c24:	e8 e7 b4 00 00       	call   f110 <memcpy_verw_s>
    3c29:	85 c0                	test   %eax,%eax
    3c2b:	75 2d                	jne    3c5a <ocall_print_string+0xea>
    3c2d:	4c 01 24 24          	add    %r12,(%rsp)
    3c31:	eb 4d                	jmp    3c80 <ocall_print_string+0x110>
    3c33:	0f 1f 44 00 00       	nopl   0x0(%rax,%rax,1)
    3c38:	bf 08 00 00 00       	mov    $0x8,%edi
    3c3d:	48 c7 04 24 00 00 00 	movq   $0x0,(%rsp)
    3c44:	00 
    3c45:	e8 36 43 00 00       	call   7f80 <sgx_ocalloc>
    3c4a:	48 85 c0             	test   %rax,%rax
    3c4d:	48 89 c5             	mov    %rax,%rbp
    3c50:	75 1e                	jne    3c70 <ocall_print_string+0x100>
    3c52:	48 c7 04 24 00 00 00 	movq   $0x0,(%rsp)
    3c59:	00 
    3c5a:	e8 11 44 00 00       	call   8070 <sgx_ocfree>
    3c5f:	ba 01 00 00 00       	mov    $0x1,%edx
    3c64:	e9 53 ff ff ff       	jmp    3bbc <ocall_print_string+0x4c>
    3c69:	0f 1f 80 00 00 00 00 	nopl   0x0(%rax)
    3c70:	48 8d 40 08          	lea    0x8(%rax),%rax
    3c74:	48 89 04 24          	mov    %rax,(%rsp)
    3c78:	48 c7 45 00 00 00 00 	movq   $0x0,0x0(%rbp)
    3c7f:	00 
    3c80:	48 89 ee             	mov    %rbp,%rsi
    3c83:	31 ff                	xor    %edi,%edi
    3c85:	e8 66 5b 00 00       	call   97f0 <sgx_ocall>
    3c8a:	89 c3                	mov    %eax,%ebx
    3c8c:	e8 df 43 00 00       	call   8070 <sgx_ocfree>
    3c91:	89 da                	mov    %ebx,%edx
    3c93:	e9 24 ff ff ff       	jmp    3bbc <ocall_print_string+0x4c>
    3c98:	e8 b3 ae 00 00       	call   eb50 <__stack_chk_fail>
    3c9d:	0f 1f 00             	nopl   (%rax)

0000000000003ca0 <init_time>:
    3ca0:	31 f6                	xor    %esi,%esi
    3ca2:	bf 01 00 00 00       	mov    $0x1,%edi
    3ca7:	e9 44 5b 00 00       	jmp    97f0 <sgx_ocall>
    3cac:	0f 1f 40 00          	nopl   0x0(%rax)

0000000000003cb0 <get_time>:
    3cb0:	53                   	push   %rbx
    3cb1:	48 83 ec 10          	sub    $0x10,%rsp
    3cb5:	89 7c 24 0c          	mov    %edi,0xc(%rsp)
    3cb9:	bf 04 00 00 00       	mov    $0x4,%edi
    3cbe:	e8 bd 42 00 00       	call   7f80 <sgx_ocalloc>
    3cc3:	48 85 c0             	test   %rax,%rax
    3cc6:	74 40                	je     3d08 <get_time+0x58>
    3cc8:	48 8d 54 24 0c       	lea    0xc(%rsp),%rdx
    3ccd:	b9 04 00 00 00       	mov    $0x4,%ecx
    3cd2:	be 04 00 00 00       	mov    $0x4,%esi
    3cd7:	48 89 c7             	mov    %rax,%rdi
    3cda:	48 89 c3             	mov    %rax,%rbx
    3cdd:	e8 2e b4 00 00       	call   f110 <memcpy_verw_s>
    3ce2:	85 c0                	test   %eax,%eax
    3ce4:	75 22                	jne    3d08 <get_time+0x58>
    3ce6:	48 89 de             	mov    %rbx,%rsi
    3ce9:	bf 02 00 00 00       	mov    $0x2,%edi
    3cee:	e8 fd 5a 00 00       	call   97f0 <sgx_ocall>
    3cf3:	89 c3                	mov    %eax,%ebx
    3cf5:	e8 76 43 00 00       	call   8070 <sgx_ocfree>
    3cfa:	48 83 c4 10          	add    $0x10,%rsp
    3cfe:	89 d8                	mov    %ebx,%eax
    3d00:	5b                   	pop    %rbx
    3d01:	c3                   	ret    
    3d02:	66 0f 1f 44 00 00    	nopw   0x0(%rax,%rax,1)
    3d08:	e8 63 43 00 00       	call   8070 <sgx_ocfree>
    3d0d:	48 83 c4 10          	add    $0x10,%rsp
    3d11:	b8 01 00 00 00       	mov    $0x1,%eax
    3d16:	5b                   	pop    %rbx
    3d17:	c3                   	ret    
    3d18:	0f 1f 84 00 00 00 00 	nopl   0x0(%rax,%rax,1)
    3d1f:	00 

0000000000003d20 <ocall_pointer_user_check>:
    3d20:	53                   	push   %rbx
    3d21:	48 83 ec 10          	sub    $0x10,%rsp
    3d25:	48 89 7c 24 08       	mov    %rdi,0x8(%rsp)
    3d2a:	bf 08 00 00 00       	mov    $0x8,%edi
    3d2f:	e8 4c 42 00 00       	call   7f80 <sgx_ocalloc>
    3d34:	48 85 c0             	test   %rax,%rax
    3d37:	74 3f                	je     3d78 <ocall_pointer_user_check+0x58>
    3d39:	48 8d 54 24 08       	lea    0x8(%rsp),%rdx
    3d3e:	b9 08 00 00 00       	mov    $0x8,%ecx
    3d43:	be 08 00 00 00       	mov    $0x8,%esi
    3d48:	48 89 c7             	mov    %rax,%rdi
    3d4b:	48 89 c3             	mov    %rax,%rbx
    3d4e:	e8 bd b3 00 00       	call   f110 <memcpy_verw_s>
    3d53:	85 c0                	test   %eax,%eax
    3d55:	75 21                	jne    3d78 <ocall_pointer_user_check+0x58>
    3d57:	48 89 de             	mov    %rbx,%rsi
    3d5a:	bf 03 00 00 00       	mov    $0x3,%edi
    3d5f:	e8 8c 5a 00 00       	call   97f0 <sgx_ocall>
    3d64:	89 c3                	mov    %eax,%ebx
    3d66:	e8 05 43 00 00       	call   8070 <sgx_ocfree>
    3d6b:	48 83 c4 10          	add    $0x10,%rsp
    3d6f:	89 d8                	mov    %ebx,%eax
    3d71:	5b                   	pop    %rbx
    3d72:	c3                   	ret    
    3d73:	0f 1f 44 00 00       	nopl   0x0(%rax,%rax,1)
    3d78:	e8 f3 42 00 00       	call   8070 <sgx_ocfree>
    3d7d:	48 83 c4 10          	add    $0x10,%rsp
    3d81:	b8 01 00 00 00       	mov    $0x1,%eax
    3d86:	5b                   	pop    %rbx
    3d87:	c3                   	ret    
    3d88:	0f 1f 84 00 00 00 00 	nopl   0x0(%rax,%rax,1)
    3d8f:	00 

0000000000003d90 <ocall_pointer_in>:
    3d90:	55                   	push   %rbp
    3d91:	53                   	push   %rbx
    3d92:	48 83 ec 18          	sub    $0x18,%rsp
    3d96:	64 48 8b 04 25 28 00 	mov    %fs:0x28,%rax
    3d9d:	00 00 
    3d9f:	48 89 44 24 08       	mov    %rax,0x8(%rsp)
    3da4:	31 c0                	xor    %eax,%eax
    3da6:	48 85 ff             	test   %rdi,%rdi
    3da9:	48 c7 04 24 00 00 00 	movq   $0x0,(%rsp)
    3db0:	00 
    3db1:	0f 84 a9 00 00 00    	je     3e60 <ocall_pointer_in+0xd0>
    3db7:	be 04 00 00 00       	mov    $0x4,%esi
    3dbc:	48 89 fb             	mov    %rdi,%rbx
    3dbf:	e8 0c 41 00 00       	call   7ed0 <sgx_is_within_enclave>
    3dc4:	85 c0                	test   %eax,%eax
    3dc6:	ba 02 00 00 00       	mov    $0x2,%edx
    3dcb:	75 23                	jne    3df0 <ocall_pointer_in+0x60>
    3dcd:	48 8b 4c 24 08       	mov    0x8(%rsp),%rcx
    3dd2:	64 48 33 0c 25 28 00 	xor    %fs:0x28,%rcx
    3dd9:	00 00 
    3ddb:	89 d0                	mov    %edx,%eax
    3ddd:	0f 85 bf 00 00 00    	jne    3ea2 <ocall_pointer_in+0x112>
    3de3:	48 83 c4 18          	add    $0x18,%rsp
    3de7:	5b                   	pop    %rbx
    3de8:	5d                   	pop    %rbp
    3de9:	c3                   	ret    
    3dea:	66 0f 1f 44 00 00    	nopw   0x0(%rax,%rax,1)
    3df0:	bf 0c 00 00 00       	mov    $0xc,%edi
    3df5:	e8 86 41 00 00       	call   7f80 <sgx_ocalloc>
    3dfa:	48 85 c0             	test   %rax,%rax
    3dfd:	48 89 c5             	mov    %rax,%rbp
    3e00:	74 70                	je     3e72 <ocall_pointer_in+0xe2>
    3e02:	48 8d 45 08          	lea    0x8(%rbp),%rax
    3e06:	48 89 e2             	mov    %rsp,%rdx
    3e09:	b9 08 00 00 00       	mov    $0x8,%ecx
    3e0e:	be 08 00 00 00       	mov    $0x8,%esi
    3e13:	48 89 ef             	mov    %rbp,%rdi
    3e16:	48 89 04 24          	mov    %rax,(%rsp)
    3e1a:	e8 f1 b2 00 00       	call   f110 <memcpy_verw_s>
    3e1f:	85 c0                	test   %eax,%eax
    3e21:	75 57                	jne    3e7a <ocall_pointer_in+0xea>
    3e23:	48 8b 3c 24          	mov    (%rsp),%rdi
    3e27:	b9 04 00 00 00       	mov    $0x4,%ecx
    3e2c:	48 89 da             	mov    %rbx,%rdx
    3e2f:	be 04 00 00 00       	mov    $0x4,%esi
    3e34:	e8 d7 b2 00 00       	call   f110 <memcpy_verw_s>
    3e39:	85 c0                	test   %eax,%eax
    3e3b:	75 3d                	jne    3e7a <ocall_pointer_in+0xea>
    3e3d:	48 83 04 24 04       	addq   $0x4,(%rsp)
    3e42:	48 89 ee             	mov    %rbp,%rsi
    3e45:	bf 04 00 00 00       	mov    $0x4,%edi
    3e4a:	e8 a1 59 00 00       	call   97f0 <sgx_ocall>
    3e4f:	89 c3                	mov    %eax,%ebx
    3e51:	e8 1a 42 00 00       	call   8070 <sgx_ocfree>
    3e56:	89 da                	mov    %ebx,%edx
    3e58:	e9 70 ff ff ff       	jmp    3dcd <ocall_pointer_in+0x3d>
    3e5d:	0f 1f 00             	nopl   (%rax)
    3e60:	bf 08 00 00 00       	mov    $0x8,%edi
    3e65:	e8 16 41 00 00       	call   7f80 <sgx_ocalloc>
    3e6a:	48 85 c0             	test   %rax,%rax
    3e6d:	48 89 c5             	mov    %rax,%rbp
    3e70:	75 1e                	jne    3e90 <ocall_pointer_in+0x100>
    3e72:	48 c7 04 24 00 00 00 	movq   $0x0,(%rsp)
    3e79:	00 
    3e7a:	e8 f1 41 00 00       	call   8070 <sgx_ocfree>
    3e7f:	ba 01 00 00 00       	mov    $0x1,%edx
    3e84:	e9 44 ff ff ff       	jmp    3dcd <ocall_pointer_in+0x3d>
    3e89:	0f 1f 80 00 00 00 00 	nopl   0x0(%rax)
    3e90:	48 8d 45 08          	lea    0x8(%rbp),%rax
    3e94:	48 89 04 24          	mov    %rax,(%rsp)
    3e98:	48 c7 45 00 00 00 00 	movq   $0x0,0x0(%rbp)
    3e9f:	00 
    3ea0:	eb a0                	jmp    3e42 <ocall_pointer_in+0xb2>
    3ea2:	e8 a9 ac 00 00       	call   eb50 <__stack_chk_fail>
    3ea7:	66 0f 1f 84 00 00 00 	nopw   0x0(%rax,%rax,1)
    3eae:	00 00 

0000000000003eb0 <ocall_pointer_out>:
    3eb0:	41 54                	push   %r12
    3eb2:	55                   	push   %rbp
    3eb3:	53                   	push   %rbx
    3eb4:	48 83 ec 10          	sub    $0x10,%rsp
    3eb8:	64 48 8b 04 25 28 00 	mov    %fs:0x28,%rax
    3ebf:	00 00 
    3ec1:	48 89 44 24 08       	mov    %rax,0x8(%rsp)
    3ec6:	31 c0                	xor    %eax,%eax
    3ec8:	48 85 ff             	test   %rdi,%rdi
    3ecb:	48 c7 04 24 00 00 00 	movq   $0x0,(%rsp)
    3ed2:	00 
    3ed3:	0f 84 c7 00 00 00    	je     3fa0 <ocall_pointer_out+0xf0>
    3ed9:	be 04 00 00 00       	mov    $0x4,%esi
    3ede:	48 89 fd             	mov    %rdi,%rbp
    3ee1:	e8 ea 3f 00 00       	call   7ed0 <sgx_is_within_enclave>
    3ee6:	85 c0                	test   %eax,%eax
    3ee8:	ba 02 00 00 00       	mov    $0x2,%edx
    3eed:	75 21                	jne    3f10 <ocall_pointer_out+0x60>
    3eef:	48 8b 4c 24 08       	mov    0x8(%rsp),%rcx
    3ef4:	64 48 33 0c 25 28 00 	xor    %fs:0x28,%rcx
    3efb:	00 00 
    3efd:	89 d0                	mov    %edx,%eax
    3eff:	0f 85 f5 00 00 00    	jne    3ffa <ocall_pointer_out+0x14a>
    3f05:	48 83 c4 10          	add    $0x10,%rsp
    3f09:	5b                   	pop    %rbx
    3f0a:	5d                   	pop    %rbp
    3f0b:	41 5c                	pop    %r12
    3f0d:	c3                   	ret    
    3f0e:	66 90                	xchg   %ax,%ax
    3f10:	bf 0c 00 00 00       	mov    $0xc,%edi
    3f15:	e8 66 40 00 00       	call   7f80 <sgx_ocalloc>
    3f1a:	48 85 c0             	test   %rax,%rax
    3f1d:	48 89 c3             	mov    %rax,%rbx
    3f20:	0f 84 89 00 00 00    	je     3faf <ocall_pointer_out+0xff>
    3f26:	48 8d 43 08          	lea    0x8(%rbx),%rax
    3f2a:	48 89 e2             	mov    %rsp,%rdx
    3f2d:	b9 08 00 00 00       	mov    $0x8,%ecx
    3f32:	be 08 00 00 00       	mov    $0x8,%esi
    3f37:	48 89 df             	mov    %rbx,%rdi
    3f3a:	48 89 04 24          	mov    %rax,(%rsp)
    3f3e:	e8 cd b1 00 00       	call   f110 <memcpy_verw_s>
    3f43:	85 c0                	test   %eax,%eax
    3f45:	75 70                	jne    3fb7 <ocall_pointer_out+0x107>
    3f47:	4c 8b 24 24          	mov    (%rsp),%r12
    3f4b:	31 f6                	xor    %esi,%esi
    3f4d:	ba 04 00 00 00       	mov    $0x4,%edx
    3f52:	4c 89 e7             	mov    %r12,%rdi
    3f55:	e8 36 a9 00 00       	call   e890 <memset_verw>
    3f5a:	48 89 de             	mov    %rbx,%rsi
    3f5d:	bf 05 00 00 00       	mov    $0x5,%edi
    3f62:	48 83 04 24 04       	addq   $0x4,(%rsp)
    3f67:	e8 84 58 00 00       	call   97f0 <sgx_ocall>
    3f6c:	85 c0                	test   %eax,%eax
    3f6e:	89 c3                	mov    %eax,%ebx
    3f70:	75 19                	jne    3f8b <ocall_pointer_out+0xdb>
    3f72:	b9 04 00 00 00       	mov    $0x4,%ecx
    3f77:	4c 89 e2             	mov    %r12,%rdx
    3f7a:	be 04 00 00 00       	mov    $0x4,%esi
    3f7f:	48 89 ef             	mov    %rbp,%rdi
    3f82:	e8 09 b1 00 00       	call   f090 <memcpy_s>
    3f87:	85 c0                	test   %eax,%eax
    3f89:	75 2c                	jne    3fb7 <ocall_pointer_out+0x107>
    3f8b:	e8 e0 40 00 00       	call   8070 <sgx_ocfree>
    3f90:	89 da                	mov    %ebx,%edx
    3f92:	e9 58 ff ff ff       	jmp    3eef <ocall_pointer_out+0x3f>
    3f97:	66 0f 1f 84 00 00 00 	nopw   0x0(%rax,%rax,1)
    3f9e:	00 00 
    3fa0:	bf 08 00 00 00       	mov    $0x8,%edi
    3fa5:	e8 d6 3f 00 00       	call   7f80 <sgx_ocalloc>
    3faa:	48 85 c0             	test   %rax,%rax
    3fad:	75 21                	jne    3fd0 <ocall_pointer_out+0x120>
    3faf:	48 c7 04 24 00 00 00 	movq   $0x0,(%rsp)
    3fb6:	00 
    3fb7:	e8 b4 40 00 00       	call   8070 <sgx_ocfree>
    3fbc:	ba 01 00 00 00       	mov    $0x1,%edx
    3fc1:	e9 29 ff ff ff       	jmp    3eef <ocall_pointer_out+0x3f>
    3fc6:	66 2e 0f 1f 84 00 00 	cs nopw 0x0(%rax,%rax,1)
    3fcd:	00 00 00 
    3fd0:	48 8d 50 08          	lea    0x8(%rax),%rdx
    3fd4:	48 89 c6             	mov    %rax,%rsi
    3fd7:	bf 05 00 00 00       	mov    $0x5,%edi
    3fdc:	48 89 14 24          	mov    %rdx,(%rsp)
    3fe0:	48 c7 00 00 00 00 00 	movq   $0x0,(%rax)
    3fe7:	e8 04 58 00 00       	call   97f0 <sgx_ocall>
    3fec:	89 c3                	mov    %eax,%ebx
    3fee:	e8 7d 40 00 00       	call   8070 <sgx_ocfree>
    3ff3:	89 da                	mov    %ebx,%edx
    3ff5:	e9 f5 fe ff ff       	jmp    3eef <ocall_pointer_out+0x3f>
    3ffa:	e8 51 ab 00 00       	call   eb50 <__stack_chk_fail>
    3fff:	90                   	nop

0000000000004000 <ocall_pointer_in_out>:
    4000:	41 54                	push   %r12
    4002:	55                   	push   %rbp
    4003:	53                   	push   %rbx
    4004:	48 83 ec 10          	sub    $0x10,%rsp
    4008:	64 48 8b 04 25 28 00 	mov    %fs:0x28,%rax
    400f:	00 00 
    4011:	48 89 44 24 08       	mov    %rax,0x8(%rsp)
    4016:	31 c0                	xor    %eax,%eax
    4018:	48 85 ff             	test   %rdi,%rdi
    401b:	48 c7 04 24 00 00 00 	movq   $0x0,(%rsp)
    4022:	00 
    4023:	0f 84 cf 00 00 00    	je     40f8 <ocall_pointer_in_out+0xf8>
    4029:	be 04 00 00 00       	mov    $0x4,%esi
    402e:	48 89 fb             	mov    %rdi,%rbx
    4031:	e8 9a 3e 00 00       	call   7ed0 <sgx_is_within_enclave>
    4036:	85 c0                	test   %eax,%eax
    4038:	ba 02 00 00 00       	mov    $0x2,%edx
    403d:	75 21                	jne    4060 <ocall_pointer_in_out+0x60>
    403f:	48 8b 4c 24 08       	mov    0x8(%rsp),%rcx
    4044:	64 48 33 0c 25 28 00 	xor    %fs:0x28,%rcx
    404b:	00 00 
    404d:	89 d0                	mov    %edx,%eax
    404f:	0f 85 eb 00 00 00    	jne    4140 <ocall_pointer_in_out+0x140>
    4055:	48 83 c4 10          	add    $0x10,%rsp
    4059:	5b                   	pop    %rbx
    405a:	5d                   	pop    %rbp
    405b:	41 5c                	pop    %r12
    405d:	c3                   	ret    
    405e:	66 90                	xchg   %ax,%ax
    4060:	bf 0c 00 00 00       	mov    $0xc,%edi
    4065:	e8 16 3f 00 00       	call   7f80 <sgx_ocalloc>
    406a:	48 85 c0             	test   %rax,%rax
    406d:	48 89 c5             	mov    %rax,%rbp
    4070:	0f 84 91 00 00 00    	je     4107 <ocall_pointer_in_out+0x107>
    4076:	48 8d 45 08          	lea    0x8(%rbp),%rax
    407a:	48 89 e2             	mov    %rsp,%rdx
    407d:	b9 08 00 00 00       	mov    $0x8,%ecx
    4082:	be 08 00 00 00       	mov    $0x8,%esi
    4087:	48 89 ef             	mov    %rbp,%rdi
    408a:	48 89 04 24          	mov    %rax,(%rsp)
    408e:	e8 7d b0 00 00       	call   f110 <memcpy_verw_s>
    4093:	85 c0                	test   %eax,%eax
    4095:	75 78                	jne    410f <ocall_pointer_in_out+0x10f>
    4097:	4c 8b 24 24          	mov    (%rsp),%r12
    409b:	b9 04 00 00 00       	mov    $0x4,%ecx
    40a0:	48 89 da             	mov    %rbx,%rdx
    40a3:	be 04 00 00 00       	mov    $0x4,%esi
    40a8:	4c 89 e7             	mov    %r12,%rdi
    40ab:	e8 60 b0 00 00       	call   f110 <memcpy_verw_s>
    40b0:	85 c0                	test   %eax,%eax
    40b2:	75 5b                	jne    410f <ocall_pointer_in_out+0x10f>
    40b4:	48 89 ee             	mov    %rbp,%rsi
    40b7:	bf 06 00 00 00       	mov    $0x6,%edi
    40bc:	48 83 04 24 04       	addq   $0x4,(%rsp)
    40c1:	e8 2a 57 00 00       	call   97f0 <sgx_ocall>
    40c6:	85 c0                	test   %eax,%eax
    40c8:	89 c5                	mov    %eax,%ebp
    40ca:	75 19                	jne    40e5 <ocall_pointer_in_out+0xe5>
    40cc:	b9 04 00 00 00       	mov    $0x4,%ecx
    40d1:	4c 89 e2             	mov    %r12,%rdx
    40d4:	be 04 00 00 00       	mov    $0x4,%esi
    40d9:	48 89 df             	mov    %rbx,%rdi
    40dc:	e8 af af 00 00       	call   f090 <memcpy_s>
    40e1:	85 c0                	test   %eax,%eax
    40e3:	75 2a                	jne    410f <ocall_pointer_in_out+0x10f>
    40e5:	e8 86 3f 00 00       	call   8070 <sgx_ocfree>
    40ea:	89 ea                	mov    %ebp,%edx
    40ec:	e9 4e ff ff ff       	jmp    403f <ocall_pointer_in_out+0x3f>
    40f1:	0f 1f 80 00 00 00 00 	nopl   0x0(%rax)
    40f8:	bf 08 00 00 00       	mov    $0x8,%edi
    40fd:	e8 7e 3e 00 00       	call   7f80 <sgx_ocalloc>
    4102:	48 85 c0             	test   %rax,%rax
    4105:	75 19                	jne    4120 <ocall_pointer_in_out+0x120>
    4107:	48 c7 04 24 00 00 00 	movq   $0x0,(%rsp)
    410e:	00 
    410f:	e8 5c 3f 00 00       	call   8070 <sgx_ocfree>
    4114:	ba 01 00 00 00       	mov    $0x1,%edx
    4119:	e9 21 ff ff ff       	jmp    403f <ocall_pointer_in_out+0x3f>
    411e:	66 90                	xchg   %ax,%ax
    4120:	48 8d 50 08          	lea    0x8(%rax),%rdx
    4124:	48 89 c6             	mov    %rax,%rsi
    4127:	bf 06 00 00 00       	mov    $0x6,%edi
    412c:	48 89 14 24          	mov    %rdx,(%rsp)
    4130:	48 c7 00 00 00 00 00 	movq   $0x0,(%rax)
    4137:	e8 b4 56 00 00       	call   97f0 <sgx_ocall>
    413c:	89 c5                	mov    %eax,%ebp
    413e:	eb a5                	jmp    40e5 <ocall_pointer_in_out+0xe5>
    4140:	e8 0b aa 00 00       	call   eb50 <__stack_chk_fail>
    4145:	66 2e 0f 1f 84 00 00 	cs nopw 0x0(%rax,%rax,1)
    414c:	00 00 00 
    414f:	90                   	nop

0000000000004150 <memccpy>:
    4150:	41 57                	push   %r15
    4152:	41 56                	push   %r14
    4154:	41 55                	push   %r13
    4156:	41 54                	push   %r12
    4158:	49 89 fd             	mov    %rdi,%r13
    415b:	55                   	push   %rbp
    415c:	53                   	push   %rbx
    415d:	48 89 f5             	mov    %rsi,%rbp
    4160:	49 89 d4             	mov    %rdx,%r12
    4163:	4c 89 c3             	mov    %r8,%rbx
    4166:	48 83 ec 38          	sub    $0x38,%rsp
    416a:	64 48 8b 04 25 28 00 	mov    %fs:0x28,%rax
    4171:	00 00 
    4173:	48 89 44 24 28       	mov    %rax,0x28(%rsp)
    4178:	31 c0                	xor    %eax,%eax
    417a:	48 85 f6             	test   %rsi,%rsi
    417d:	89 4c 24 1c          	mov    %ecx,0x1c(%rsp)
    4181:	4c 89 44 24 10       	mov    %r8,0x10(%rsp)
    4186:	48 c7 44 24 20 00 00 	movq   $0x0,0x20(%rsp)
    418d:	00 00 
    418f:	0f 84 b3 01 00 00    	je     4348 <memccpy+0x1f8>
    4195:	4c 89 c6             	mov    %r8,%rsi
    4198:	48 89 ef             	mov    %rbp,%rdi
    419b:	e8 30 3d 00 00       	call   7ed0 <sgx_is_within_enclave>
    41a0:	85 c0                	test   %eax,%eax
    41a2:	75 2c                	jne    41d0 <memccpy+0x80>
    41a4:	b8 02 00 00 00       	mov    $0x2,%eax
    41a9:	48 8b 4c 24 28       	mov    0x28(%rsp),%rcx
    41ae:	64 48 33 0c 25 28 00 	xor    %fs:0x28,%rcx
    41b5:	00 00 
    41b7:	0f 85 2d 02 00 00    	jne    43ea <memccpy+0x29a>
    41bd:	48 83 c4 38          	add    $0x38,%rsp
    41c1:	5b                   	pop    %rbx
    41c2:	5d                   	pop    %rbp
    41c3:	41 5c                	pop    %r12
    41c5:	41 5d                	pop    %r13
    41c7:	41 5e                	pop    %r14
    41c9:	41 5f                	pop    %r15
    41cb:	c3                   	ret    
    41cc:	0f 1f 40 00          	nopl   0x0(%rax)
    41d0:	4d 85 e4             	test   %r12,%r12
    41d3:	0f 85 af 01 00 00    	jne    4388 <memccpy+0x238>
    41d9:	4c 8d 73 28          	lea    0x28(%rbx),%r14
    41dd:	4c 39 f3             	cmp    %r14,%rbx
    41e0:	77 c2                	ja     41a4 <memccpy+0x54>
    41e2:	4c 89 f7             	mov    %r14,%rdi
    41e5:	e8 96 3d 00 00       	call   7f80 <sgx_ocalloc>
    41ea:	48 85 c0             	test   %rax,%rax
    41ed:	49 89 c7             	mov    %rax,%r15
    41f0:	0f 84 b4 01 00 00    	je     43aa <memccpy+0x25a>
    41f6:	48 8d 40 28          	lea    0x28(%rax),%rax
    41fa:	49 83 ee 28          	sub    $0x28,%r14
    41fe:	48 85 ed             	test   %rbp,%rbp
    4201:	48 89 44 24 20       	mov    %rax,0x20(%rsp)
    4206:	0f 84 bb 01 00 00    	je     43c7 <memccpy+0x277>
    420c:	48 8d 54 24 20       	lea    0x20(%rsp),%rdx
    4211:	49 8d 7f 08          	lea    0x8(%r15),%rdi
    4215:	b9 08 00 00 00       	mov    $0x8,%ecx
    421a:	be 08 00 00 00       	mov    $0x8,%esi
    421f:	e8 ec ae 00 00       	call   f110 <memcpy_verw_s>
    4224:	85 c0                	test   %eax,%eax
    4226:	0f 85 8c 01 00 00    	jne    43b8 <memccpy+0x268>
    422c:	48 8b 44 24 20       	mov    0x20(%rsp),%rax
    4231:	48 89 d9             	mov    %rbx,%rcx
    4234:	48 89 ea             	mov    %rbp,%rdx
    4237:	4c 89 f6             	mov    %r14,%rsi
    423a:	48 89 c7             	mov    %rax,%rdi
    423d:	48 89 44 24 08       	mov    %rax,0x8(%rsp)
    4242:	e8 c9 ae 00 00       	call   f110 <memcpy_verw_s>
    4247:	85 c0                	test   %eax,%eax
    4249:	0f 85 69 01 00 00    	jne    43b8 <memccpy+0x268>
    424f:	48 01 5c 24 20       	add    %rbx,0x20(%rsp)
    4254:	49 29 de             	sub    %rbx,%r14
    4257:	4d 85 e4             	test   %r12,%r12
    425a:	0f 84 7d 01 00 00    	je     43dd <memccpy+0x28d>
    4260:	48 8d 54 24 20       	lea    0x20(%rsp),%rdx
    4265:	49 8d 7f 10          	lea    0x10(%r15),%rdi
    4269:	b9 08 00 00 00       	mov    $0x8,%ecx
    426e:	be 08 00 00 00       	mov    $0x8,%esi
    4273:	e8 98 ae 00 00       	call   f110 <memcpy_verw_s>
    4278:	85 c0                	test   %eax,%eax
    427a:	0f 85 38 01 00 00    	jne    43b8 <memccpy+0x268>
    4280:	48 8b 7c 24 20       	mov    0x20(%rsp),%rdi
    4285:	48 89 d9             	mov    %rbx,%rcx
    4288:	4c 89 e2             	mov    %r12,%rdx
    428b:	4c 89 f6             	mov    %r14,%rsi
    428e:	e8 7d ae 00 00       	call   f110 <memcpy_verw_s>
    4293:	85 c0                	test   %eax,%eax
    4295:	0f 85 1d 01 00 00    	jne    43b8 <memccpy+0x268>
    429b:	48 01 5c 24 20       	add    %rbx,0x20(%rsp)
    42a0:	48 8d 54 24 1c       	lea    0x1c(%rsp),%rdx
    42a5:	49 8d 7f 18          	lea    0x18(%r15),%rdi
    42a9:	b9 04 00 00 00       	mov    $0x4,%ecx
    42ae:	be 04 00 00 00       	mov    $0x4,%esi
    42b3:	e8 58 ae 00 00       	call   f110 <memcpy_verw_s>
    42b8:	85 c0                	test   %eax,%eax
    42ba:	0f 85 f8 00 00 00    	jne    43b8 <memccpy+0x268>
    42c0:	48 8d 54 24 10       	lea    0x10(%rsp),%rdx
    42c5:	49 8d 7f 20          	lea    0x20(%r15),%rdi
    42c9:	b9 08 00 00 00       	mov    $0x8,%ecx
    42ce:	be 08 00 00 00       	mov    $0x8,%esi
    42d3:	e8 38 ae 00 00       	call   f110 <memcpy_verw_s>
    42d8:	85 c0                	test   %eax,%eax
    42da:	0f 85 d8 00 00 00    	jne    43b8 <memccpy+0x268>
    42e0:	4c 89 fe             	mov    %r15,%rsi
    42e3:	bf 07 00 00 00       	mov    $0x7,%edi
    42e8:	e8 03 55 00 00       	call   97f0 <sgx_ocall>
    42ed:	85 c0                	test   %eax,%eax
    42ef:	41 89 c4             	mov    %eax,%r12d
    42f2:	75 42                	jne    4336 <memccpy+0x1e6>
    42f4:	4d 85 ed             	test   %r13,%r13
    42f7:	74 1d                	je     4316 <memccpy+0x1c6>
    42f9:	b9 08 00 00 00       	mov    $0x8,%ecx
    42fe:	4c 89 fa             	mov    %r15,%rdx
    4301:	be 08 00 00 00       	mov    $0x8,%esi
    4306:	4c 89 ef             	mov    %r13,%rdi
    4309:	e8 82 ad 00 00       	call   f090 <memcpy_s>
    430e:	85 c0                	test   %eax,%eax
    4310:	0f 85 a2 00 00 00    	jne    43b8 <memccpy+0x268>
    4316:	48 85 ed             	test   %rbp,%rbp
    4319:	74 1b                	je     4336 <memccpy+0x1e6>
    431b:	48 8b 54 24 08       	mov    0x8(%rsp),%rdx
    4320:	48 89 d9             	mov    %rbx,%rcx
    4323:	48 89 de             	mov    %rbx,%rsi
    4326:	48 89 ef             	mov    %rbp,%rdi
    4329:	e8 62 ad 00 00       	call   f090 <memcpy_s>
    432e:	85 c0                	test   %eax,%eax
    4330:	0f 85 82 00 00 00    	jne    43b8 <memccpy+0x268>
    4336:	e8 35 3d 00 00       	call   8070 <sgx_ocfree>
    433b:	44 89 e0             	mov    %r12d,%eax
    433e:	e9 66 fe ff ff       	jmp    41a9 <memccpy+0x59>
    4343:	0f 1f 44 00 00       	nopl   0x0(%rax,%rax,1)
    4348:	48 85 d2             	test   %rdx,%rdx
    434b:	41 be 28 00 00 00    	mov    $0x28,%r14d
    4351:	0f 84 8b fe ff ff    	je     41e2 <memccpy+0x92>
    4357:	4c 89 c6             	mov    %r8,%rsi
    435a:	48 89 d7             	mov    %rdx,%rdi
    435d:	e8 6e 3b 00 00       	call   7ed0 <sgx_is_within_enclave>
    4362:	85 c0                	test   %eax,%eax
    4364:	0f 84 3a fe ff ff    	je     41a4 <memccpy+0x54>
    436a:	bf 28 00 00 00       	mov    $0x28,%edi
    436f:	90                   	nop
    4370:	48 01 df             	add    %rbx,%rdi
    4373:	49 89 fe             	mov    %rdi,%r14
    4376:	0f 82 28 fe ff ff    	jb     41a4 <memccpy+0x54>
    437c:	e9 61 fe ff ff       	jmp    41e2 <memccpy+0x92>
    4381:	0f 1f 80 00 00 00 00 	nopl   0x0(%rax)
    4388:	48 89 de             	mov    %rbx,%rsi
    438b:	4c 89 e7             	mov    %r12,%rdi
    438e:	e8 3d 3b 00 00       	call   7ed0 <sgx_is_within_enclave>
    4393:	85 c0                	test   %eax,%eax
    4395:	0f 84 09 fe ff ff    	je     41a4 <memccpy+0x54>
    439b:	48 8d 7b 28          	lea    0x28(%rbx),%rdi
    439f:	48 39 fb             	cmp    %rdi,%rbx
    43a2:	0f 87 fc fd ff ff    	ja     41a4 <memccpy+0x54>
    43a8:	eb c6                	jmp    4370 <memccpy+0x220>
    43aa:	48 c7 44 24 20 00 00 	movq   $0x0,0x20(%rsp)
    43b1:	00 00 
    43b3:	0f 1f 44 00 00       	nopl   0x0(%rax,%rax,1)
    43b8:	e8 b3 3c 00 00       	call   8070 <sgx_ocfree>
    43bd:	b8 01 00 00 00       	mov    $0x1,%eax
    43c2:	e9 e2 fd ff ff       	jmp    41a9 <memccpy+0x59>
    43c7:	49 c7 47 08 00 00 00 	movq   $0x0,0x8(%r15)
    43ce:	00 
    43cf:	48 c7 44 24 08 00 00 	movq   $0x0,0x8(%rsp)
    43d6:	00 00 
    43d8:	e9 7a fe ff ff       	jmp    4257 <memccpy+0x107>
    43dd:	49 c7 47 10 00 00 00 	movq   $0x0,0x10(%r15)
    43e4:	00 
    43e5:	e9 b6 fe ff ff       	jmp    42a0 <memccpy+0x150>
    43ea:	e8 61 a7 00 00       	call   eb50 <__stack_chk_fail>
    43ef:	90                   	nop

00000000000043f0 <ocall_function_allow>:
    43f0:	31 f6                	xor    %esi,%esi
    43f2:	bf 08 00 00 00       	mov    $0x8,%edi
    43f7:	e9 f4 53 00 00       	jmp    97f0 <sgx_ocall>
    43fc:	0f 1f 40 00          	nopl   0x0(%rax)

0000000000004400 <sgx_oc_cpuidex>:
    4400:	41 54                	push   %r12
    4402:	55                   	push   %rbp
    4403:	53                   	push   %rbx
    4404:	48 89 fb             	mov    %rdi,%rbx
    4407:	48 83 ec 20          	sub    $0x20,%rsp
    440b:	64 48 8b 04 25 28 00 	mov    %fs:0x28,%rax
    4412:	00 00 
    4414:	48 89 44 24 18       	mov    %rax,0x18(%rsp)
    4419:	31 c0                	xor    %eax,%eax
    441b:	48 85 ff             	test   %rdi,%rdi
    441e:	89 74 24 0c          	mov    %esi,0xc(%rsp)
    4422:	89 54 24 08          	mov    %edx,0x8(%rsp)
    4426:	48 c7 44 24 10 00 00 	movq   $0x0,0x10(%rsp)
    442d:	00 00 
    442f:	74 5f                	je     4490 <sgx_oc_cpuidex+0x90>
    4431:	be 10 00 00 00       	mov    $0x10,%esi
    4436:	e8 95 3a 00 00       	call   7ed0 <sgx_is_within_enclave>
    443b:	85 c0                	test   %eax,%eax
    443d:	ba 02 00 00 00       	mov    $0x2,%edx
    4442:	75 24                	jne    4468 <sgx_oc_cpuidex+0x68>
    4444:	48 8b 4c 24 18       	mov    0x18(%rsp),%rcx
    4449:	64 48 33 0c 25 28 00 	xor    %fs:0x28,%rcx
    4450:	00 00 
    4452:	89 d0                	mov    %edx,%eax
    4454:	0f 85 3f 01 00 00    	jne    4599 <sgx_oc_cpuidex+0x199>
    445a:	48 83 c4 20          	add    $0x20,%rsp
    445e:	5b                   	pop    %rbx
    445f:	5d                   	pop    %rbp
    4460:	41 5c                	pop    %r12
    4462:	c3                   	ret    
    4463:	0f 1f 44 00 00       	nopl   0x0(%rax,%rax,1)
    4468:	bf 20 00 00 00       	mov    $0x20,%edi
    446d:	e8 0e 3b 00 00       	call   7f80 <sgx_ocalloc>
    4472:	48 85 c0             	test   %rax,%rax
    4475:	48 89 c5             	mov    %rax,%rbp
    4478:	48 89 44 24 10       	mov    %rax,0x10(%rsp)
    447d:	75 39                	jne    44b8 <sgx_oc_cpuidex+0xb8>
    447f:	e8 ec 3b 00 00       	call   8070 <sgx_ocfree>
    4484:	ba 01 00 00 00       	mov    $0x1,%edx
    4489:	eb b9                	jmp    4444 <sgx_oc_cpuidex+0x44>
    448b:	0f 1f 44 00 00       	nopl   0x0(%rax,%rax,1)
    4490:	bf 10 00 00 00       	mov    $0x10,%edi
    4495:	e8 e6 3a 00 00       	call   7f80 <sgx_ocalloc>
    449a:	48 85 c0             	test   %rax,%rax
    449d:	48 89 c5             	mov    %rax,%rbp
    44a0:	0f 85 da 00 00 00    	jne    4580 <sgx_oc_cpuidex+0x180>
    44a6:	48 c7 44 24 10 00 00 	movq   $0x0,0x10(%rsp)
    44ad:	00 00 
    44af:	eb ce                	jmp    447f <sgx_oc_cpuidex+0x7f>
    44b1:	0f 1f 80 00 00 00 00 	nopl   0x0(%rax)
    44b8:	48 8d 40 10          	lea    0x10(%rax),%rax
    44bc:	48 8d 54 24 10       	lea    0x10(%rsp),%rdx
    44c1:	b9 08 00 00 00       	mov    $0x8,%ecx
    44c6:	be 08 00 00 00       	mov    $0x8,%esi
    44cb:	48 89 ef             	mov    %rbp,%rdi
    44ce:	48 89 44 24 10       	mov    %rax,0x10(%rsp)
    44d3:	e8 38 ac 00 00       	call   f110 <memcpy_verw_s>
    44d8:	85 c0                	test   %eax,%eax
    44da:	75 a3                	jne    447f <sgx_oc_cpuidex+0x7f>
    44dc:	4c 8b 64 24 10       	mov    0x10(%rsp),%r12
    44e1:	ba 10 00 00 00       	mov    $0x10,%edx
    44e6:	31 f6                	xor    %esi,%esi
    44e8:	4c 89 e7             	mov    %r12,%rdi
    44eb:	e8 a0 a3 00 00       	call   e890 <memset_verw>
    44f0:	48 83 44 24 10 10    	addq   $0x10,0x10(%rsp)
    44f6:	48 8d 54 24 0c       	lea    0xc(%rsp),%rdx
    44fb:	48 8d 7d 08          	lea    0x8(%rbp),%rdi
    44ff:	b9 04 00 00 00       	mov    $0x4,%ecx
    4504:	be 04 00 00 00       	mov    $0x4,%esi
    4509:	e8 02 ac 00 00       	call   f110 <memcpy_verw_s>
    450e:	85 c0                	test   %eax,%eax
    4510:	0f 85 69 ff ff ff    	jne    447f <sgx_oc_cpuidex+0x7f>
    4516:	48 8d 54 24 08       	lea    0x8(%rsp),%rdx
    451b:	48 8d 7d 0c          	lea    0xc(%rbp),%rdi
    451f:	b9 04 00 00 00       	mov    $0x4,%ecx
    4524:	be 04 00 00 00       	mov    $0x4,%esi
    4529:	e8 e2 ab 00 00       	call   f110 <memcpy_verw_s>
    452e:	85 c0                	test   %eax,%eax
    4530:	0f 85 49 ff ff ff    	jne    447f <sgx_oc_cpuidex+0x7f>
    4536:	48 89 ee             	mov    %rbp,%rsi
    4539:	bf 09 00 00 00       	mov    $0x9,%edi
    453e:	e8 ad 52 00 00       	call   97f0 <sgx_ocall>
    4543:	85 c0                	test   %eax,%eax
    4545:	89 c5                	mov    %eax,%ebp
    4547:	75 22                	jne    456b <sgx_oc_cpuidex+0x16b>
    4549:	48 85 db             	test   %rbx,%rbx
    454c:	74 1d                	je     456b <sgx_oc_cpuidex+0x16b>
    454e:	b9 10 00 00 00       	mov    $0x10,%ecx
    4553:	4c 89 e2             	mov    %r12,%rdx
    4556:	be 10 00 00 00       	mov    $0x10,%esi
    455b:	48 89 df             	mov    %rbx,%rdi
    455e:	e8 2d ab 00 00       	call   f090 <memcpy_s>
    4563:	85 c0                	test   %eax,%eax
    4565:	0f 85 14 ff ff ff    	jne    447f <sgx_oc_cpuidex+0x7f>
    456b:	e8 00 3b 00 00       	call   8070 <sgx_ocfree>
    4570:	89 ea                	mov    %ebp,%edx
    4572:	e9 cd fe ff ff       	jmp    4444 <sgx_oc_cpuidex+0x44>
    4577:	66 0f 1f 84 00 00 00 	nopw   0x0(%rax,%rax,1)
    457e:	00 00 
    4580:	48 8d 40 10          	lea    0x10(%rax),%rax
    4584:	45 31 e4             	xor    %r12d,%r12d
    4587:	48 89 44 24 10       	mov    %rax,0x10(%rsp)
    458c:	48 c7 45 00 00 00 00 	movq   $0x0,0x0(%rbp)
    4593:	00 
    4594:	e9 5d ff ff ff       	jmp    44f6 <sgx_oc_cpuidex+0xf6>
    4599:	e8 b2 a5 00 00       	call   eb50 <__stack_chk_fail>
    459e:	66 90                	xchg   %ax,%ax

00000000000045a0 <sgx_thread_wait_untrusted_event_ocall>:
    45a0:	41 54                	push   %r12
    45a2:	55                   	push   %rbp
    45a3:	49 89 fc             	mov    %rdi,%r12
    45a6:	53                   	push   %rbx
    45a7:	bf 10 00 00 00       	mov    $0x10,%edi
    45ac:	48 83 ec 10          	sub    $0x10,%rsp
    45b0:	48 89 74 24 08       	mov    %rsi,0x8(%rsp)
    45b5:	e8 c6 39 00 00       	call   7f80 <sgx_ocalloc>
    45ba:	48 85 c0             	test   %rax,%rax
    45bd:	74 61                	je     4620 <sgx_thread_wait_untrusted_event_ocall+0x80>
    45bf:	48 8d 54 24 08       	lea    0x8(%rsp),%rdx
    45c4:	48 8d 78 08          	lea    0x8(%rax),%rdi
    45c8:	b9 08 00 00 00       	mov    $0x8,%ecx
    45cd:	be 08 00 00 00       	mov    $0x8,%esi
    45d2:	48 89 c3             	mov    %rax,%rbx
    45d5:	e8 36 ab 00 00       	call   f110 <memcpy_verw_s>
    45da:	85 c0                	test   %eax,%eax
    45dc:	75 42                	jne    4620 <sgx_thread_wait_untrusted_event_ocall+0x80>
    45de:	48 89 de             	mov    %rbx,%rsi
    45e1:	bf 0a 00 00 00       	mov    $0xa,%edi
    45e6:	e8 05 52 00 00       	call   97f0 <sgx_ocall>
    45eb:	4d 85 e4             	test   %r12,%r12
    45ee:	89 c5                	mov    %eax,%ebp
    45f0:	74 1d                	je     460f <sgx_thread_wait_untrusted_event_ocall+0x6f>
    45f2:	85 c0                	test   %eax,%eax
    45f4:	75 19                	jne    460f <sgx_thread_wait_untrusted_event_ocall+0x6f>
    45f6:	b9 04 00 00 00       	mov    $0x4,%ecx
    45fb:	48 89 da             	mov    %rbx,%rdx
    45fe:	be 04 00 00 00       	mov    $0x4,%esi
    4603:	4c 89 e7             	mov    %r12,%rdi
    4606:	e8 85 aa 00 00       	call   f090 <memcpy_s>
    460b:	85 c0                	test   %eax,%eax
    460d:	75 11                	jne    4620 <sgx_thread_wait_untrusted_event_ocall+0x80>
    460f:	e8 5c 3a 00 00       	call   8070 <sgx_ocfree>
    4614:	48 83 c4 10          	add    $0x10,%rsp
    4618:	89 e8                	mov    %ebp,%eax
    461a:	5b                   	pop    %rbx
    461b:	5d                   	pop    %rbp
    461c:	41 5c                	pop    %r12
    461e:	c3                   	ret    
    461f:	90                   	nop
    4620:	e8 4b 3a 00 00       	call   8070 <sgx_ocfree>
    4625:	48 83 c4 10          	add    $0x10,%rsp
    4629:	b8 01 00 00 00       	mov    $0x1,%eax
    462e:	5b                   	pop    %rbx
    462f:	5d                   	pop    %rbp
    4630:	41 5c                	pop    %r12
    4632:	c3                   	ret    
    4633:	66 2e 0f 1f 84 00 00 	cs nopw 0x0(%rax,%rax,1)
    463a:	00 00 00 
    463d:	0f 1f 00             	nopl   (%rax)

0000000000004640 <sgx_thread_set_untrusted_event_ocall>:
    4640:	41 54                	push   %r12
    4642:	55                   	push   %rbp
    4643:	49 89 fc             	mov    %rdi,%r12
    4646:	53                   	push   %rbx
    4647:	bf 10 00 00 00       	mov    $0x10,%edi
    464c:	48 83 ec 10          	sub    $0x10,%rsp
    4650:	48 89 74 24 08       	mov    %rsi,0x8(%rsp)
    4655:	e8 26 39 00 00       	call   7f80 <sgx_ocalloc>
    465a:	48 85 c0             	test   %rax,%rax
    465d:	74 61                	je     46c0 <sgx_thread_set_untrusted_event_ocall+0x80>
    465f:	48 8d 54 24 08       	lea    0x8(%rsp),%rdx
    4664:	48 8d 78 08          	lea    0x8(%rax),%rdi
    4668:	b9 08 00 00 00       	mov    $0x8,%ecx
    466d:	be 08 00 00 00       	mov    $0x8,%esi
    4672:	48 89 c3             	mov    %rax,%rbx
    4675:	e8 96 aa 00 00       	call   f110 <memcpy_verw_s>
    467a:	85 c0                	test   %eax,%eax
    467c:	75 42                	jne    46c0 <sgx_thread_set_untrusted_event_ocall+0x80>
    467e:	48 89 de             	mov    %rbx,%rsi
    4681:	bf 0b 00 00 00       	mov    $0xb,%edi
    4686:	e8 65 51 00 00       	call   97f0 <sgx_ocall>
    468b:	4d 85 e4             	test   %r12,%r12
    468e:	89 c5                	mov    %eax,%ebp
    4690:	74 1d                	je     46af <sgx_thread_set_untrusted_event_ocall+0x6f>
    4692:	85 c0                	test   %eax,%eax
    4694:	75 19                	jne    46af <sgx_thread_set_untrusted_event_ocall+0x6f>
    4696:	b9 04 00 00 00       	mov    $0x4,%ecx
    469b:	48 89 da             	mov    %rbx,%rdx
    469e:	be 04 00 00 00       	mov    $0x4,%esi
    46a3:	4c 89 e7             	mov    %r12,%rdi
    46a6:	e8 e5 a9 00 00       	call   f090 <memcpy_s>
    46ab:	85 c0                	test   %eax,%eax
    46ad:	75 11                	jne    46c0 <sgx_thread_set_untrusted_event_ocall+0x80>
    46af:	e8 bc 39 00 00       	call   8070 <sgx_ocfree>
    46b4:	48 83 c4 10          	add    $0x10,%rsp
    46b8:	89 e8                	mov    %ebp,%eax
    46ba:	5b                   	pop    %rbx
    46bb:	5d                   	pop    %rbp
    46bc:	41 5c                	pop    %r12
    46be:	c3                   	ret    
    46bf:	90                   	nop
    46c0:	e8 ab 39 00 00       	call   8070 <sgx_ocfree>
    46c5:	48 83 c4 10          	add    $0x10,%rsp
    46c9:	b8 01 00 00 00       	mov    $0x1,%eax
    46ce:	5b                   	pop    %rbx
    46cf:	5d                   	pop    %rbp
    46d0:	41 5c                	pop    %r12
    46d2:	c3                   	ret    
    46d3:	66 2e 0f 1f 84 00 00 	cs nopw 0x0(%rax,%rax,1)
    46da:	00 00 00 
    46dd:	0f 1f 00             	nopl   (%rax)

00000000000046e0 <sgx_thread_setwait_untrusted_events_ocall>:
    46e0:	41 54                	push   %r12
    46e2:	55                   	push   %rbp
    46e3:	49 89 fc             	mov    %rdi,%r12
    46e6:	53                   	push   %rbx
    46e7:	bf 18 00 00 00       	mov    $0x18,%edi
    46ec:	48 83 ec 10          	sub    $0x10,%rsp
    46f0:	48 89 74 24 08       	mov    %rsi,0x8(%rsp)
    46f5:	48 89 14 24          	mov    %rdx,(%rsp)
    46f9:	e8 82 38 00 00       	call   7f80 <sgx_ocalloc>
    46fe:	48 85 c0             	test   %rax,%rax
    4701:	74 7d                	je     4780 <sgx_thread_setwait_untrusted_events_ocall+0xa0>
    4703:	48 8d 54 24 08       	lea    0x8(%rsp),%rdx
    4708:	48 8d 78 08          	lea    0x8(%rax),%rdi
    470c:	b9 08 00 00 00       	mov    $0x8,%ecx
    4711:	be 08 00 00 00       	mov    $0x8,%esi
    4716:	48 89 c3             	mov    %rax,%rbx
    4719:	e8 f2 a9 00 00       	call   f110 <memcpy_verw_s>
    471e:	85 c0                	test   %eax,%eax
    4720:	75 5e                	jne    4780 <sgx_thread_setwait_untrusted_events_ocall+0xa0>
    4722:	48 8d 7b 10          	lea    0x10(%rbx),%rdi
    4726:	48 89 e2             	mov    %rsp,%rdx
    4729:	b9 08 00 00 00       	mov    $0x8,%ecx
    472e:	be 08 00 00 00       	mov    $0x8,%esi
    4733:	e8 d8 a9 00 00       	call   f110 <memcpy_verw_s>
    4738:	85 c0                	test   %eax,%eax
    473a:	75 44                	jne    4780 <sgx_thread_setwait_untrusted_events_ocall+0xa0>
    473c:	48 89 de             	mov    %rbx,%rsi
    473f:	bf 0c 00 00 00       	mov    $0xc,%edi
    4744:	e8 a7 50 00 00       	call   97f0 <sgx_ocall>
    4749:	4d 85 e4             	test   %r12,%r12
    474c:	89 c5                	mov    %eax,%ebp
    474e:	74 1d                	je     476d <sgx_thread_setwait_untrusted_events_ocall+0x8d>
    4750:	85 c0                	test   %eax,%eax
    4752:	75 19                	jne    476d <sgx_thread_setwait_untrusted_events_ocall+0x8d>
    4754:	b9 04 00 00 00       	mov    $0x4,%ecx
    4759:	48 89 da             	mov    %rbx,%rdx
    475c:	be 04 00 00 00       	mov    $0x4,%esi
    4761:	4c 89 e7             	mov    %r12,%rdi
    4764:	e8 27 a9 00 00       	call   f090 <memcpy_s>
    4769:	85 c0                	test   %eax,%eax
    476b:	75 13                	jne    4780 <sgx_thread_setwait_untrusted_events_ocall+0xa0>
    476d:	e8 fe 38 00 00       	call   8070 <sgx_ocfree>
    4772:	48 83 c4 10          	add    $0x10,%rsp
    4776:	89 e8                	mov    %ebp,%eax
    4778:	5b                   	pop    %rbx
    4779:	5d                   	pop    %rbp
    477a:	41 5c                	pop    %r12
    477c:	c3                   	ret    
    477d:	0f 1f 00             	nopl   (%rax)
    4780:	e8 eb 38 00 00       	call   8070 <sgx_ocfree>
    4785:	48 83 c4 10          	add    $0x10,%rsp
    4789:	b8 01 00 00 00       	mov    $0x1,%eax
    478e:	5b                   	pop    %rbx
    478f:	5d                   	pop    %rbp
    4790:	41 5c                	pop    %r12
    4792:	c3                   	ret    
    4793:	66 2e 0f 1f 84 00 00 	cs nopw 0x0(%rax,%rax,1)
    479a:	00 00 00 
    479d:	0f 1f 00             	nopl   (%rax)

00000000000047a0 <_Z17write_block_sizesiR5Table>:
    47a0:	41 57                	push   %r15
    47a2:	41 56                	push   %r14
    47a4:	41 55                	push   %r13
    47a6:	41 54                	push   %r12
    47a8:	55                   	push   %rbp
    47a9:	53                   	push   %rbx
    47aa:	48 83 ec 48          	sub    $0x48,%rsp
    47ae:	85 ff                	test   %edi,%edi
    47b0:	0f 8e 6a 05 00 00    	jle    4d20 <_Z17write_block_sizesiR5Table+0x580>
    47b6:	89 f8                	mov    %edi,%eax
    47b8:	49 89 f6             	mov    %rsi,%r14
    47bb:	89 7c 24 3c          	mov    %edi,0x3c(%rsp)
    47bf:	83 e8 01             	sub    $0x1,%eax
    47c2:	45 31 e4             	xor    %r12d,%r12d
    47c5:	45 31 ff             	xor    %r15d,%r15d
    47c8:	89 44 24 30          	mov    %eax,0x30(%rsp)
    47cc:	48 83 c0 01          	add    $0x1,%rax
    47d0:	48 89 44 24 28       	mov    %rax,0x28(%rsp)
    47d5:	b8 00 00 00 80       	mov    $0x80000000,%eax
    47da:	66 0f 1f 44 00 00    	nopw   0x0(%rax,%rax,1)
    47e0:	45 85 e4             	test   %r12d,%r12d
    47e3:	44 89 24 24          	mov    %r12d,(%rsp)
    47e7:	78 06                	js     47ef <_Z17write_block_sizesiR5Table+0x4f>
    47e9:	45 39 66 2c          	cmp    %r12d,0x2c(%r14)
    47ed:	7f 25                	jg     4814 <_Z17write_block_sizesiR5Table+0x74>
    47ef:	48 8d 0d f2 c9 01 00 	lea    0x1c9f2(%rip),%rcx        # 211e8 <g_dyn_entry_table+0x1e8>
    47f6:	48 8d 15 df ca 01 00 	lea    0x1cadf(%rip),%rdx        # 212dc <_ZZN8TraceMemIN5Table10TableEntryEE4readEiE8__func__>
    47fd:	48 8d 3d f7 c9 01 00 	lea    0x1c9f7(%rip),%rdi        # 211fb <g_dyn_entry_table+0x1fb>
    4804:	be 3b 00 00 00       	mov    $0x3b,%esi
    4809:	89 04 24             	mov    %eax,(%rsp)
    480c:	e8 5f 63 00 00       	call   ab70 <__assert>
    4811:	8b 04 24             	mov    (%rsp),%eax
    4814:	4d 8b 2e             	mov    (%r14),%r13
    4817:	4c 89 e3             	mov    %r12,%rbx
    481a:	45 8d 4f 01          	lea    0x1(%r15),%r9d
    481e:	48 c1 e3 05          	shl    $0x5,%rbx
    4822:	48 89 5c 24 20       	mov    %rbx,0x20(%rsp)
    4827:	49 8d 54 1d 00       	lea    0x0(%r13,%rbx,1),%rdx
    482c:	8b 3a                	mov    (%rdx),%edi
    482e:	8b 5a 08             	mov    0x8(%rdx),%ebx
    4831:	8b 4a 0c             	mov    0xc(%rdx),%ecx
    4834:	8b 6a 04             	mov    0x4(%rdx),%ebp
    4837:	8b 72 18             	mov    0x18(%rdx),%esi
    483a:	89 3c 24             	mov    %edi,(%rsp)
    483d:	8b 7a 14             	mov    0x14(%rdx),%edi
    4840:	39 c3                	cmp    %eax,%ebx
    4842:	89 4c 24 10          	mov    %ecx,0x10(%rsp)
    4846:	8b 4a 1c             	mov    0x1c(%rdx),%ecx
    4849:	41 0f 94 c3          	sete   %r11b
    484d:	85 ed                	test   %ebp,%ebp
    484f:	89 74 24 18          	mov    %esi,0x18(%rsp)
    4853:	89 7c 24 1c          	mov    %edi,0x1c(%rsp)
    4857:	40 0f 94 c7          	sete   %dil
    485b:	39 c3                	cmp    %eax,%ebx
    485d:	0f 95 c0             	setne  %al
    4860:	89 4c 24 0c          	mov    %ecx,0xc(%rsp)
    4864:	89 f9                	mov    %edi,%ecx
    4866:	21 c1                	and    %eax,%ecx
    4868:	44 21 df             	and    %r11d,%edi
    486b:	44 0f b6 c1          	movzbl %cl,%r8d
    486f:	44 0f b6 d7          	movzbl %dil,%r10d
    4873:	83 f1 01             	xor    $0x1,%ecx
    4876:	83 f7 01             	xor    $0x1,%edi
    4879:	83 fd 01             	cmp    $0x1,%ebp
    487c:	0f b6 c9             	movzbl %cl,%ecx
    487f:	40 0f 94 c6          	sete   %sil
    4883:	40 0f b6 ff          	movzbl %dil,%edi
    4887:	21 f0                	and    %esi,%eax
    4889:	44 21 de             	and    %r11d,%esi
    488c:	83 f0 01             	xor    $0x1,%eax
    488f:	0f b6 c0             	movzbl %al,%eax
    4892:	44 0f af f8          	imul   %eax,%r15d
    4896:	45 0f af ca          	imul   %r10d,%r9d
    489a:	44 0f af 52 10       	imul   0x10(%rdx),%r10d
    489f:	44 0f af ff          	imul   %edi,%r15d
    48a3:	45 01 cf             	add    %r9d,%r15d
    48a6:	41 89 f1             	mov    %esi,%r9d
    48a9:	40 0f b6 f6          	movzbl %sil,%esi
    48ad:	44 0f af f9          	imul   %ecx,%r15d
    48b1:	41 83 f1 01          	xor    $0x1,%r9d
    48b5:	45 0f b6 c9          	movzbl %r9b,%r9d
    48b9:	44 0f af 4a 10       	imul   0x10(%rdx),%r9d
    48be:	45 01 c7             	add    %r8d,%r15d
    48c1:	41 0f af f7          	imul   %r15d,%esi
    48c5:	44 0f af 42 10       	imul   0x10(%rdx),%r8d
    48ca:	44 01 ce             	add    %r9d,%esi
    48cd:	0f af f0             	imul   %eax,%esi
    48d0:	0f af f7             	imul   %edi,%esi
    48d3:	44 01 d6             	add    %r10d,%esi
    48d6:	0f af f1             	imul   %ecx,%esi
    48d9:	41 01 f0             	add    %esi,%r8d
    48dc:	45 85 e4             	test   %r12d,%r12d
    48df:	78 06                	js     48e7 <_Z17write_block_sizesiR5Table+0x147>
    48e1:	45 39 66 2c          	cmp    %r12d,0x2c(%r14)
    48e5:	7f 34                	jg     491b <_Z17write_block_sizesiR5Table+0x17b>
    48e7:	48 8d 15 e8 c9 01 00 	lea    0x1c9e8(%rip),%rdx        # 212d6 <_ZZN8TraceMemIN5Table10TableEntryEE5writeEiS1_E8__func__>
    48ee:	48 8d 0d f3 c8 01 00 	lea    0x1c8f3(%rip),%rcx        # 211e8 <g_dyn_entry_table+0x1e8>
    48f5:	48 8d 3d ff c8 01 00 	lea    0x1c8ff(%rip),%rdi        # 211fb <g_dyn_entry_table+0x1fb>
    48fc:	be 48 00 00 00       	mov    $0x48,%esi
    4901:	44 89 44 24 38       	mov    %r8d,0x38(%rsp)
    4906:	e8 65 62 00 00       	call   ab70 <__assert>
    490b:	4d 8b 2e             	mov    (%r14),%r13
    490e:	48 8b 54 24 20       	mov    0x20(%rsp),%rdx
    4913:	44 8b 44 24 38       	mov    0x38(%rsp),%r8d
    4918:	4c 01 ea             	add    %r13,%rdx
    491b:	8b 04 24             	mov    (%rsp),%eax
    491e:	49 83 c4 01          	add    $0x1,%r12
    4922:	4c 39 64 24 28       	cmp    %r12,0x28(%rsp)
    4927:	89 6a 04             	mov    %ebp,0x4(%rdx)
    492a:	89 5a 08             	mov    %ebx,0x8(%rdx)
    492d:	44 89 42 10          	mov    %r8d,0x10(%rdx)
    4931:	89 02                	mov    %eax,(%rdx)
    4933:	8b 44 24 10          	mov    0x10(%rsp),%eax
    4937:	89 42 0c             	mov    %eax,0xc(%rdx)
    493a:	8b 44 24 1c          	mov    0x1c(%rsp),%eax
    493e:	89 42 14             	mov    %eax,0x14(%rdx)
    4941:	8b 44 24 18          	mov    0x18(%rsp),%eax
    4945:	89 42 18             	mov    %eax,0x18(%rdx)
    4948:	8b 44 24 0c          	mov    0xc(%rsp),%eax
    494c:	89 42 1c             	mov    %eax,0x1c(%rdx)
    494f:	89 d8                	mov    %ebx,%eax
    4951:	0f 85 89 fe ff ff    	jne    47e0 <_Z17write_block_sizesiR5Table+0x40>
    4957:	8b 44 24 30          	mov    0x30(%rsp),%eax
    495b:	4c 89 6c 24 10       	mov    %r13,0x10(%rsp)
    4960:	41 bf 00 00 00 80    	mov    $0x80000000,%r15d
    4966:	45 31 e4             	xor    %r12d,%r12d
    4969:	4c 89 74 24 28       	mov    %r14,0x28(%rsp)
    496e:	89 c5                	mov    %eax,%ebp
    4970:	48 98                	cltq   
    4972:	48 c1 e0 05          	shl    $0x5,%rax
    4976:	48 89 04 24          	mov    %rax,(%rsp)
    497a:	31 c0                	xor    %eax,%eax
    497c:	41 89 c5             	mov    %eax,%r13d
    497f:	90                   	nop
    4980:	48 8b 5c 24 28       	mov    0x28(%rsp),%rbx
    4985:	8b 43 2c             	mov    0x2c(%rbx),%eax
    4988:	39 e8                	cmp    %ebp,%eax
    498a:	89 44 24 0c          	mov    %eax,0xc(%rsp)
    498e:	7f 2e                	jg     49be <_Z17write_block_sizesiR5Table+0x21e>
    4990:	48 8d 0d 51 c8 01 00 	lea    0x1c851(%rip),%rcx        # 211e8 <g_dyn_entry_table+0x1e8>
    4997:	48 8d 15 3e c9 01 00 	lea    0x1c93e(%rip),%rdx        # 212dc <_ZZN8TraceMemIN5Table10TableEntryEE4readEiE8__func__>
    499e:	48 8d 3d 56 c8 01 00 	lea    0x1c856(%rip),%rdi        # 211fb <g_dyn_entry_table+0x1fb>
    49a5:	be 3b 00 00 00       	mov    $0x3b,%esi
    49aa:	e8 c1 61 00 00       	call   ab70 <__assert>
    49af:	8b 73 2c             	mov    0x2c(%rbx),%esi
    49b2:	48 8b 03             	mov    (%rbx),%rax
    49b5:	89 74 24 0c          	mov    %esi,0xc(%rsp)
    49b9:	48 89 44 24 10       	mov    %rax,0x10(%rsp)
    49be:	48 8b 44 24 10       	mov    0x10(%rsp),%rax
    49c3:	48 03 04 24          	add    (%rsp),%rax
    49c7:	8b 48 0c             	mov    0xc(%rax),%ecx
    49ca:	8b 58 08             	mov    0x8(%rax),%ebx
    49cd:	44 8b 70 04          	mov    0x4(%rax),%r14d
    49d1:	8b 38                	mov    (%rax),%edi
    49d3:	89 4c 24 18          	mov    %ecx,0x18(%rsp)
    49d7:	8b 48 1c             	mov    0x1c(%rax),%ecx
    49da:	44 39 fb             	cmp    %r15d,%ebx
    49dd:	0f 94 c2             	sete   %dl
    49e0:	45 85 f6             	test   %r14d,%r14d
    49e3:	89 7c 24 1c          	mov    %edi,0x1c(%rsp)
    49e7:	8b 78 18             	mov    0x18(%rax),%edi
    49ea:	89 4c 24 20          	mov    %ecx,0x20(%rsp)
    49ee:	0f 94 c1             	sete   %cl
    49f1:	44 39 fb             	cmp    %r15d,%ebx
    49f4:	40 0f 95 c6          	setne  %sil
    49f8:	41 89 c8             	mov    %ecx,%r8d
    49fb:	21 d1                	and    %edx,%ecx
    49fd:	41 21 f0             	and    %esi,%r8d
    4a00:	44 0f b6 d1          	movzbl %cl,%r10d
    4a04:	83 f1 01             	xor    $0x1,%ecx
    4a07:	41 83 f0 01          	xor    $0x1,%r8d
    4a0b:	41 83 fe 01          	cmp    $0x1,%r14d
    4a0f:	89 7c 24 38          	mov    %edi,0x38(%rsp)
    4a13:	40 0f 94 c7          	sete   %dil
    4a17:	45 8d 7c 24 01       	lea    0x1(%r12),%r15d
    4a1c:	0f b6 c9             	movzbl %cl,%ecx
    4a1f:	21 fa                	and    %edi,%edx
    4a21:	21 fe                	and    %edi,%esi
    4a23:	45 0f b6 c0          	movzbl %r8b,%r8d
    4a27:	44 0f b6 da          	movzbl %dl,%r11d
    4a2b:	83 f2 01             	xor    $0x1,%edx
    4a2e:	44 0f b6 ce          	movzbl %sil,%r9d
    4a32:	0f b6 d2             	movzbl %dl,%edx
    4a35:	83 f6 01             	xor    $0x1,%esi
    4a38:	89 d7                	mov    %edx,%edi
    4a3a:	40 0f b6 f6          	movzbl %sil,%esi
    4a3e:	45 0f af fb          	imul   %r11d,%r15d
    4a42:	41 0f af fc          	imul   %r12d,%edi
    4a46:	44 0f af 58 10       	imul   0x10(%rax),%r11d
    4a4b:	44 01 ff             	add    %r15d,%edi
    4a4e:	44 8b 78 14          	mov    0x14(%rax),%r15d
    4a52:	0f af fe             	imul   %esi,%edi
    4a55:	41 0f af d5          	imul   %r13d,%edx
    4a59:	44 01 cf             	add    %r9d,%edi
    4a5c:	44 0f af 48 10       	imul   0x10(%rax),%r9d
    4a61:	41 01 d3             	add    %edx,%r11d
    4a64:	44 89 d2             	mov    %r10d,%edx
    4a67:	44 0f af de          	imul   %esi,%r11d
    4a6b:	0f af f9             	imul   %ecx,%edi
    4a6e:	45 01 cb             	add    %r9d,%r11d
    4a71:	45 89 e9             	mov    %r13d,%r9d
    4a74:	45 0f af e2          	imul   %r10d,%r12d
    4a78:	44 0f af d9          	imul   %ecx,%r11d
    4a7c:	41 01 fc             	add    %edi,%r12d
    4a7f:	45 0f af ca          	imul   %r10d,%r9d
    4a83:	45 0f af e0          	imul   %r8d,%r12d
    4a87:	45 01 cb             	add    %r9d,%r11d
    4a8a:	45 0f af d8          	imul   %r8d,%r11d
    4a8e:	44 0f af f9          	imul   %ecx,%r15d
    4a92:	0f af 48 10          	imul   0x10(%rax),%ecx
    4a96:	45 89 dd             	mov    %r11d,%r13d
    4a99:	41 0f af d4          	imul   %r12d,%edx
    4a9d:	45 0f af d3          	imul   %r11d,%r10d
    4aa1:	41 01 d7             	add    %edx,%r15d
    4aa4:	45 0f af f8          	imul   %r8d,%r15d
    4aa8:	41 01 ca             	add    %ecx,%r10d
    4aab:	45 0f af c2          	imul   %r10d,%r8d
    4aaf:	3b 6c 24 0c          	cmp    0xc(%rsp),%ebp
    4ab3:	7c 3a                	jl     4aef <_Z17write_block_sizesiR5Table+0x34f>
    4ab5:	48 8d 0d 2c c7 01 00 	lea    0x1c72c(%rip),%rcx        # 211e8 <g_dyn_entry_table+0x1e8>
    4abc:	48 8d 15 13 c8 01 00 	lea    0x1c813(%rip),%rdx        # 212d6 <_ZZN8TraceMemIN5Table10TableEntryEE5writeEiS1_E8__func__>
    4ac3:	48 8d 3d 31 c7 01 00 	lea    0x1c731(%rip),%rdi        # 211fb <g_dyn_entry_table+0x1fb>
    4aca:	be 48 00 00 00       	mov    $0x48,%esi
    4acf:	44 89 44 24 0c       	mov    %r8d,0xc(%rsp)
    4ad4:	e8 97 60 00 00       	call   ab70 <__assert>
    4ad9:	48 8b 44 24 28       	mov    0x28(%rsp),%rax
    4ade:	44 8b 44 24 0c       	mov    0xc(%rsp),%r8d
    4ae3:	48 8b 00             	mov    (%rax),%rax
    4ae6:	48 89 44 24 10       	mov    %rax,0x10(%rsp)
    4aeb:	48 03 04 24          	add    (%rsp),%rax
    4aef:	8b 74 24 1c          	mov    0x1c(%rsp),%esi
    4af3:	8b 4c 24 20          	mov    0x20(%rsp),%ecx
    4af7:	83 ed 01             	sub    $0x1,%ebp
    4afa:	48 83 2c 24 20       	subq   $0x20,(%rsp)
    4aff:	83 fd ff             	cmp    $0xffffffff,%ebp
    4b02:	44 89 78 14          	mov    %r15d,0x14(%rax)
    4b06:	44 89 70 04          	mov    %r14d,0x4(%rax)
    4b0a:	89 58 08             	mov    %ebx,0x8(%rax)
    4b0d:	41 89 df             	mov    %ebx,%r15d
    4b10:	89 30                	mov    %esi,(%rax)
    4b12:	8b 74 24 18          	mov    0x18(%rsp),%esi
    4b16:	44 89 40 10          	mov    %r8d,0x10(%rax)
    4b1a:	89 48 1c             	mov    %ecx,0x1c(%rax)
    4b1d:	89 70 0c             	mov    %esi,0xc(%rax)
    4b20:	8b 74 24 38          	mov    0x38(%rsp),%esi
    4b24:	89 70 18             	mov    %esi,0x18(%rax)
    4b27:	0f 85 53 fe ff ff    	jne    4980 <_Z17write_block_sizesiR5Table+0x1e0>
    4b2d:	8b 44 24 3c          	mov    0x3c(%rsp),%eax
    4b31:	4c 8b 6c 24 10       	mov    0x10(%rsp),%r13
    4b36:	4c 8b 74 24 28       	mov    0x28(%rsp),%r14
    4b3b:	85 c0                	test   %eax,%eax
    4b3d:	0f 8e dd 01 00 00    	jle    4d20 <_Z17write_block_sizesiR5Table+0x580>
    4b43:	8b 44 24 30          	mov    0x30(%rsp),%eax
    4b47:	45 31 ff             	xor    %r15d,%r15d
    4b4a:	c7 04 24 00 00 00 00 	movl   $0x0,(%rsp)
    4b51:	c7 44 24 0c 00 00 00 	movl   $0x0,0xc(%rsp)
    4b58:	00 
    4b59:	48 83 c0 01          	add    $0x1,%rax
    4b5d:	48 89 44 24 30       	mov    %rax,0x30(%rsp)
    4b62:	b8 00 00 00 80       	mov    $0x80000000,%eax
    4b67:	66 0f 1f 84 00 00 00 	nopw   0x0(%rax,%rax,1)
    4b6e:	00 00 
    4b70:	45 85 ff             	test   %r15d,%r15d
    4b73:	44 89 7c 24 10       	mov    %r15d,0x10(%rsp)
    4b78:	78 06                	js     4b80 <_Z17write_block_sizesiR5Table+0x3e0>
    4b7a:	45 39 7e 2c          	cmp    %r15d,0x2c(%r14)
    4b7e:	7f 2a                	jg     4baa <_Z17write_block_sizesiR5Table+0x40a>
    4b80:	48 8d 0d 61 c6 01 00 	lea    0x1c661(%rip),%rcx        # 211e8 <g_dyn_entry_table+0x1e8>
    4b87:	48 8d 15 4e c7 01 00 	lea    0x1c74e(%rip),%rdx        # 212dc <_ZZN8TraceMemIN5Table10TableEntryEE4readEiE8__func__>
    4b8e:	48 8d 3d 66 c6 01 00 	lea    0x1c666(%rip),%rdi        # 211fb <g_dyn_entry_table+0x1fb>
    4b95:	be 3b 00 00 00       	mov    $0x3b,%esi
    4b9a:	89 44 24 10          	mov    %eax,0x10(%rsp)
    4b9e:	e8 cd 5f 00 00       	call   ab70 <__assert>
    4ba3:	4d 8b 2e             	mov    (%r14),%r13
    4ba6:	8b 44 24 10          	mov    0x10(%rsp),%eax
    4baa:	4c 89 ff             	mov    %r15,%rdi
    4bad:	48 c1 e7 05          	shl    $0x5,%rdi
    4bb1:	49 8d 54 3d 00       	lea    0x0(%r13,%rdi,1),%rdx
    4bb6:	48 89 7c 24 28       	mov    %rdi,0x28(%rsp)
    4bbb:	8b 1a                	mov    (%rdx),%ebx
    4bbd:	8b 6a 08             	mov    0x8(%rdx),%ebp
    4bc0:	44 8b 62 04          	mov    0x4(%rdx),%r12d
    4bc4:	8b 7a 14             	mov    0x14(%rdx),%edi
    4bc7:	89 5c 24 10          	mov    %ebx,0x10(%rsp)
    4bcb:	8b 5a 0c             	mov    0xc(%rdx),%ebx
    4bce:	39 e8                	cmp    %ebp,%eax
    4bd0:	89 5c 24 18          	mov    %ebx,0x18(%rsp)
    4bd4:	8b 5a 10             	mov    0x10(%rdx),%ebx
    4bd7:	41 89 db             	mov    %ebx,%r11d
    4bda:	89 5c 24 1c          	mov    %ebx,0x1c(%rsp)
    4bde:	8b 5a 18             	mov    0x18(%rdx),%ebx
    4be1:	89 5c 24 20          	mov    %ebx,0x20(%rsp)
    4be5:	8b 5a 1c             	mov    0x1c(%rdx),%ebx
    4be8:	89 5c 24 38          	mov    %ebx,0x38(%rsp)
    4bec:	0f 94 c3             	sete   %bl
    4bef:	45 85 e4             	test   %r12d,%r12d
    4bf2:	40 0f 94 c6          	sete   %sil
    4bf6:	39 e8                	cmp    %ebp,%eax
    4bf8:	44 89 d8             	mov    %r11d,%eax
    4bfb:	0f 95 c1             	setne  %cl
    4bfe:	44 8b 5c 24 0c       	mov    0xc(%rsp),%r11d
    4c03:	41 89 f1             	mov    %esi,%r9d
    4c06:	0f af c7             	imul   %edi,%eax
    4c09:	41 21 c9             	and    %ecx,%r9d
    4c0c:	21 de                	and    %ebx,%esi
    4c0e:	45 0f b6 d1          	movzbl %r9b,%r10d
    4c12:	41 83 f1 01          	xor    $0x1,%r9d
    4c16:	45 0f b6 c9          	movzbl %r9b,%r9d
    4c1a:	45 89 d8             	mov    %r11d,%r8d
    4c1d:	44 01 d8             	add    %r11d,%eax
    4c20:	45 89 d3             	mov    %r10d,%r11d
    4c23:	41 0f af c2          	imul   %r10d,%eax
    4c27:	45 0f af c1          	imul   %r9d,%r8d
    4c2b:	44 0f af df          	imul   %edi,%r11d
    4c2f:	44 01 c0             	add    %r8d,%eax
    4c32:	44 0f b6 c6          	movzbl %sil,%r8d
    4c36:	83 f6 01             	xor    $0x1,%esi
    4c39:	41 83 fc 01          	cmp    $0x1,%r12d
    4c3d:	89 44 24 0c          	mov    %eax,0xc(%rsp)
    4c41:	0f 94 c0             	sete   %al
    4c44:	40 0f b6 f6          	movzbl %sil,%esi
    4c48:	21 c1                	and    %eax,%ecx
    4c4a:	21 d8                	and    %ebx,%eax
    4c4c:	89 c3                	mov    %eax,%ebx
    4c4e:	0f b6 c0             	movzbl %al,%eax
    4c51:	83 f1 01             	xor    $0x1,%ecx
    4c54:	0f af 04 24          	imul   (%rsp),%eax
    4c58:	83 f3 01             	xor    $0x1,%ebx
    4c5b:	0f b6 c9             	movzbl %cl,%ecx
    4c5e:	0f b6 db             	movzbl %bl,%ebx
    4c61:	0f af df             	imul   %edi,%ebx
    4c64:	41 0f af f8          	imul   %r8d,%edi
    4c68:	01 c3                	add    %eax,%ebx
    4c6a:	0f af d9             	imul   %ecx,%ebx
    4c6d:	0f af 0c 24          	imul   (%rsp),%ecx
    4c71:	0f af de             	imul   %esi,%ebx
    4c74:	01 fb                	add    %edi,%ebx
    4c76:	41 0f af d9          	imul   %r9d,%ebx
    4c7a:	0f af ce             	imul   %esi,%ecx
    4c7d:	44 01 db             	add    %r11d,%ebx
    4c80:	44 0f af c3          	imul   %ebx,%r8d
    4c84:	44 0f af d3          	imul   %ebx,%r10d
    4c88:	44 01 c1             	add    %r8d,%ecx
    4c8b:	41 0f af c9          	imul   %r9d,%ecx
    4c8f:	45 85 ff             	test   %r15d,%r15d
    4c92:	41 8d 04 0a          	lea    (%r10,%rcx,1),%eax
    4c96:	89 04 24             	mov    %eax,(%rsp)
    4c99:	78 06                	js     4ca1 <_Z17write_block_sizesiR5Table+0x501>
    4c9b:	45 39 7e 2c          	cmp    %r15d,0x2c(%r14)
    4c9f:	7f 2a                	jg     4ccb <_Z17write_block_sizesiR5Table+0x52b>
    4ca1:	48 8d 15 2e c6 01 00 	lea    0x1c62e(%rip),%rdx        # 212d6 <_ZZN8TraceMemIN5Table10TableEntryEE5writeEiS1_E8__func__>
    4ca8:	48 8d 0d 39 c5 01 00 	lea    0x1c539(%rip),%rcx        # 211e8 <g_dyn_entry_table+0x1e8>
    4caf:	48 8d 3d 45 c5 01 00 	lea    0x1c545(%rip),%rdi        # 211fb <g_dyn_entry_table+0x1fb>
    4cb6:	be 48 00 00 00       	mov    $0x48,%esi
    4cbb:	e8 b0 5e 00 00       	call   ab70 <__assert>
    4cc0:	4d 8b 2e             	mov    (%r14),%r13
    4cc3:	48 8b 54 24 28       	mov    0x28(%rsp),%rdx
    4cc8:	4c 01 ea             	add    %r13,%rdx
    4ccb:	8b 44 24 10          	mov    0x10(%rsp),%eax
    4ccf:	49 83 c7 01          	add    $0x1,%r15
    4cd3:	4c 3b 7c 24 30       	cmp    0x30(%rsp),%r15
    4cd8:	44 89 62 04          	mov    %r12d,0x4(%rdx)
    4cdc:	89 6a 08             	mov    %ebp,0x8(%rdx)
    4cdf:	89 5a 14             	mov    %ebx,0x14(%rdx)
    4ce2:	89 02                	mov    %eax,(%rdx)
    4ce4:	8b 44 24 18          	mov    0x18(%rsp),%eax
    4ce8:	89 42 0c             	mov    %eax,0xc(%rdx)
    4ceb:	8b 44 24 1c          	mov    0x1c(%rsp),%eax
    4cef:	89 42 10             	mov    %eax,0x10(%rdx)
    4cf2:	8b 44 24 20          	mov    0x20(%rsp),%eax
    4cf6:	89 42 18             	mov    %eax,0x18(%rdx)
    4cf9:	8b 44 24 38          	mov    0x38(%rsp),%eax
    4cfd:	89 42 1c             	mov    %eax,0x1c(%rdx)
    4d00:	89 e8                	mov    %ebp,%eax
    4d02:	0f 85 68 fe ff ff    	jne    4b70 <_Z17write_block_sizesiR5Table+0x3d0>
    4d08:	8b 44 24 0c          	mov    0xc(%rsp),%eax
    4d0c:	48 83 c4 48          	add    $0x48,%rsp
    4d10:	5b                   	pop    %rbx
    4d11:	5d                   	pop    %rbp
    4d12:	41 5c                	pop    %r12
    4d14:	41 5d                	pop    %r13
    4d16:	41 5e                	pop    %r14
    4d18:	41 5f                	pop    %r15
    4d1a:	c3                   	ret    
    4d1b:	0f 1f 44 00 00       	nopl   0x0(%rax,%rax,1)
    4d20:	c7 44 24 0c 00 00 00 	movl   $0x0,0xc(%rsp)
    4d27:	00 
    4d28:	eb de                	jmp    4d08 <_Z17write_block_sizesiR5Table+0x568>
    4d2a:	66 0f 1f 44 00 00    	nopw   0x0(%rax,%rax,1)

0000000000004d30 <_Z7reversePc>:
    4d30:	53                   	push   %rbx
    4d31:	48 89 fb             	mov    %rdi,%rbx
    4d34:	e8 d7 9c 00 00       	call   ea10 <strlen>
    4d39:	41 89 c0             	mov    %eax,%r8d
    4d3c:	83 e8 01             	sub    $0x1,%eax
    4d3f:	85 c0                	test   %eax,%eax
    4d41:	7e 30                	jle    4d73 <_Z7reversePc+0x43>
    4d43:	48 98                	cltq   
    4d45:	48 89 df             	mov    %rbx,%rdi
    4d48:	31 d2                	xor    %edx,%edx
    4d4a:	48 01 d8             	add    %rbx,%rax
    4d4d:	0f 1f 00             	nopl   (%rax)
    4d50:	0f b6 0f             	movzbl (%rdi),%ecx
    4d53:	0f b6 30             	movzbl (%rax),%esi
    4d56:	83 c2 01             	add    $0x1,%edx
    4d59:	48 83 c7 01          	add    $0x1,%rdi
    4d5d:	48 83 e8 01          	sub    $0x1,%rax
    4d61:	40 88 77 ff          	mov    %sil,-0x1(%rdi)
    4d65:	88 48 01             	mov    %cl,0x1(%rax)
    4d68:	89 d1                	mov    %edx,%ecx
    4d6a:	f7 d1                	not    %ecx
    4d6c:	44 01 c1             	add    %r8d,%ecx
    4d6f:	39 ca                	cmp    %ecx,%edx
    4d71:	7c dd                	jl     4d50 <_Z7reversePc+0x20>
    4d73:	5b                   	pop    %rbx
    4d74:	c3                   	ret    
    4d75:	66 2e 0f 1f 84 00 00 	cs nopw 0x0(%rax,%rax,1)
    4d7c:	00 00 00 
    4d7f:	90                   	nop

0000000000004d80 <_Z4itoaiPcPi>:
    4d80:	89 f8                	mov    %edi,%eax
    4d82:	53                   	push   %rbx
    4d83:	49 89 f0             	mov    %rsi,%r8
    4d86:	c1 f8 1f             	sar    $0x1f,%eax
    4d89:	48 89 d3             	mov    %rdx,%rbx
    4d8c:	45 31 d2             	xor    %r10d,%r10d
    4d8f:	89 c1                	mov    %eax,%ecx
    4d91:	41 bb 67 66 66 66    	mov    $0x66666667,%r11d
    4d97:	31 f9                	xor    %edi,%ecx
    4d99:	29 c1                	sub    %eax,%ecx
    4d9b:	eb 06                	jmp    4da3 <_Z4itoaiPcPi+0x23>
    4d9d:	0f 1f 00             	nopl   (%rax)
    4da0:	45 89 ca             	mov    %r9d,%r10d
    4da3:	89 c8                	mov    %ecx,%eax
    4da5:	49 83 c0 01          	add    $0x1,%r8
    4da9:	45 8d 4a 01          	lea    0x1(%r10),%r9d
    4dad:	41 f7 eb             	imul   %r11d
    4db0:	89 c8                	mov    %ecx,%eax
    4db2:	c1 f8 1f             	sar    $0x1f,%eax
    4db5:	c1 fa 02             	sar    $0x2,%edx
    4db8:	29 c2                	sub    %eax,%edx
    4dba:	8d 04 92             	lea    (%rdx,%rdx,4),%eax
    4dbd:	01 c0                	add    %eax,%eax
    4dbf:	29 c1                	sub    %eax,%ecx
    4dc1:	83 c1 30             	add    $0x30,%ecx
    4dc4:	41 88 48 ff          	mov    %cl,-0x1(%r8)
    4dc8:	85 d2                	test   %edx,%edx
    4dca:	89 d1                	mov    %edx,%ecx
    4dcc:	75 d2                	jne    4da0 <_Z4itoaiPcPi+0x20>
    4dce:	85 ff                	test   %edi,%edi
    4dd0:	79 0c                	jns    4dde <_Z4itoaiPcPi+0x5e>
    4dd2:	4d 63 c9             	movslq %r9d,%r9
    4dd5:	42 c6 04 0e 2d       	movb   $0x2d,(%rsi,%r9,1)
    4dda:	45 8d 4a 02          	lea    0x2(%r10),%r9d
    4dde:	49 63 c1             	movslq %r9d,%rax
    4de1:	48 89 f7             	mov    %rsi,%rdi
    4de4:	c6 04 06 00          	movb   $0x0,(%rsi,%rax,1)
    4de8:	44 89 0b             	mov    %r9d,(%rbx)
    4deb:	5b                   	pop    %rbx
    4dec:	e9 3f ff ff ff       	jmp    4d30 <_Z7reversePc>
    4df1:	66 2e 0f 1f 84 00 00 	cs nopw 0x0(%rax,%rax,1)
    4df8:	00 00 00 
    4dfb:	0f 1f 44 00 00       	nopl   0x0(%rax,%rax,1)

0000000000004e00 <_Z8toStringPc5TableS0_>:
    4e00:	41 57                	push   %r15
    4e02:	41 56                	push   %r14
    4e04:	41 55                	push   %r13
    4e06:	41 54                	push   %r12
    4e08:	55                   	push   %rbp
    4e09:	53                   	push   %rbx
    4e0a:	48 89 fb             	mov    %rdi,%rbx
    4e0d:	48 83 ec 68          	sub    $0x68,%rsp
    4e11:	64 48 8b 04 25 28 00 	mov    %fs:0x28,%rax
    4e18:	00 00 
    4e1a:	48 89 44 24 58       	mov    %rax,0x58(%rsp)
    4e1f:	31 c0                	xor    %eax,%eax
    4e21:	8b 46 2c             	mov    0x2c(%rsi),%eax
    4e24:	85 c0                	test   %eax,%eax
    4e26:	89 44 24 0c          	mov    %eax,0xc(%rsp)
    4e2a:	0f 8e 30 01 00 00    	jle    4f60 <_Z8toStringPc5TableS0_+0x160>
    4e30:	48 8d 44 24 28       	lea    0x28(%rsp),%rax
    4e35:	49 89 f5             	mov    %rsi,%r13
    4e38:	49 89 d7             	mov    %rdx,%r15
    4e3b:	31 ed                	xor    %ebp,%ebp
    4e3d:	4c 8d 64 24 30       	lea    0x30(%rsp),%r12
    4e42:	48 89 44 24 10       	mov    %rax,0x10(%rsp)
    4e47:	48 8d 44 24 2c       	lea    0x2c(%rsp),%rax
    4e4c:	48 89 44 24 18       	mov    %rax,0x18(%rsp)
    4e51:	48 8d 44 24 40       	lea    0x40(%rsp),%rax
    4e56:	48 89 04 24          	mov    %rax,(%rsp)
    4e5a:	e9 d7 00 00 00       	jmp    4f36 <_Z8toStringPc5TableS0_+0x136>
    4e5f:	90                   	nop
    4e60:	48 8d 15 75 c4 01 00 	lea    0x1c475(%rip),%rdx        # 212dc <_ZZN8TraceMemIN5Table10TableEntryEE4readEiE8__func__>
    4e67:	48 8d 0d 7a c3 01 00 	lea    0x1c37a(%rip),%rcx        # 211e8 <g_dyn_entry_table+0x1e8>
    4e6e:	48 8d 3d 86 c3 01 00 	lea    0x1c386(%rip),%rdi        # 211fb <g_dyn_entry_table+0x1fb>
    4e75:	be 3b 00 00 00       	mov    $0x3b,%esi
    4e7a:	89 6c 24 08          	mov    %ebp,0x8(%rsp)
    4e7e:	49 89 ee             	mov    %rbp,%r14
    4e81:	e8 ea 5c 00 00       	call   ab70 <__assert>
    4e86:	49 8b 55 00          	mov    0x0(%r13),%rdx
    4e8a:	49 c1 e6 05          	shl    $0x5,%r14
    4e8e:	8b 44 24 08          	mov    0x8(%rsp),%eax
    4e92:	46 8b 4c 32 0c       	mov    0xc(%rdx,%r14,1),%r9d
    4e97:	41 39 47 2c          	cmp    %eax,0x2c(%r15)
    4e9b:	7f 29                	jg     4ec6 <_Z8toStringPc5TableS0_+0xc6>
    4e9d:	48 8d 0d 44 c3 01 00 	lea    0x1c344(%rip),%rcx        # 211e8 <g_dyn_entry_table+0x1e8>
    4ea4:	48 8d 15 31 c4 01 00 	lea    0x1c431(%rip),%rdx        # 212dc <_ZZN8TraceMemIN5Table10TableEntryEE4readEiE8__func__>
    4eab:	48 8d 3d 49 c3 01 00 	lea    0x1c349(%rip),%rdi        # 211fb <g_dyn_entry_table+0x1fb>
    4eb2:	be 3b 00 00 00       	mov    $0x3b,%esi
    4eb7:	44 89 4c 24 08       	mov    %r9d,0x8(%rsp)
    4ebc:	e8 af 5c 00 00       	call   ab70 <__assert>
    4ec1:	44 8b 4c 24 08       	mov    0x8(%rsp),%r9d
    4ec6:	49 8b 07             	mov    (%r15),%rax
    4ec9:	48 8b 54 24 10       	mov    0x10(%rsp),%rdx
    4ece:	44 89 cf             	mov    %r9d,%edi
    4ed1:	4c 89 e6             	mov    %r12,%rsi
    4ed4:	48 83 c5 01          	add    $0x1,%rbp
    4ed8:	46 8b 74 30 0c       	mov    0xc(%rax,%r14,1),%r14d
    4edd:	e8 9e fe ff ff       	call   4d80 <_Z4itoaiPcPi>
    4ee2:	48 8b 54 24 18       	mov    0x18(%rsp),%rdx
    4ee7:	48 8b 34 24          	mov    (%rsp),%rsi
    4eeb:	44 89 f7             	mov    %r14d,%edi
    4eee:	e8 8d fe ff ff       	call   4d80 <_Z4itoaiPcPi>
    4ef3:	4c 63 74 24 28       	movslq 0x28(%rsp),%r14
    4ef8:	48 89 df             	mov    %rbx,%rdi
    4efb:	4c 89 e6             	mov    %r12,%rsi
    4efe:	4c 89 f2             	mov    %r14,%rdx
    4f01:	4c 01 f3             	add    %r14,%rbx
    4f04:	e8 17 9b 00 00       	call   ea20 <strncpy>
    4f09:	4c 63 74 24 2c       	movslq 0x2c(%rsp),%r14
    4f0e:	48 8b 34 24          	mov    (%rsp),%rsi
    4f12:	48 83 c3 01          	add    $0x1,%rbx
    4f16:	c6 43 ff 20          	movb   $0x20,-0x1(%rbx)
    4f1a:	48 89 df             	mov    %rbx,%rdi
    4f1d:	4c 89 f2             	mov    %r14,%rdx
    4f20:	4c 01 f3             	add    %r14,%rbx
    4f23:	e8 f8 9a 00 00       	call   ea20 <strncpy>
    4f28:	48 83 c3 01          	add    $0x1,%rbx
    4f2c:	c6 43 ff 0a          	movb   $0xa,-0x1(%rbx)
    4f30:	39 6c 24 0c          	cmp    %ebp,0xc(%rsp)
    4f34:	7e 2a                	jle    4f60 <_Z8toStringPc5TableS0_+0x160>
    4f36:	41 39 6d 2c          	cmp    %ebp,0x2c(%r13)
    4f3a:	89 e8                	mov    %ebp,%eax
    4f3c:	0f 8e 1e ff ff ff    	jle    4e60 <_Z8toStringPc5TableS0_+0x60>
    4f42:	49 8b 55 00          	mov    0x0(%r13),%rdx
    4f46:	49 89 ee             	mov    %rbp,%r14
    4f49:	49 c1 e6 05          	shl    $0x5,%r14
    4f4d:	46 8b 4c 32 0c       	mov    0xc(%rdx,%r14,1),%r9d
    4f52:	e9 40 ff ff ff       	jmp    4e97 <_Z8toStringPc5TableS0_+0x97>
    4f57:	66 0f 1f 84 00 00 00 	nopw   0x0(%rax,%rax,1)
    4f5e:	00 00 
    4f60:	48 8b 44 24 58       	mov    0x58(%rsp),%rax
    4f65:	64 48 33 04 25 28 00 	xor    %fs:0x28,%rax
    4f6c:	00 00 
    4f6e:	c6 03 00             	movb   $0x0,(%rbx)
    4f71:	75 0f                	jne    4f82 <_Z8toStringPc5TableS0_+0x182>
    4f73:	48 83 c4 68          	add    $0x68,%rsp
    4f77:	5b                   	pop    %rbx
    4f78:	5d                   	pop    %rbp
    4f79:	41 5c                	pop    %r12
    4f7b:	41 5d                	pop    %r13
    4f7d:	41 5e                	pop    %r14
    4f7f:	41 5f                	pop    %r15
    4f81:	c3                   	ret    
    4f82:	e8 c9 9b 00 00       	call   eb50 <__stack_chk_fail>
    4f87:	66 0f 1f 84 00 00 00 	nopw   0x0(%rax,%rax,1)
    4f8e:	00 00 

0000000000004f90 <printf>:
    4f90:	53                   	push   %rbx
    4f91:	49 89 fa             	mov    %rdi,%r10
    4f94:	48 81 ec e0 20 00 00 	sub    $0x20e0,%rsp
    4f9b:	84 c0                	test   %al,%al
    4f9d:	48 89 b4 24 38 20 00 	mov    %rsi,0x2038(%rsp)
    4fa4:	00 
    4fa5:	48 89 94 24 40 20 00 	mov    %rdx,0x2040(%rsp)
    4fac:	00 
    4fad:	48 89 8c 24 48 20 00 	mov    %rcx,0x2048(%rsp)
    4fb4:	00 
    4fb5:	4c 89 84 24 50 20 00 	mov    %r8,0x2050(%rsp)
    4fbc:	00 
    4fbd:	4c 89 8c 24 58 20 00 	mov    %r9,0x2058(%rsp)
    4fc4:	00 
    4fc5:	74 40                	je     5007 <printf+0x77>
    4fc7:	0f 29 84 24 60 20 00 	movaps %xmm0,0x2060(%rsp)
    4fce:	00 
    4fcf:	0f 29 8c 24 70 20 00 	movaps %xmm1,0x2070(%rsp)
    4fd6:	00 
    4fd7:	0f 29 94 24 80 20 00 	movaps %xmm2,0x2080(%rsp)
    4fde:	00 
    4fdf:	0f 29 9c 24 90 20 00 	movaps %xmm3,0x2090(%rsp)
    4fe6:	00 
    4fe7:	0f 29 a4 24 a0 20 00 	movaps %xmm4,0x20a0(%rsp)
    4fee:	00 
    4fef:	0f 29 ac 24 b0 20 00 	movaps %xmm5,0x20b0(%rsp)
    4ff6:	00 
    4ff7:	0f 29 b4 24 c0 20 00 	movaps %xmm6,0x20c0(%rsp)
    4ffe:	00 
    4fff:	0f 29 bc 24 d0 20 00 	movaps %xmm7,0x20d0(%rsp)
    5006:	00 
    5007:	64 48 8b 04 25 28 00 	mov    %fs:0x28,%rax
    500e:	00 00 
    5010:	48 89 84 24 28 20 00 	mov    %rax,0x2028(%rsp)
    5017:	00 
    5018:	31 c0                	xor    %eax,%eax
    501a:	48 8d 7c 24 20       	lea    0x20(%rsp),%rdi
    501f:	b9 00 04 00 00       	mov    $0x400,%ecx
    5024:	48 8d 5c 24 20       	lea    0x20(%rsp),%rbx
    5029:	4c 89 d2             	mov    %r10,%rdx
    502c:	be 00 20 00 00       	mov    $0x2000,%esi
    5031:	f3 48 ab             	rep stos %rax,%es:(%rdi)
    5034:	48 8d 84 24 f0 20 00 	lea    0x20f0(%rsp),%rax
    503b:	00 
    503c:	48 8d 4c 24 08       	lea    0x8(%rsp),%rcx
    5041:	48 89 df             	mov    %rbx,%rdi
    5044:	c7 44 24 08 08 00 00 	movl   $0x8,0x8(%rsp)
    504b:	00 
    504c:	c7 44 24 0c 30 00 00 	movl   $0x30,0xc(%rsp)
    5053:	00 
    5054:	48 89 44 24 10       	mov    %rax,0x10(%rsp)
    5059:	48 8d 84 24 30 20 00 	lea    0x2030(%rsp),%rax
    5060:	00 
    5061:	48 89 44 24 18       	mov    %rax,0x18(%rsp)
    5066:	e8 65 5d 00 00       	call   add0 <vsnprintf>
    506b:	48 89 df             	mov    %rbx,%rdi
    506e:	e8 fd ea ff ff       	call   3b70 <ocall_print_string>
    5073:	48 8b 84 24 28 20 00 	mov    0x2028(%rsp),%rax
    507a:	00 
    507b:	64 48 33 04 25 28 00 	xor    %fs:0x28,%rax
    5082:	00 00 
    5084:	75 09                	jne    508f <printf+0xff>
    5086:	48 81 c4 e0 20 00 00 	add    $0x20e0,%rsp
    508d:	5b                   	pop    %rbx
    508e:	c3                   	ret    
    508f:	e8 bc 9a 00 00       	call   eb50 <__stack_chk_fail>
    5094:	66 2e 0f 1f 84 00 00 	cs nopw 0x0(%rax,%rax,1)
    509b:	00 00 00 
    509e:	66 90                	xchg   %ax,%ax

00000000000050a0 <_Z13bitonic_mergeIN5Table10TableEntryEXadL_Z13ind_func_compIS1_XadL_ZNS0_9entry_indES1_EEEbT_S3_EEEvP8TraceMemIS3_Ebii.part.13>:
    50a0:	41 57                	push   %r15
    50a2:	41 56                	push   %r14
    50a4:	49 89 fe             	mov    %rdi,%r14
    50a7:	41 55                	push   %r13
    50a9:	41 54                	push   %r12
    50ab:	41 89 cc             	mov    %ecx,%r12d
    50ae:	55                   	push   %rbp
    50af:	89 d5                	mov    %edx,%ebp
    50b1:	53                   	push   %rbx
    50b2:	89 ca                	mov    %ecx,%edx
    50b4:	29 ea                	sub    %ebp,%edx
    50b6:	48 83 ec 18          	sub    $0x18,%rsp
    50ba:	83 fa 01             	cmp    $0x1,%edx
    50bd:	89 74 24 0c          	mov    %esi,0xc(%rsp)
    50c1:	0f 8e a8 00 00 00    	jle    516f <_Z13bitonic_mergeIN5Table10TableEntryEXadL_Z13ind_func_compIS1_XadL_ZNS0_9entry_indES1_EEEbT_S3_EEEvP8TraceMemIS3_Ebii.part.13+0xcf>
    50c7:	b8 01 00 00 00       	mov    $0x1,%eax
    50cc:	0f 1f 40 00          	nopl   0x0(%rax)
    50d0:	01 c0                	add    %eax,%eax
    50d2:	39 c2                	cmp    %eax,%edx
    50d4:	7f fa                	jg     50d0 <_Z13bitonic_mergeIN5Table10TableEntryEXadL_Z13ind_func_compIS1_XadL_ZNS0_9entry_indES1_EEEbT_S3_EEEvP8TraceMemIS3_Ebii.part.13+0x30>
    50d6:	d1 f8                	sar    %eax
    50d8:	89 c3                	mov    %eax,%ebx
    50da:	45 89 e7             	mov    %r12d,%r15d
    50dd:	41 89 ed             	mov    %ebp,%r13d
    50e0:	41 29 df             	sub    %ebx,%r15d
    50e3:	44 39 fd             	cmp    %r15d,%ebp
    50e6:	7d 2e                	jge    5116 <_Z13bitonic_mergeIN5Table10TableEntryEXadL_Z13ind_func_compIS1_XadL_ZNS0_9entry_indES1_EEEbT_S3_EEEvP8TraceMemIS3_Ebii.part.13+0x76>
    50e8:	0f 1f 84 00 00 00 00 	nopl   0x0(%rax,%rax,1)
    50ef:	00 
    50f0:	8b 35 2a 4f 02 00    	mov    0x24f2a(%rip),%esi        # 2a020 <_ZL6record>
    50f6:	48 8d 3d 14 c1 01 00 	lea    0x1c114(%rip),%rdi        # 21211 <g_dyn_entry_table+0x211>
    50fd:	41 83 c5 01          	add    $0x1,%r13d
    5101:	8d 46 01             	lea    0x1(%rsi),%eax
    5104:	89 05 16 4f 02 00    	mov    %eax,0x24f16(%rip)        # 2a020 <_ZL6record>
    510a:	31 c0                	xor    %eax,%eax
    510c:	e8 7f fe ff ff       	call   4f90 <printf>
    5111:	45 39 fd             	cmp    %r15d,%r13d
    5114:	75 da                	jne    50f0 <_Z13bitonic_mergeIN5Table10TableEntryEXadL_Z13ind_func_compIS1_XadL_ZNS0_9entry_indES1_EEEbT_S3_EEEvP8TraceMemIS3_Ebii.part.13+0x50>
    5116:	8d 45 01             	lea    0x1(%rbp),%eax
    5119:	01 eb                	add    %ebp,%ebx
    511b:	39 c3                	cmp    %eax,%ebx
    511d:	7e 11                	jle    5130 <_Z13bitonic_mergeIN5Table10TableEntryEXadL_Z13ind_func_compIS1_XadL_ZNS0_9entry_indES1_EEEbT_S3_EEEvP8TraceMemIS3_Ebii.part.13+0x90>
    511f:	0f b6 74 24 0c       	movzbl 0xc(%rsp),%esi
    5124:	89 d9                	mov    %ebx,%ecx
    5126:	89 ea                	mov    %ebp,%edx
    5128:	4c 89 f7             	mov    %r14,%rdi
    512b:	e8 70 ff ff ff       	call   50a0 <_Z13bitonic_mergeIN5Table10TableEntryEXadL_Z13ind_func_compIS1_XadL_ZNS0_9entry_indES1_EEEbT_S3_EEEvP8TraceMemIS3_Ebii.part.13>
    5130:	8d 43 01             	lea    0x1(%rbx),%eax
    5133:	41 39 c4             	cmp    %eax,%r12d
    5136:	7e 28                	jle    5160 <_Z13bitonic_mergeIN5Table10TableEntryEXadL_Z13ind_func_compIS1_XadL_ZNS0_9entry_indES1_EEEbT_S3_EEEvP8TraceMemIS3_Ebii.part.13+0xc0>
    5138:	0f b6 74 24 0c       	movzbl 0xc(%rsp),%esi
    513d:	48 83 c4 18          	add    $0x18,%rsp
    5141:	44 89 e1             	mov    %r12d,%ecx
    5144:	89 da                	mov    %ebx,%edx
    5146:	4c 89 f7             	mov    %r14,%rdi
    5149:	5b                   	pop    %rbx
    514a:	5d                   	pop    %rbp
    514b:	41 5c                	pop    %r12
    514d:	41 5d                	pop    %r13
    514f:	41 5e                	pop    %r14
    5151:	41 5f                	pop    %r15
    5153:	e9 48 ff ff ff       	jmp    50a0 <_Z13bitonic_mergeIN5Table10TableEntryEXadL_Z13ind_func_compIS1_XadL_ZNS0_9entry_indES1_EEEbT_S3_EEEvP8TraceMemIS3_Ebii.part.13>
    5158:	0f 1f 84 00 00 00 00 	nopl   0x0(%rax,%rax,1)
    515f:	00 
    5160:	48 83 c4 18          	add    $0x18,%rsp
    5164:	5b                   	pop    %rbx
    5165:	5d                   	pop    %rbp
    5166:	41 5c                	pop    %r12
    5168:	41 5d                	pop    %r13
    516a:	41 5e                	pop    %r14
    516c:	41 5f                	pop    %r15
    516e:	c3                   	ret    
    516f:	31 db                	xor    %ebx,%ebx
    5171:	e9 64 ff ff ff       	jmp    50da <_Z13bitonic_mergeIN5Table10TableEntryEXadL_Z13ind_func_compIS1_XadL_ZNS0_9entry_indES1_EEEbT_S3_EEEvP8TraceMemIS3_Ebii.part.13+0x3a>
    5176:	66 2e 0f 1f 84 00 00 	cs nopw 0x0(%rax,%rax,1)
    517d:	00 00 00 

0000000000005180 <_Z11parseTablesPcRiS0_>:
    5180:	41 57                	push   %r15
    5182:	41 56                	push   %r14
    5184:	49 89 cf             	mov    %rcx,%r15
    5187:	41 55                	push   %r13
    5189:	41 54                	push   %r12
    518b:	49 89 fc             	mov    %rdi,%r12
    518e:	55                   	push   %rbp
    518f:	53                   	push   %rbx
    5190:	48 89 f7             	mov    %rsi,%rdi
    5193:	48 8d 35 89 c0 01 00 	lea    0x1c089(%rip),%rsi        # 21223 <g_dyn_entry_table+0x223>
    519a:	49 89 d5             	mov    %rdx,%r13
    519d:	48 83 ec 28          	sub    $0x28,%rsp
    51a1:	e8 9a 99 00 00       	call   eb40 <strtok>
    51a6:	48 89 c7             	mov    %rax,%rdi
    51a9:	e8 02 5d 00 00       	call   aeb0 <atoi>
    51ae:	48 8d 35 83 c0 01 00 	lea    0x1c083(%rip),%rsi        # 21238 <g_dyn_entry_table+0x238>
    51b5:	31 ff                	xor    %edi,%edi
    51b7:	41 89 45 00          	mov    %eax,0x0(%r13)
    51bb:	e8 80 99 00 00       	call   eb40 <strtok>
    51c0:	48 89 c7             	mov    %rax,%rdi
    51c3:	e8 e8 5c 00 00       	call   aeb0 <atoi>
    51c8:	41 89 07             	mov    %eax,(%r15)
    51cb:	41 03 45 00          	add    0x0(%r13),%eax
    51cf:	be 20 00 00 00       	mov    $0x20,%esi
    51d4:	8b 15 26 51 02 00    	mov    0x25126(%rip),%edx        # 2a300 <_ZN8TraceMemIN5Table10TableEntryEE5countE>
    51da:	49 c7 44 24 08 00 00 	movq   $0x0,0x8(%r12)
    51e1:	00 00 
    51e3:	49 c7 44 24 10 00 00 	movq   $0x0,0x10(%r12)
    51ea:	00 00 
    51ec:	49 c7 44 24 18 00 00 	movq   $0x0,0x18(%r12)
    51f3:	00 00 
    51f5:	49 c7 44 24 20 00 00 	movq   $0x0,0x20(%r12)
    51fc:	00 00 
    51fe:	8d 4a 01             	lea    0x1(%rdx),%ecx
    5201:	48 63 f8             	movslq %eax,%rdi
    5204:	41 89 54 24 28       	mov    %edx,0x28(%r12)
    5209:	41 89 44 24 2c       	mov    %eax,0x2c(%r12)
    520e:	89 0d ec 50 02 00    	mov    %ecx,0x250ec(%rip)        # 2a300 <_ZN8TraceMemIN5Table10TableEntryEE5countE>
    5214:	e8 67 89 00 00       	call   db80 <calloc>
    5219:	41 8b 75 00          	mov    0x0(%r13),%esi
    521d:	48 8d 3d 01 c0 01 00 	lea    0x1c001(%rip),%rdi        # 21225 <g_dyn_entry_table+0x225>
    5224:	49 89 04 24          	mov    %rax,(%r12)
    5228:	31 c0                	xor    %eax,%eax
    522a:	e8 61 fd ff ff       	call   4f90 <printf>
    522f:	41 8b 07             	mov    (%r15),%eax
    5232:	41 03 45 00          	add    0x0(%r13),%eax
    5236:	31 ed                	xor    %ebp,%ebp
    5238:	31 db                	xor    %ebx,%ebx
    523a:	85 c0                	test   %eax,%eax
    523c:	0f 8f d9 00 00 00    	jg     531b <_Z11parseTablesPcRiS0_+0x19b>
    5242:	e9 59 01 00 00       	jmp    53a0 <_Z11parseTablesPcRiS0_+0x220>
    5247:	66 0f 1f 84 00 00 00 	nopw   0x0(%rax,%rax,1)
    524e:	00 00 
    5250:	48 8d 0d 91 bf 01 00 	lea    0x1bf91(%rip),%rcx        # 211e8 <g_dyn_entry_table+0x1e8>
    5257:	48 8d 15 7e c0 01 00 	lea    0x1c07e(%rip),%rdx        # 212dc <_ZZN8TraceMemIN5Table10TableEntryEE4readEiE8__func__>
    525e:	48 8d 3d 96 bf 01 00 	lea    0x1bf96(%rip),%rdi        # 211fb <g_dyn_entry_table+0x1fb>
    5265:	be 3b 00 00 00       	mov    $0x3b,%esi
    526a:	e8 01 59 00 00       	call   ab70 <__assert>
    526f:	48 89 e8             	mov    %rbp,%rax
    5272:	49 03 04 24          	add    (%r12),%rax
    5276:	8b 70 14             	mov    0x14(%rax),%esi
    5279:	8b 50 10             	mov    0x10(%rax),%edx
    527c:	8b 78 18             	mov    0x18(%rax),%edi
    527f:	89 74 24 10          	mov    %esi,0x10(%rsp)
    5283:	31 f6                	xor    %esi,%esi
    5285:	41 39 5d 00          	cmp    %ebx,0x0(%r13)
    5289:	89 54 24 14          	mov    %edx,0x14(%rsp)
    528d:	8b 50 1c             	mov    0x1c(%rax),%edx
    5290:	89 7c 24 18          	mov    %edi,0x18(%rsp)
    5294:	40 0f 9e c6          	setle  %sil
    5298:	85 db                	test   %ebx,%ebx
    529a:	89 54 24 1c          	mov    %edx,0x1c(%rsp)
    529e:	89 74 24 0c          	mov    %esi,0xc(%rsp)
    52a2:	78 07                	js     52ab <_Z11parseTablesPcRiS0_+0x12b>
    52a4:	41 39 5c 24 2c       	cmp    %ebx,0x2c(%r12)
    52a9:	7f 26                	jg     52d1 <_Z11parseTablesPcRiS0_+0x151>
    52ab:	48 8d 0d 36 bf 01 00 	lea    0x1bf36(%rip),%rcx        # 211e8 <g_dyn_entry_table+0x1e8>
    52b2:	48 8d 15 1d c0 01 00 	lea    0x1c01d(%rip),%rdx        # 212d6 <_ZZN8TraceMemIN5Table10TableEntryEE5writeEiS1_E8__func__>
    52b9:	48 8d 3d 3b bf 01 00 	lea    0x1bf3b(%rip),%rdi        # 211fb <g_dyn_entry_table+0x1fb>
    52c0:	be 48 00 00 00       	mov    $0x48,%esi
    52c5:	e8 a6 58 00 00       	call   ab70 <__assert>
    52ca:	48 89 e8             	mov    %rbp,%rax
    52cd:	49 03 04 24          	add    (%r12),%rax
    52d1:	8b 4c 24 0c          	mov    0xc(%rsp),%ecx
    52d5:	8b 54 24 08          	mov    0x8(%rsp),%edx
    52d9:	83 c3 01             	add    $0x1,%ebx
    52dc:	8b 74 24 18          	mov    0x18(%rsp),%esi
    52e0:	c7 00 01 00 00 00    	movl   $0x1,(%rax)
    52e6:	48 83 c5 20          	add    $0x20,%rbp
    52ea:	44 89 70 0c          	mov    %r14d,0xc(%rax)
    52ee:	89 48 04             	mov    %ecx,0x4(%rax)
    52f1:	8b 4c 24 14          	mov    0x14(%rsp),%ecx
    52f5:	89 50 08             	mov    %edx,0x8(%rax)
    52f8:	8b 54 24 10          	mov    0x10(%rsp),%edx
    52fc:	89 70 18             	mov    %esi,0x18(%rax)
    52ff:	89 48 10             	mov    %ecx,0x10(%rax)
    5302:	8b 4c 24 1c          	mov    0x1c(%rsp),%ecx
    5306:	89 50 14             	mov    %edx,0x14(%rax)
    5309:	89 48 1c             	mov    %ecx,0x1c(%rax)
    530c:	41 8b 07             	mov    (%r15),%eax
    530f:	41 03 45 00          	add    0x0(%r13),%eax
    5313:	39 d8                	cmp    %ebx,%eax
    5315:	0f 8e 85 00 00 00    	jle    53a0 <_Z11parseTablesPcRiS0_+0x220>
    531b:	48 8d 35 01 bf 01 00 	lea    0x1bf01(%rip),%rsi        # 21223 <g_dyn_entry_table+0x223>
    5322:	31 ff                	xor    %edi,%edi
    5324:	e8 17 98 00 00       	call   eb40 <strtok>
    5329:	48 89 c7             	mov    %rax,%rdi
    532c:	e8 7f 5b 00 00       	call   aeb0 <atoi>
    5331:	48 8d 35 00 bf 01 00 	lea    0x1bf00(%rip),%rsi        # 21238 <g_dyn_entry_table+0x238>
    5338:	31 ff                	xor    %edi,%edi
    533a:	89 44 24 08          	mov    %eax,0x8(%rsp)
    533e:	e8 fd 97 00 00       	call   eb40 <strtok>
    5343:	48 89 c7             	mov    %rax,%rdi
    5346:	e8 65 5b 00 00       	call   aeb0 <atoi>
    534b:	85 db                	test   %ebx,%ebx
    534d:	41 89 c6             	mov    %eax,%r14d
    5350:	0f 88 fa fe ff ff    	js     5250 <_Z11parseTablesPcRiS0_+0xd0>
    5356:	41 39 5c 24 2c       	cmp    %ebx,0x2c(%r12)
    535b:	0f 8e ef fe ff ff    	jle    5250 <_Z11parseTablesPcRiS0_+0xd0>
    5361:	48 89 e8             	mov    %rbp,%rax
    5364:	49 03 04 24          	add    (%r12),%rax
    5368:	31 d2                	xor    %edx,%edx
    536a:	41 39 5d 00          	cmp    %ebx,0x0(%r13)
    536e:	8b 78 10             	mov    0x10(%rax),%edi
    5371:	8b 48 14             	mov    0x14(%rax),%ecx
    5374:	0f 9e c2             	setle  %dl
    5377:	89 54 24 0c          	mov    %edx,0xc(%rsp)
    537b:	89 7c 24 14          	mov    %edi,0x14(%rsp)
    537f:	89 4c 24 10          	mov    %ecx,0x10(%rsp)
    5383:	8b 78 18             	mov    0x18(%rax),%edi
    5386:	8b 48 1c             	mov    0x1c(%rax),%ecx
    5389:	89 7c 24 18          	mov    %edi,0x18(%rsp)
    538d:	89 4c 24 1c          	mov    %ecx,0x1c(%rsp)
    5391:	e9 3b ff ff ff       	jmp    52d1 <_Z11parseTablesPcRiS0_+0x151>
    5396:	66 2e 0f 1f 84 00 00 	cs nopw 0x0(%rax,%rax,1)
    539d:	00 00 00 
    53a0:	48 83 c4 28          	add    $0x28,%rsp
    53a4:	4c 89 e0             	mov    %r12,%rax
    53a7:	5b                   	pop    %rbx
    53a8:	5d                   	pop    %rbp
    53a9:	41 5c                	pop    %r12
    53ab:	41 5d                	pop    %r13
    53ad:	41 5e                	pop    %r14
    53af:	41 5f                	pop    %r15
    53b1:	c3                   	ret    
    53b2:	49 8b 7c 24 10       	mov    0x10(%r12),%rdi
    53b7:	48 89 c3             	mov    %rax,%rbx
    53ba:	48 85 ff             	test   %rdi,%rdi
    53bd:	74 25                	je     53e4 <_Z11parseTablesPcRiS0_+0x264>
    53bf:	49 8b 44 24 18       	mov    0x18(%r12),%rax
    53c4:	48 39 c7             	cmp    %rax,%rdi
    53c7:	74 16                	je     53df <_Z11parseTablesPcRiS0_+0x25f>
    53c9:	48 8d 50 f8          	lea    -0x8(%rax),%rdx
    53cd:	48 29 fa             	sub    %rdi,%rdx
    53d0:	48 f7 d2             	not    %rdx
    53d3:	48 83 e2 f8          	and    $0xfffffffffffffff8,%rdx
    53d7:	48 01 c2             	add    %rax,%rdx
    53da:	49 89 54 24 18       	mov    %rdx,0x18(%r12)
    53df:	e8 cc 6d 01 00       	call   1c1b0 <_ZdlPv>
    53e4:	48 89 df             	mov    %rbx,%rdi
    53e7:	e8 a4 31 01 00       	call   18590 <_Unwind_Resume>
    53ec:	0f 1f 40 00          	nopl   0x0(%rax)

00000000000053f0 <_ZNSt3__16vectorIN8TraceMemIN5Table10TableEntryEE8LogEntryENS_9allocatorIS5_EEEC1ERKS8_>:
    53f0:	41 54                	push   %r12
    53f2:	55                   	push   %rbp
    53f3:	53                   	push   %rbx
    53f4:	48 c7 07 00 00 00 00 	movq   $0x0,(%rdi)
    53fb:	48 c7 47 08 00 00 00 	movq   $0x0,0x8(%rdi)
    5402:	00 
    5403:	48 8b 5e 08          	mov    0x8(%rsi),%rbx
    5407:	48 2b 1e             	sub    (%rsi),%rbx
    540a:	48 c7 47 10 00 00 00 	movq   $0x0,0x10(%rdi)
    5411:	00 
    5412:	48 89 d8             	mov    %rbx,%rax
    5415:	48 c1 f8 03          	sar    $0x3,%rax
    5419:	48 85 c0             	test   %rax,%rax
    541c:	75 0a                	jne    5428 <_ZNSt3__16vectorIN8TraceMemIN5Table10TableEntryEE8LogEntryENS_9allocatorIS5_EEEC1ERKS8_+0x38>
    541e:	5b                   	pop    %rbx
    541f:	5d                   	pop    %rbp
    5420:	41 5c                	pop    %r12
    5422:	c3                   	ret    
    5423:	0f 1f 44 00 00       	nopl   0x0(%rax,%rax,1)
    5428:	48 ba ff ff ff ff ff 	movabs $0x1fffffffffffffff,%rdx
    542f:	ff ff 1f 
    5432:	49 89 f4             	mov    %rsi,%r12
    5435:	48 89 fd             	mov    %rdi,%rbp
    5438:	48 39 d0             	cmp    %rdx,%rax
    543b:	77 43                	ja     5480 <_ZNSt3__16vectorIN8TraceMemIN5Table10TableEntryEE8LogEntryENS_9allocatorIS5_EEEC1ERKS8_+0x90>
    543d:	48 89 df             	mov    %rbx,%rdi
    5440:	e8 9b 6d 01 00       	call   1c1e0 <_Znwm>
    5445:	48 01 c3             	add    %rax,%rbx
    5448:	48 89 45 08          	mov    %rax,0x8(%rbp)
    544c:	48 89 45 00          	mov    %rax,0x0(%rbp)
    5450:	48 89 5d 10          	mov    %rbx,0x10(%rbp)
    5454:	49 8b 34 24          	mov    (%r12),%rsi
    5458:	48 89 c1             	mov    %rax,%rcx
    545b:	49 8b 5c 24 08       	mov    0x8(%r12),%rbx
    5460:	48 29 f3             	sub    %rsi,%rbx
    5463:	48 83 fb 07          	cmp    $0x7,%rbx
    5467:	7e b5                	jle    541e <_ZNSt3__16vectorIN8TraceMemIN5Table10TableEntryEE8LogEntryENS_9allocatorIS5_EEEC1ERKS8_+0x2e>
    5469:	48 89 da             	mov    %rbx,%rdx
    546c:	48 89 cf             	mov    %rcx,%rdi
    546f:	e8 4c 93 00 00       	call   e7c0 <memcpy>
    5474:	48 01 c3             	add    %rax,%rbx
    5477:	48 89 5d 08          	mov    %rbx,0x8(%rbp)
    547b:	5b                   	pop    %rbx
    547c:	5d                   	pop    %rbp
    547d:	41 5c                	pop    %r12
    547f:	c3                   	ret    
    5480:	e8 89 cc ff ff       	call   210e <_ZNKSt3__120__vector_base_commonILb1EE20__throw_length_errorEv>
    5485:	bf 08 00 00 00       	mov    $0x8,%edi
    548a:	e8 f1 64 01 00       	call   1b980 <__cxa_allocate_exception>
    548f:	48 89 c7             	mov    %rax,%rdi
    5492:	48 89 c3             	mov    %rax,%rbx
    5495:	e8 86 6c 01 00       	call   1c120 <_ZNSt9bad_allocC1Ev>
    549a:	48 8d 15 2f 6c 01 00 	lea    0x16c2f(%rip),%rdx        # 1c0d0 <_ZNSt9bad_allocD1Ev>
    54a1:	48 8d 35 c8 48 02 00 	lea    0x248c8(%rip),%rsi        # 29d70 <_ZTISt9bad_alloc>
    54a8:	48 89 df             	mov    %rbx,%rdi
    54ab:	e8 d0 65 01 00       	call   1ba80 <__cxa_throw>
    54b0:	48 89 c3             	mov    %rax,%rbx
    54b3:	48 8b 7d 00          	mov    0x0(%rbp),%rdi
    54b7:	48 85 ff             	test   %rdi,%rdi
    54ba:	74 18                	je     54d4 <_ZNSt3__16vectorIN8TraceMemIN5Table10TableEntryEE8LogEntryENS_9allocatorIS5_EEEC1ERKS8_+0xe4>
    54bc:	48 8b 55 08          	mov    0x8(%rbp),%rdx
    54c0:	48 39 d7             	cmp    %rdx,%rdi
    54c3:	74 0a                	je     54cf <_ZNSt3__16vectorIN8TraceMemIN5Table10TableEntryEE8LogEntryENS_9allocatorIS5_EEEC1ERKS8_+0xdf>
    54c5:	48 83 ea 08          	sub    $0x8,%rdx
    54c9:	48 89 55 08          	mov    %rdx,0x8(%rbp)
    54cd:	eb ed                	jmp    54bc <_ZNSt3__16vectorIN8TraceMemIN5Table10TableEntryEE8LogEntryENS_9allocatorIS5_EEEC1ERKS8_+0xcc>
    54cf:	e8 dc 6c 01 00       	call   1c1b0 <_ZdlPv>
    54d4:	48 89 df             	mov    %rbx,%rdi
    54d7:	e8 b4 30 01 00       	call   18590 <_Unwind_Resume>
    54dc:	0f 1f 40 00          	nopl   0x0(%rax)

00000000000054e0 <_Z12bitonic_sortIN5Table10TableEntryEXadL_Z13ind_func_compIS1_XadL_ZNS0_9entry_indES1_EEEbT_S3_EEEvP8TraceMemIS3_Ebii>:
    54e0:	83 f9 ff             	cmp    $0xffffffff,%ecx
    54e3:	41 56                	push   %r14
    54e5:	41 89 f6             	mov    %esi,%r14d
    54e8:	41 55                	push   %r13
    54ea:	41 89 cd             	mov    %ecx,%r13d
    54ed:	41 54                	push   %r12
    54ef:	49 89 fc             	mov    %rdi,%r12
    54f2:	55                   	push   %rbp
    54f3:	89 d5                	mov    %edx,%ebp
    54f5:	53                   	push   %rbx
    54f6:	74 78                	je     5570 <_Z12bitonic_sortIN5Table10TableEntryEXadL_Z13ind_func_compIS1_XadL_ZNS0_9entry_indES1_EEEbT_S3_EEEvP8TraceMemIS3_Ebii+0x90>
    54f8:	44 89 e8             	mov    %r13d,%eax
    54fb:	29 e8                	sub    %ebp,%eax
    54fd:	89 c3                	mov    %eax,%ebx
    54ff:	c1 eb 1f             	shr    $0x1f,%ebx
    5502:	01 d8                	add    %ebx,%eax
    5504:	d1 f8                	sar    %eax
    5506:	8d 1c 28             	lea    (%rax,%rbp,1),%ebx
    5509:	39 dd                	cmp    %ebx,%ebp
    550b:	74 32                	je     553f <_Z12bitonic_sortIN5Table10TableEntryEXadL_Z13ind_func_compIS1_XadL_ZNS0_9entry_indES1_EEEbT_S3_EEEvP8TraceMemIS3_Ebii+0x5f>
    550d:	44 89 f6             	mov    %r14d,%esi
    5510:	89 d9                	mov    %ebx,%ecx
    5512:	89 ea                	mov    %ebp,%edx
    5514:	83 f6 01             	xor    $0x1,%esi
    5517:	4c 89 e7             	mov    %r12,%rdi
    551a:	45 0f b6 f6          	movzbl %r14b,%r14d
    551e:	40 0f b6 f6          	movzbl %sil,%esi
    5522:	e8 b9 ff ff ff       	call   54e0 <_Z12bitonic_sortIN5Table10TableEntryEXadL_Z13ind_func_compIS1_XadL_ZNS0_9entry_indES1_EEEbT_S3_EEEvP8TraceMemIS3_Ebii>
    5527:	44 89 e9             	mov    %r13d,%ecx
    552a:	89 da                	mov    %ebx,%edx
    552c:	44 89 f6             	mov    %r14d,%esi
    552f:	4c 89 e7             	mov    %r12,%rdi
    5532:	e8 a9 ff ff ff       	call   54e0 <_Z12bitonic_sortIN5Table10TableEntryEXadL_Z13ind_func_compIS1_XadL_ZNS0_9entry_indES1_EEEbT_S3_EEEvP8TraceMemIS3_Ebii>
    5537:	8d 45 01             	lea    0x1(%rbp),%eax
    553a:	41 39 c5             	cmp    %eax,%r13d
    553d:	7f 11                	jg     5550 <_Z12bitonic_sortIN5Table10TableEntryEXadL_Z13ind_func_compIS1_XadL_ZNS0_9entry_indES1_EEEbT_S3_EEEvP8TraceMemIS3_Ebii+0x70>
    553f:	5b                   	pop    %rbx
    5540:	5d                   	pop    %rbp
    5541:	41 5c                	pop    %r12
    5543:	41 5d                	pop    %r13
    5545:	41 5e                	pop    %r14
    5547:	c3                   	ret    
    5548:	0f 1f 84 00 00 00 00 	nopl   0x0(%rax,%rax,1)
    554f:	00 
    5550:	5b                   	pop    %rbx
    5551:	44 89 e9             	mov    %r13d,%ecx
    5554:	89 ea                	mov    %ebp,%edx
    5556:	44 89 f6             	mov    %r14d,%esi
    5559:	5d                   	pop    %rbp
    555a:	4c 89 e7             	mov    %r12,%rdi
    555d:	41 5c                	pop    %r12
    555f:	41 5d                	pop    %r13
    5561:	41 5e                	pop    %r14
    5563:	e9 38 fb ff ff       	jmp    50a0 <_Z13bitonic_mergeIN5Table10TableEntryEXadL_Z13ind_func_compIS1_XadL_ZNS0_9entry_indES1_EEEbT_S3_EEEvP8TraceMemIS3_Ebii.part.13>
    5568:	0f 1f 84 00 00 00 00 	nopl   0x0(%rax,%rax,1)
    556f:	00 
    5570:	44 8b 6f 2c          	mov    0x2c(%rdi),%r13d
    5574:	eb 82                	jmp    54f8 <_Z12bitonic_sortIN5Table10TableEntryEXadL_Z13ind_func_compIS1_XadL_ZNS0_9entry_indES1_EEEbT_S3_EEEvP8TraceMemIS3_Ebii+0x18>
    5576:	66 2e 0f 1f 84 00 00 	cs nopw 0x0(%rax,%rax,1)
    557d:	00 00 00 

0000000000005580 <_Z16obliv_distributeIN5Table10TableEntryEXadL_ZNS0_9entry_indES1_EEEvP8TraceMemIT_Ei>:
    5580:	41 57                	push   %r15
    5582:	41 56                	push   %r14
    5584:	49 89 ff             	mov    %rdi,%r15
    5587:	41 55                	push   %r13
    5589:	41 54                	push   %r12
    558b:	b9 ff ff ff ff       	mov    $0xffffffff,%ecx
    5590:	55                   	push   %rbp
    5591:	53                   	push   %rbx
    5592:	31 d2                	xor    %edx,%edx
    5594:	89 f3                	mov    %esi,%ebx
    5596:	48 81 ec 98 00 00 00 	sub    $0x98,%rsp
    559d:	89 74 24 34          	mov    %esi,0x34(%rsp)
    55a1:	be 01 00 00 00       	mov    $0x1,%esi
    55a6:	64 48 8b 04 25 28 00 	mov    %fs:0x28,%rax
    55ad:	00 00 
    55af:	48 89 84 24 88 00 00 	mov    %rax,0x88(%rsp)
    55b6:	00 
    55b7:	31 c0                	xor    %eax,%eax
    55b9:	e8 22 ff ff ff       	call   54e0 <_Z12bitonic_sortIN5Table10TableEntryEXadL_Z13ind_func_compIS1_XadL_ZNS0_9entry_indES1_EEEbT_S3_EEEvP8TraceMemIS3_Ebii>
    55be:	49 8b 3f             	mov    (%r15),%rdi
    55c1:	48 63 f3             	movslq %ebx,%rsi
    55c4:	48 c1 e6 05          	shl    $0x5,%rsi
    55c8:	e8 33 86 00 00       	call   dc00 <dlrealloc>
    55cd:	49 63 4f 2c          	movslq 0x2c(%r15),%rcx
    55d1:	49 89 07             	mov    %rax,(%r15)
    55d4:	39 cb                	cmp    %ecx,%ebx
    55d6:	7e 1c                	jle    55f4 <_Z16obliv_distributeIN5Table10TableEntryEXadL_ZNS0_9entry_indES1_EEEvP8TraceMemIT_Ei+0x74>
    55d8:	8b 54 24 34          	mov    0x34(%rsp),%edx
    55dc:	31 f6                	xor    %esi,%esi
    55de:	29 ca                	sub    %ecx,%edx
    55e0:	48 c1 e1 05          	shl    $0x5,%rcx
    55e4:	48 63 d2             	movslq %edx,%rdx
    55e7:	48 8d 3c 08          	lea    (%rax,%rcx,1),%rdi
    55eb:	48 c1 e2 05          	shl    $0x5,%rdx
    55ef:	e8 9c 93 00 00       	call   e990 <memset>
    55f4:	8b 74 24 34          	mov    0x34(%rsp),%esi
    55f8:	b8 01 00 00 00       	mov    $0x1,%eax
    55fd:	83 fe 01             	cmp    $0x1,%esi
    5600:	41 89 77 2c          	mov    %esi,0x2c(%r15)
    5604:	0f 8e f8 02 00 00    	jle    5902 <_Z16obliv_distributeIN5Table10TableEntryEXadL_ZNS0_9entry_indES1_EEEvP8TraceMemIT_Ei+0x382>
    560a:	89 f2                	mov    %esi,%edx
    560c:	0f 1f 40 00          	nopl   0x0(%rax)
    5610:	01 c0                	add    %eax,%eax
    5612:	39 c2                	cmp    %eax,%edx
    5614:	7f fa                	jg     5610 <_Z16obliv_distributeIN5Table10TableEntryEXadL_ZNS0_9entry_indES1_EEEvP8TraceMemIT_Ei+0x90>
    5616:	d1 f8                	sar    %eax
    5618:	4d 89 fd             	mov    %r15,%r13
    561b:	89 44 24 30          	mov    %eax,0x30(%rsp)
    561f:	48 8d 44 24 60       	lea    0x60(%rsp),%rax
    5624:	48 89 04 24          	mov    %rax,(%rsp)
    5628:	48 8d 44 24 40       	lea    0x40(%rsp),%rax
    562d:	48 89 44 24 08       	mov    %rax,0x8(%rsp)
    5632:	66 0f 1f 44 00 00    	nopw   0x0(%rax,%rax,1)
    5638:	8b 44 24 34          	mov    0x34(%rsp),%eax
    563c:	2b 44 24 30          	sub    0x30(%rsp),%eax
    5640:	83 e8 01             	sub    $0x1,%eax
    5643:	41 89 c7             	mov    %eax,%r15d
    5646:	0f 88 ac 02 00 00    	js     58f8 <_Z16obliv_distributeIN5Table10TableEntryEXadL_ZNS0_9entry_indES1_EEEvP8TraceMemIT_Ei+0x378>
    564c:	48 98                	cltq   
    564e:	48 c1 e0 05          	shl    $0x5,%rax
    5652:	49 89 c6             	mov    %rax,%r14
    5655:	48 63 44 24 30       	movslq 0x30(%rsp),%rax
    565a:	48 c1 e0 05          	shl    $0x5,%rax
    565e:	48 89 44 24 38       	mov    %rax,0x38(%rsp)
    5663:	e9 e9 01 00 00       	jmp    5851 <_Z16obliv_distributeIN5Table10TableEntryEXadL_ZNS0_9entry_indES1_EEEvP8TraceMemIT_Ei+0x2d1>
    5668:	0f 1f 84 00 00 00 00 	nopl   0x0(%rax,%rax,1)
    566f:	00 
    5670:	8b 44 24 30          	mov    0x30(%rsp),%eax
    5674:	41 8b 55 2c          	mov    0x2c(%r13),%edx
    5678:	41 8d 2c 07          	lea    (%r15,%rax,1),%ebp
    567c:	39 ea                	cmp    %ebp,%edx
    567e:	7f 23                	jg     56a3 <_Z16obliv_distributeIN5Table10TableEntryEXadL_ZNS0_9entry_indES1_EEEvP8TraceMemIT_Ei+0x123>
    5680:	48 8d 15 55 bc 01 00 	lea    0x1bc55(%rip),%rdx        # 212dc <_ZZN8TraceMemIN5Table10TableEntryEE4readEiE8__func__>
    5687:	48 8d 0d 5a bb 01 00 	lea    0x1bb5a(%rip),%rcx        # 211e8 <g_dyn_entry_table+0x1e8>
    568e:	48 8d 3d 66 bb 01 00 	lea    0x1bb66(%rip),%rdi        # 211fb <g_dyn_entry_table+0x1fb>
    5695:	be 3b 00 00 00       	mov    $0x3b,%esi
    569a:	e8 d1 54 00 00       	call   ab70 <__assert>
    569f:	41 8b 55 2c          	mov    0x2c(%r13),%edx
    56a3:	48 8b 44 24 38       	mov    0x38(%rsp),%rax
    56a8:	49 8b 4d 00          	mov    0x0(%r13),%rcx
    56ac:	41 39 ec             	cmp    %ebp,%r12d
    56af:	49 8d 1c 06          	lea    (%r14,%rax,1),%rbx
    56b3:	48 8b 04 19          	mov    (%rcx,%rbx,1),%rax
    56b7:	48 89 44 24 60       	mov    %rax,0x60(%rsp)
    56bc:	48 8b 44 19 08       	mov    0x8(%rcx,%rbx,1),%rax
    56c1:	48 89 44 24 68       	mov    %rax,0x68(%rsp)
    56c6:	48 8b 44 19 10       	mov    0x10(%rcx,%rbx,1),%rax
    56cb:	48 89 44 24 70       	mov    %rax,0x70(%rsp)
    56d0:	48 8b 44 19 18       	mov    0x18(%rcx,%rbx,1),%rax
    56d5:	48 89 44 24 78       	mov    %rax,0x78(%rsp)
    56da:	48 8b 04 24          	mov    (%rsp),%rax
    56de:	48 0f 4c 44 24 08    	cmovl  0x8(%rsp),%rax
    56e4:	41 39 d7             	cmp    %edx,%r15d
    56e7:	8b 70 0c             	mov    0xc(%rax),%esi
    56ea:	8b 78 10             	mov    0x10(%rax),%edi
    56ed:	44 8b 18             	mov    (%rax),%r11d
    56f0:	44 8b 50 04          	mov    0x4(%rax),%r10d
    56f4:	44 8b 48 08          	mov    0x8(%rax),%r9d
    56f8:	44 8b 40 18          	mov    0x18(%rax),%r8d
    56fc:	89 74 24 10          	mov    %esi,0x10(%rsp)
    5700:	8b 70 14             	mov    0x14(%rax),%esi
    5703:	89 7c 24 18          	mov    %edi,0x18(%rsp)
    5707:	8b 40 1c             	mov    0x1c(%rax),%eax
    570a:	89 74 24 14          	mov    %esi,0x14(%rsp)
    570e:	7c 53                	jl     5763 <_Z16obliv_distributeIN5Table10TableEntryEXadL_ZNS0_9entry_indES1_EEEvP8TraceMemIT_Ei+0x1e3>
    5710:	48 8d 0d d1 ba 01 00 	lea    0x1bad1(%rip),%rcx        # 211e8 <g_dyn_entry_table+0x1e8>
    5717:	48 8d 15 b8 bb 01 00 	lea    0x1bbb8(%rip),%rdx        # 212d6 <_ZZN8TraceMemIN5Table10TableEntryEE5writeEiS1_E8__func__>
    571e:	48 8d 3d d6 ba 01 00 	lea    0x1bad6(%rip),%rdi        # 211fb <g_dyn_entry_table+0x1fb>
    5725:	be 48 00 00 00       	mov    $0x48,%esi
    572a:	44 89 44 24 2c       	mov    %r8d,0x2c(%rsp)
    572f:	89 44 24 28          	mov    %eax,0x28(%rsp)
    5733:	44 89 5c 24 24       	mov    %r11d,0x24(%rsp)
    5738:	44 89 54 24 20       	mov    %r10d,0x20(%rsp)
    573d:	44 89 4c 24 1c       	mov    %r9d,0x1c(%rsp)
    5742:	e8 29 54 00 00       	call   ab70 <__assert>
    5747:	49 8b 4d 00          	mov    0x0(%r13),%rcx
    574b:	44 8b 44 24 2c       	mov    0x2c(%rsp),%r8d
    5750:	8b 44 24 28          	mov    0x28(%rsp),%eax
    5754:	44 8b 5c 24 24       	mov    0x24(%rsp),%r11d
    5759:	44 8b 54 24 20       	mov    0x20(%rsp),%r10d
    575e:	44 8b 4c 24 1c       	mov    0x1c(%rsp),%r9d
    5763:	8b 7c 24 10          	mov    0x10(%rsp),%edi
    5767:	4a 8d 14 31          	lea    (%rcx,%r14,1),%rdx
    576b:	8b 74 24 18          	mov    0x18(%rsp),%esi
    576f:	41 39 ec             	cmp    %ebp,%r12d
    5772:	44 89 4a 08          	mov    %r9d,0x8(%rdx)
    5776:	44 89 42 18          	mov    %r8d,0x18(%rdx)
    577a:	89 7a 0c             	mov    %edi,0xc(%rdx)
    577d:	8b 7c 24 14          	mov    0x14(%rsp),%edi
    5781:	89 42 1c             	mov    %eax,0x1c(%rdx)
    5784:	44 89 1a             	mov    %r11d,(%rdx)
    5787:	44 89 52 04          	mov    %r10d,0x4(%rdx)
    578b:	89 72 10             	mov    %esi,0x10(%rdx)
    578e:	89 7a 14             	mov    %edi,0x14(%rdx)
    5791:	48 8b 54 24 08       	mov    0x8(%rsp),%rdx
    5796:	48 0f 4c 14 24       	cmovl  (%rsp),%rdx
    579b:	41 39 6d 2c          	cmp    %ebp,0x2c(%r13)
    579f:	8b 42 08             	mov    0x8(%rdx),%eax
    57a2:	44 8b 1a             	mov    (%rdx),%r11d
    57a5:	44 8b 52 04          	mov    0x4(%rdx),%r10d
    57a9:	44 8b 4a 10          	mov    0x10(%rdx),%r9d
    57ad:	44 8b 42 14          	mov    0x14(%rdx),%r8d
    57b1:	44 8b 62 1c          	mov    0x1c(%rdx),%r12d
    57b5:	89 44 24 14          	mov    %eax,0x14(%rsp)
    57b9:	8b 42 0c             	mov    0xc(%rdx),%eax
    57bc:	89 44 24 10          	mov    %eax,0x10(%rsp)
    57c0:	8b 42 18             	mov    0x18(%rdx),%eax
    57c3:	7f 53                	jg     5818 <_Z16obliv_distributeIN5Table10TableEntryEXadL_ZNS0_9entry_indES1_EEEvP8TraceMemIT_Ei+0x298>
    57c5:	48 8d 0d 1c ba 01 00 	lea    0x1ba1c(%rip),%rcx        # 211e8 <g_dyn_entry_table+0x1e8>
    57cc:	48 8d 15 03 bb 01 00 	lea    0x1bb03(%rip),%rdx        # 212d6 <_ZZN8TraceMemIN5Table10TableEntryEE5writeEiS1_E8__func__>
    57d3:	48 8d 3d 21 ba 01 00 	lea    0x1ba21(%rip),%rdi        # 211fb <g_dyn_entry_table+0x1fb>
    57da:	be 48 00 00 00       	mov    $0x48,%esi
    57df:	44 89 54 24 28       	mov    %r10d,0x28(%rsp)
    57e4:	44 89 5c 24 24       	mov    %r11d,0x24(%rsp)
    57e9:	44 89 44 24 20       	mov    %r8d,0x20(%rsp)
    57ee:	89 44 24 1c          	mov    %eax,0x1c(%rsp)
    57f2:	44 89 4c 24 18       	mov    %r9d,0x18(%rsp)
    57f7:	e8 74 53 00 00       	call   ab70 <__assert>
    57fc:	49 8b 4d 00          	mov    0x0(%r13),%rcx
    5800:	44 8b 54 24 28       	mov    0x28(%rsp),%r10d
    5805:	44 8b 5c 24 24       	mov    0x24(%rsp),%r11d
    580a:	44 8b 44 24 20       	mov    0x20(%rsp),%r8d
    580f:	8b 44 24 1c          	mov    0x1c(%rsp),%eax
    5813:	44 8b 4c 24 18       	mov    0x18(%rsp),%r9d
    5818:	8b 74 24 14          	mov    0x14(%rsp),%esi
    581c:	8b 7c 24 10          	mov    0x10(%rsp),%edi
    5820:	41 83 ef 01          	sub    $0x1,%r15d
    5824:	48 01 cb             	add    %rcx,%rbx
    5827:	49 83 ee 20          	sub    $0x20,%r14
    582b:	41 83 ff ff          	cmp    $0xffffffff,%r15d
    582f:	44 89 1b             	mov    %r11d,(%rbx)
    5832:	44 89 53 04          	mov    %r10d,0x4(%rbx)
    5836:	89 73 08             	mov    %esi,0x8(%rbx)
    5839:	89 7b 0c             	mov    %edi,0xc(%rbx)
    583c:	44 89 4b 10          	mov    %r9d,0x10(%rbx)
    5840:	44 89 43 14          	mov    %r8d,0x14(%rbx)
    5844:	89 43 18             	mov    %eax,0x18(%rbx)
    5847:	44 89 63 1c          	mov    %r12d,0x1c(%rbx)
    584b:	0f 84 a7 00 00 00    	je     58f8 <_Z16obliv_distributeIN5Table10TableEntryEXadL_ZNS0_9entry_indES1_EEEvP8TraceMemIT_Ei+0x378>
    5851:	45 39 7d 2c          	cmp    %r15d,0x2c(%r13)
    5855:	7f 1f                	jg     5876 <_Z16obliv_distributeIN5Table10TableEntryEXadL_ZNS0_9entry_indES1_EEEvP8TraceMemIT_Ei+0x2f6>
    5857:	48 8d 0d 8a b9 01 00 	lea    0x1b98a(%rip),%rcx        # 211e8 <g_dyn_entry_table+0x1e8>
    585e:	48 8d 15 77 ba 01 00 	lea    0x1ba77(%rip),%rdx        # 212dc <_ZZN8TraceMemIN5Table10TableEntryEE4readEiE8__func__>
    5865:	48 8d 3d 8f b9 01 00 	lea    0x1b98f(%rip),%rdi        # 211fb <g_dyn_entry_table+0x1fb>
    586c:	be 3b 00 00 00       	mov    $0x3b,%esi
    5871:	e8 fa 52 00 00       	call   ab70 <__assert>
    5876:	49 8b 45 00          	mov    0x0(%r13),%rax
    587a:	45 31 e4             	xor    %r12d,%r12d
    587d:	4a 8b 14 30          	mov    (%rax,%r14,1),%rdx
    5881:	48 89 54 24 40       	mov    %rdx,0x40(%rsp)
    5886:	4a 8b 54 30 08       	mov    0x8(%rax,%r14,1),%rdx
    588b:	48 89 54 24 48       	mov    %rdx,0x48(%rsp)
    5890:	4a 8b 54 30 10       	mov    0x10(%rax,%r14,1),%rdx
    5895:	4a 8b 44 30 18       	mov    0x18(%rax,%r14,1),%rax
    589a:	48 89 54 24 50       	mov    %rdx,0x50(%rsp)
    589f:	48 89 44 24 58       	mov    %rax,0x58(%rsp)
    58a4:	0f ae f0             	mfence 
    58a7:	8b 44 24 40          	mov    0x40(%rsp),%eax
    58ab:	85 c0                	test   %eax,%eax
    58ad:	41 0f 95 c4          	setne  %r12b
    58b1:	44 0f af 64 24 58    	imul   0x58(%rsp),%r12d
    58b7:	0f ae f0             	mfence 
    58ba:	85 c0                	test   %eax,%eax
    58bc:	0f 94 c0             	sete   %al
    58bf:	0f b6 c0             	movzbl %al,%eax
    58c2:	41 29 c4             	sub    %eax,%r12d
    58c5:	44 39 64 24 34       	cmp    %r12d,0x34(%rsp)
    58ca:	0f 8f a0 fd ff ff    	jg     5670 <_Z16obliv_distributeIN5Table10TableEntryEXadL_ZNS0_9entry_indES1_EEEvP8TraceMemIT_Ei+0xf0>
    58d0:	48 8d 0d 63 b9 01 00 	lea    0x1b963(%rip),%rcx        # 2123a <g_dyn_entry_table+0x23a>
    58d7:	48 8d 15 e2 b9 01 00 	lea    0x1b9e2(%rip),%rdx        # 212c0 <_ZZ16obliv_distributeIN5Table10TableEntryEXadL_ZNS0_9entry_indES1_EEEvP8TraceMemIT_EiE8__func__>
    58de:	48 8d 3d 60 b9 01 00 	lea    0x1b960(%rip),%rdi        # 21245 <g_dyn_entry_table+0x245>
    58e5:	be 6e 00 00 00       	mov    $0x6e,%esi
    58ea:	e8 81 52 00 00       	call   ab70 <__assert>
    58ef:	e9 7c fd ff ff       	jmp    5670 <_Z16obliv_distributeIN5Table10TableEntryEXadL_ZNS0_9entry_indES1_EEEvP8TraceMemIT_Ei+0xf0>
    58f4:	0f 1f 40 00          	nopl   0x0(%rax)
    58f8:	d1 7c 24 30          	sarl   0x30(%rsp)
    58fc:	0f 85 36 fd ff ff    	jne    5638 <_Z16obliv_distributeIN5Table10TableEntryEXadL_ZNS0_9entry_indES1_EEEvP8TraceMemIT_Ei+0xb8>
    5902:	48 8b 84 24 88 00 00 	mov    0x88(%rsp),%rax
    5909:	00 
    590a:	64 48 33 04 25 28 00 	xor    %fs:0x28,%rax
    5911:	00 00 
    5913:	75 12                	jne    5927 <_Z16obliv_distributeIN5Table10TableEntryEXadL_ZNS0_9entry_indES1_EEEvP8TraceMemIT_Ei+0x3a7>
    5915:	48 81 c4 98 00 00 00 	add    $0x98,%rsp
    591c:	5b                   	pop    %rbx
    591d:	5d                   	pop    %rbp
    591e:	41 5c                	pop    %r12
    5920:	41 5d                	pop    %r13
    5922:	41 5e                	pop    %r14
    5924:	41 5f                	pop    %r15
    5926:	c3                   	ret    
    5927:	e8 24 92 00 00       	call   eb50 <__stack_chk_fail>
    592c:	0f 1f 40 00          	nopl   0x0(%rax)

0000000000005930 <_Z4joinR5TableS0_S0_>:
    5930:	41 57                	push   %r15
    5932:	41 56                	push   %r14
    5934:	48 89 f0             	mov    %rsi,%rax
    5937:	41 55                	push   %r13
    5939:	41 54                	push   %r12
    593b:	49 89 ff             	mov    %rdi,%r15
    593e:	55                   	push   %rbp
    593f:	53                   	push   %rbx
    5940:	b9 ff ff ff ff       	mov    $0xffffffff,%ecx
    5945:	48 81 ec b8 00 00 00 	sub    $0xb8,%rsp
    594c:	8b 40 2c             	mov    0x2c(%rax),%eax
    594f:	48 89 7c 24 08       	mov    %rdi,0x8(%rsp)
    5954:	8b 7a 2c             	mov    0x2c(%rdx),%edi
    5957:	48 89 74 24 50       	mov    %rsi,0x50(%rsp)
    595c:	48 89 54 24 10       	mov    %rdx,0x10(%rsp)
    5961:	31 d2                	xor    %edx,%edx
    5963:	89 c3                	mov    %eax,%ebx
    5965:	41 89 c6             	mov    %eax,%r14d
    5968:	89 44 24 4c          	mov    %eax,0x4c(%rsp)
    596c:	64 48 8b 34 25 28 00 	mov    %fs:0x28,%rsi
    5973:	00 00 
    5975:	48 89 b4 24 a8 00 00 	mov    %rsi,0xa8(%rsp)
    597c:	00 
    597d:	31 f6                	xor    %esi,%esi
    597f:	01 fb                	add    %edi,%ebx
    5981:	be 01 00 00 00       	mov    $0x1,%esi
    5986:	89 7c 24 48          	mov    %edi,0x48(%rsp)
    598a:	4c 89 ff             	mov    %r15,%rdi
    598d:	e8 4e fb ff ff       	call   54e0 <_Z12bitonic_sortIN5Table10TableEntryEXadL_Z13ind_func_compIS1_XadL_ZNS0_9entry_indES1_EEEbT_S3_EEEvP8TraceMemIS3_Ebii>
    5992:	bf 01 00 00 00       	mov    $0x1,%edi
    5997:	e8 14 e3 ff ff       	call   3cb0 <get_time>
    599c:	4c 89 fe             	mov    %r15,%rsi
    599f:	89 df                	mov    %ebx,%edi
    59a1:	e8 fa ed ff ff       	call   47a0 <_Z17write_block_sizesiR5Table>
    59a6:	bf 01 00 00 00       	mov    $0x1,%edi
    59ab:	89 44 24 5c          	mov    %eax,0x5c(%rsp)
    59af:	e8 fc e2 ff ff       	call   3cb0 <get_time>
    59b4:	31 d2                	xor    %edx,%edx
    59b6:	b9 ff ff ff ff       	mov    $0xffffffff,%ecx
    59bb:	be 01 00 00 00       	mov    $0x1,%esi
    59c0:	4c 89 ff             	mov    %r15,%rdi
    59c3:	e8 18 fb ff ff       	call   54e0 <_Z12bitonic_sortIN5Table10TableEntryEXadL_Z13ind_func_compIS1_XadL_ZNS0_9entry_indES1_EEEbT_S3_EEEvP8TraceMemIS3_Ebii>
    59c8:	bf 01 00 00 00       	mov    $0x1,%edi
    59cd:	e8 de e2 ff ff       	call   3cb0 <get_time>
    59d2:	45 85 f6             	test   %r14d,%r14d
    59d5:	0f 8e 45 01 00 00    	jle    5b20 <_Z4joinR5TableS0_S0_+0x1f0>
    59db:	31 ed                	xor    %ebp,%ebp
    59dd:	31 db                	xor    %ebx,%ebx
    59df:	4c 8b 7c 24 50       	mov    0x50(%rsp),%r15
    59e4:	e9 df 00 00 00       	jmp    5ac8 <_Z4joinR5TableS0_S0_+0x198>
    59e9:	0f 1f 80 00 00 00 00 	nopl   0x0(%rax)
    59f0:	48 8b 44 24 08       	mov    0x8(%rsp),%rax
    59f5:	39 58 2c             	cmp    %ebx,0x2c(%rax)
    59f8:	7f 1f                	jg     5a19 <_Z4joinR5TableS0_S0_+0xe9>
    59fa:	48 8d 0d e7 b7 01 00 	lea    0x1b7e7(%rip),%rcx        # 211e8 <g_dyn_entry_table+0x1e8>
    5a01:	48 8d 15 d4 b8 01 00 	lea    0x1b8d4(%rip),%rdx        # 212dc <_ZZN8TraceMemIN5Table10TableEntryEE4readEiE8__func__>
    5a08:	48 8d 3d ec b7 01 00 	lea    0x1b7ec(%rip),%rdi        # 211fb <g_dyn_entry_table+0x1fb>
    5a0f:	be 3b 00 00 00       	mov    $0x3b,%esi
    5a14:	e8 57 51 00 00       	call   ab70 <__assert>
    5a19:	48 8b 44 24 08       	mov    0x8(%rsp),%rax
    5a1e:	48 89 ea             	mov    %rbp,%rdx
    5a21:	48 03 10             	add    (%rax),%rdx
    5a24:	41 39 5f 2c          	cmp    %ebx,0x2c(%r15)
    5a28:	44 8b 1a             	mov    (%rdx),%r11d
    5a2b:	44 8b 52 04          	mov    0x4(%rdx),%r10d
    5a2f:	44 8b 4a 08          	mov    0x8(%rdx),%r9d
    5a33:	44 8b 42 0c          	mov    0xc(%rdx),%r8d
    5a37:	8b 42 10             	mov    0x10(%rdx),%eax
    5a3a:	44 8b 72 14          	mov    0x14(%rdx),%r14d
    5a3e:	44 8b 6a 18          	mov    0x18(%rdx),%r13d
    5a42:	44 8b 62 1c          	mov    0x1c(%rdx),%r12d
    5a46:	7f 4f                	jg     5a97 <_Z4joinR5TableS0_S0_+0x167>
    5a48:	48 8d 0d 99 b7 01 00 	lea    0x1b799(%rip),%rcx        # 211e8 <g_dyn_entry_table+0x1e8>
    5a4f:	48 8d 15 80 b8 01 00 	lea    0x1b880(%rip),%rdx        # 212d6 <_ZZN8TraceMemIN5Table10TableEntryEE5writeEiS1_E8__func__>
    5a56:	48 8d 3d 9e b7 01 00 	lea    0x1b79e(%rip),%rdi        # 211fb <g_dyn_entry_table+0x1fb>
    5a5d:	be 48 00 00 00       	mov    $0x48,%esi
    5a62:	44 89 5c 24 34       	mov    %r11d,0x34(%rsp)
    5a67:	44 89 54 24 30       	mov    %r10d,0x30(%rsp)
    5a6c:	44 89 44 24 28       	mov    %r8d,0x28(%rsp)
    5a71:	89 44 24 20          	mov    %eax,0x20(%rsp)
    5a75:	44 89 4c 24 1c       	mov    %r9d,0x1c(%rsp)
    5a7a:	e8 f1 50 00 00       	call   ab70 <__assert>
    5a7f:	44 8b 5c 24 34       	mov    0x34(%rsp),%r11d
    5a84:	44 8b 54 24 30       	mov    0x30(%rsp),%r10d
    5a89:	44 8b 44 24 28       	mov    0x28(%rsp),%r8d
    5a8e:	8b 44 24 20          	mov    0x20(%rsp),%eax
    5a92:	44 8b 4c 24 1c       	mov    0x1c(%rsp),%r9d
    5a97:	48 89 ea             	mov    %rbp,%rdx
    5a9a:	83 c3 01             	add    $0x1,%ebx
    5a9d:	49 03 17             	add    (%r15),%rdx
    5aa0:	48 83 c5 20          	add    $0x20,%rbp
    5aa4:	39 5c 24 4c          	cmp    %ebx,0x4c(%rsp)
    5aa8:	44 89 1a             	mov    %r11d,(%rdx)
    5aab:	44 89 52 04          	mov    %r10d,0x4(%rdx)
    5aaf:	44 89 4a 08          	mov    %r9d,0x8(%rdx)
    5ab3:	44 89 42 0c          	mov    %r8d,0xc(%rdx)
    5ab7:	89 42 10             	mov    %eax,0x10(%rdx)
    5aba:	44 89 72 14          	mov    %r14d,0x14(%rdx)
    5abe:	44 89 6a 18          	mov    %r13d,0x18(%rdx)
    5ac2:	44 89 62 1c          	mov    %r12d,0x1c(%rdx)
    5ac6:	74 58                	je     5b20 <_Z4joinR5TableS0_S0_+0x1f0>
    5ac8:	85 db                	test   %ebx,%ebx
    5aca:	0f 89 20 ff ff ff    	jns    59f0 <_Z4joinR5TableS0_S0_+0xc0>
    5ad0:	48 8d 15 05 b8 01 00 	lea    0x1b805(%rip),%rdx        # 212dc <_ZZN8TraceMemIN5Table10TableEntryEE4readEiE8__func__>
    5ad7:	48 8d 0d 0a b7 01 00 	lea    0x1b70a(%rip),%rcx        # 211e8 <g_dyn_entry_table+0x1e8>
    5ade:	48 8d 3d 16 b7 01 00 	lea    0x1b716(%rip),%rdi        # 211fb <g_dyn_entry_table+0x1fb>
    5ae5:	be 3b 00 00 00       	mov    $0x3b,%esi
    5aea:	e8 81 50 00 00       	call   ab70 <__assert>
    5aef:	48 8b 44 24 08       	mov    0x8(%rsp),%rax
    5af4:	48 89 ea             	mov    %rbp,%rdx
    5af7:	48 03 10             	add    (%rax),%rdx
    5afa:	44 8b 1a             	mov    (%rdx),%r11d
    5afd:	44 8b 52 04          	mov    0x4(%rdx),%r10d
    5b01:	44 8b 4a 08          	mov    0x8(%rdx),%r9d
    5b05:	44 8b 42 0c          	mov    0xc(%rdx),%r8d
    5b09:	8b 42 10             	mov    0x10(%rdx),%eax
    5b0c:	44 8b 72 14          	mov    0x14(%rdx),%r14d
    5b10:	44 8b 6a 18          	mov    0x18(%rdx),%r13d
    5b14:	44 8b 62 1c          	mov    0x1c(%rdx),%r12d
    5b18:	e9 2b ff ff ff       	jmp    5a48 <_Z4joinR5TableS0_S0_+0x118>
    5b1d:	0f 1f 00             	nopl   (%rax)
    5b20:	48 8b 44 24 50       	mov    0x50(%rsp),%rax
    5b25:	8b 70 2c             	mov    0x2c(%rax),%esi
    5b28:	85 f6                	test   %esi,%esi
    5b2a:	0f 8e 14 03 00 00    	jle    5e44 <_Z4joinR5TableS0_S0_+0x514>
    5b30:	48 8b 44 24 50       	mov    0x50(%rsp),%rax
    5b35:	45 31 ed             	xor    %r13d,%r13d
    5b38:	45 31 c0             	xor    %r8d,%r8d
    5b3b:	48 8b 38             	mov    (%rax),%rdi
    5b3e:	49 89 c1             	mov    %rax,%r9
    5b41:	eb 0d                	jmp    5b50 <_Z4joinR5TableS0_S0_+0x220>
    5b43:	0f 1f 44 00 00       	nopl   0x0(%rax,%rax,1)
    5b48:	41 8b 71 2c          	mov    0x2c(%r9),%esi
    5b4c:	49 83 c5 01          	add    $0x1,%r13
    5b50:	4d 89 ef             	mov    %r13,%r15
    5b53:	31 db                	xor    %ebx,%ebx
    5b55:	49 c1 e7 05          	shl    $0x5,%r15
    5b59:	4a 8d 14 3f          	lea    (%rdi,%r15,1),%rdx
    5b5d:	44 8b 22             	mov    (%rdx),%r12d
    5b60:	44 8b 72 14          	mov    0x14(%rdx),%r14d
    5b64:	8b 42 0c             	mov    0xc(%rdx),%eax
    5b67:	44 8b 5a 04          	mov    0x4(%rdx),%r11d
    5b6b:	44 8b 52 08          	mov    0x8(%rdx),%r10d
    5b6f:	45 85 e4             	test   %r12d,%r12d
    5b72:	0f 95 c3             	setne  %bl
    5b75:	31 c9                	xor    %ecx,%ecx
    5b77:	89 44 24 1c          	mov    %eax,0x1c(%rsp)
    5b7b:	41 0f af de          	imul   %r14d,%ebx
    5b7f:	45 85 e4             	test   %r12d,%r12d
    5b82:	8b 42 10             	mov    0x10(%rdx),%eax
    5b85:	0f 94 c1             	sete   %cl
    5b88:	29 cb                	sub    %ecx,%ebx
    5b8a:	89 44 24 20          	mov    %eax,0x20(%rsp)
    5b8e:	8b 42 1c             	mov    0x1c(%rdx),%eax
    5b91:	0f 95 c1             	setne  %cl
    5b94:	31 ed                	xor    %ebp,%ebp
    5b96:	0f b6 c9             	movzbl %cl,%ecx
    5b99:	44 0f af e1          	imul   %ecx,%r12d
    5b9d:	85 db                	test   %ebx,%ebx
    5b9f:	40 0f 94 c5          	sete   %bpl
    5ba3:	0f af 6a 18          	imul   0x18(%rdx),%ebp
    5ba7:	41 0f af c8          	imul   %r8d,%ecx
    5bab:	01 cd                	add    %ecx,%ebp
    5bad:	44 39 ee             	cmp    %r13d,%esi
    5bb0:	7f 5a                	jg     5c0c <_Z4joinR5TableS0_S0_+0x2dc>
    5bb2:	48 8d 15 1d b7 01 00 	lea    0x1b71d(%rip),%rdx        # 212d6 <_ZZN8TraceMemIN5Table10TableEntryEE5writeEiS1_E8__func__>
    5bb9:	48 8d 3d 3b b6 01 00 	lea    0x1b63b(%rip),%rdi        # 211fb <g_dyn_entry_table+0x1fb>
    5bc0:	48 8d 0d 21 b6 01 00 	lea    0x1b621(%rip),%rcx        # 211e8 <g_dyn_entry_table+0x1e8>
    5bc7:	be 48 00 00 00       	mov    $0x48,%esi
    5bcc:	4c 89 4c 24 40       	mov    %r9,0x40(%rsp)
    5bd1:	44 89 44 24 38       	mov    %r8d,0x38(%rsp)
    5bd6:	89 44 24 34          	mov    %eax,0x34(%rsp)
    5bda:	44 89 54 24 30       	mov    %r10d,0x30(%rsp)
    5bdf:	44 89 5c 24 28       	mov    %r11d,0x28(%rsp)
    5be4:	e8 87 4f 00 00       	call   ab70 <__assert>
    5be9:	4c 8b 4c 24 40       	mov    0x40(%rsp),%r9
    5bee:	44 8b 44 24 38       	mov    0x38(%rsp),%r8d
    5bf3:	8b 44 24 34          	mov    0x34(%rsp),%eax
    5bf7:	44 8b 54 24 30       	mov    0x30(%rsp),%r10d
    5bfc:	44 8b 5c 24 28       	mov    0x28(%rsp),%r11d
    5c01:	49 8b 39             	mov    (%r9),%rdi
    5c04:	41 8b 71 2c          	mov    0x2c(%r9),%esi
    5c08:	4a 8d 14 3f          	lea    (%rdi,%r15,1),%rdx
    5c0c:	8b 4c 24 1c          	mov    0x1c(%rsp),%ecx
    5c10:	89 42 1c             	mov    %eax,0x1c(%rdx)
    5c13:	41 8d 45 01          	lea    0x1(%r13),%eax
    5c17:	41 01 d8             	add    %ebx,%r8d
    5c1a:	44 89 22             	mov    %r12d,(%rdx)
    5c1d:	44 89 5a 04          	mov    %r11d,0x4(%rdx)
    5c21:	39 f0                	cmp    %esi,%eax
    5c23:	44 89 52 08          	mov    %r10d,0x8(%rdx)
    5c27:	44 89 72 14          	mov    %r14d,0x14(%rdx)
    5c2b:	89 4a 0c             	mov    %ecx,0xc(%rdx)
    5c2e:	8b 4c 24 20          	mov    0x20(%rsp),%ecx
    5c32:	89 6a 18             	mov    %ebp,0x18(%rdx)
    5c35:	89 4a 10             	mov    %ecx,0x10(%rdx)
    5c38:	0f 8c 0a ff ff ff    	jl     5b48 <_Z4joinR5TableS0_S0_+0x218>
    5c3e:	4c 8b 7c 24 50       	mov    0x50(%rsp),%r15
    5c43:	44 89 c6             	mov    %r8d,%esi
    5c46:	44 89 c3             	mov    %r8d,%ebx
    5c49:	44 89 44 24 58       	mov    %r8d,0x58(%rsp)
    5c4e:	4c 89 ff             	mov    %r15,%rdi
    5c51:	e8 2a f9 ff ff       	call   5580 <_Z16obliv_distributeIN5Table10TableEntryEXadL_ZNS0_9entry_indES1_EEEvP8TraceMemIT_Ei>
    5c56:	bf 01 00 00 00       	mov    $0x1,%edi
    5c5b:	e8 50 e0 ff ff       	call   3cb0 <get_time>
    5c60:	85 db                	test   %ebx,%ebx
    5c62:	c7 44 24 60 00 00 00 	movl   $0x0,0x60(%rsp)
    5c69:	00 
    5c6a:	0f 8e f0 01 00 00    	jle    5e60 <_Z4joinR5TableS0_S0_+0x530>
    5c70:	45 31 e4             	xor    %r12d,%r12d
    5c73:	c7 44 24 1c 00 00 00 	movl   $0x0,0x1c(%rsp)
    5c7a:	00 
    5c7b:	e9 1a 01 00 00       	jmp    5d9a <_Z4joinR5TableS0_S0_+0x46a>
    5c80:	48 8d 84 24 80 00 00 	lea    0x80(%rsp),%rax
    5c87:	00 
    5c88:	48 8b 10             	mov    (%rax),%rdx
    5c8b:	44 8b b4 24 90 00 00 	mov    0x90(%rsp),%r14d
    5c92:	00 
    5c93:	31 f6                	xor    %esi,%esi
    5c95:	85 db                	test   %ebx,%ebx
    5c97:	44 8b 94 24 94 00 00 	mov    0x94(%rsp),%r10d
    5c9e:	00 
    5c9f:	44 8b 84 24 98 00 00 	mov    0x98(%rsp),%r8d
    5ca6:	00 
    5ca7:	40 0f 94 c6          	sete   %sil
    5cab:	4c 89 4c 24 28       	mov    %r9,0x28(%rsp)
    5cb0:	44 8b 9c 24 84 00 00 	mov    0x84(%rsp),%r11d
    5cb7:	00 
    5cb8:	48 89 54 24 60       	mov    %rdx,0x60(%rsp)
    5cbd:	48 8b 50 08          	mov    0x8(%rax),%rdx
    5cc1:	0f af 74 24 1c       	imul   0x1c(%rsp),%esi
    5cc6:	48 89 54 24 68       	mov    %rdx,0x68(%rsp)
    5ccb:	48 8b 50 10          	mov    0x10(%rax),%rdx
    5ccf:	48 89 54 24 70       	mov    %rdx,0x70(%rsp)
    5cd4:	48 8b 40 18          	mov    0x18(%rax),%rax
    5cd8:	41 01 f0             	add    %esi,%r8d
    5cdb:	44 89 84 24 98 00 00 	mov    %r8d,0x98(%rsp)
    5ce2:	00 
    5ce3:	48 89 44 24 78       	mov    %rax,0x78(%rsp)
    5ce8:	44 89 e8             	mov    %r13d,%eax
    5ceb:	99                   	cltd   
    5cec:	41 f7 fe             	idiv   %r14d
    5cef:	41 0f af d2          	imul   %r10d,%edx
    5cf3:	45 3b 6f 2c          	cmp    0x2c(%r15),%r13d
    5cf7:	8d 2c 02             	lea    (%rdx,%rax,1),%ebp
    5cfa:	8d 46 01             	lea    0x1(%rsi),%eax
    5cfd:	89 44 24 1c          	mov    %eax,0x1c(%rsp)
    5d01:	8b 84 24 88 00 00 00 	mov    0x88(%rsp),%eax
    5d08:	89 ac 24 9c 00 00 00 	mov    %ebp,0x9c(%rsp)
    5d0f:	89 44 24 20          	mov    %eax,0x20(%rsp)
    5d13:	8b 84 24 8c 00 00 00 	mov    0x8c(%rsp),%eax
    5d1a:	7c 50                	jl     5d6c <_Z4joinR5TableS0_S0_+0x43c>
    5d1c:	48 8d 0d c5 b4 01 00 	lea    0x1b4c5(%rip),%rcx        # 211e8 <g_dyn_entry_table+0x1e8>
    5d23:	48 8d 15 ac b5 01 00 	lea    0x1b5ac(%rip),%rdx        # 212d6 <_ZZN8TraceMemIN5Table10TableEntryEE5writeEiS1_E8__func__>
    5d2a:	48 8d 3d ca b4 01 00 	lea    0x1b4ca(%rip),%rdi        # 211fb <g_dyn_entry_table+0x1fb>
    5d31:	be 48 00 00 00       	mov    $0x48,%esi
    5d36:	89 44 24 40          	mov    %eax,0x40(%rsp)
    5d3a:	44 89 5c 24 38       	mov    %r11d,0x38(%rsp)
    5d3f:	44 89 54 24 34       	mov    %r10d,0x34(%rsp)
    5d44:	44 89 44 24 30       	mov    %r8d,0x30(%rsp)
    5d49:	e8 22 4e 00 00       	call   ab70 <__assert>
    5d4e:	4c 8b 4c 24 28       	mov    0x28(%rsp),%r9
    5d53:	8b 44 24 40          	mov    0x40(%rsp),%eax
    5d57:	44 8b 5c 24 38       	mov    0x38(%rsp),%r11d
    5d5c:	44 8b 54 24 34       	mov    0x34(%rsp),%r10d
    5d61:	44 8b 44 24 30       	mov    0x30(%rsp),%r8d
    5d66:	4c 89 c9             	mov    %r9,%rcx
    5d69:	49 03 0f             	add    (%r15),%rcx
    5d6c:	49 83 c4 01          	add    $0x1,%r12
    5d70:	44 39 64 24 58       	cmp    %r12d,0x58(%rsp)
    5d75:	8b 7c 24 20          	mov    0x20(%rsp),%edi
    5d79:	89 19                	mov    %ebx,(%rcx)
    5d7b:	44 89 59 04          	mov    %r11d,0x4(%rcx)
    5d7f:	89 41 0c             	mov    %eax,0xc(%rcx)
    5d82:	44 89 71 10          	mov    %r14d,0x10(%rcx)
    5d86:	89 79 08             	mov    %edi,0x8(%rcx)
    5d89:	44 89 51 14          	mov    %r10d,0x14(%rcx)
    5d8d:	44 89 41 18          	mov    %r8d,0x18(%rcx)
    5d91:	89 69 1c             	mov    %ebp,0x1c(%rcx)
    5d94:	0f 8e c6 00 00 00    	jle    5e60 <_Z4joinR5TableS0_S0_+0x530>
    5d9a:	45 3b 67 2c          	cmp    0x2c(%r15),%r12d
    5d9e:	45 89 e5             	mov    %r12d,%r13d
    5da1:	7c 1f                	jl     5dc2 <_Z4joinR5TableS0_S0_+0x492>
    5da3:	48 8d 0d 3e b4 01 00 	lea    0x1b43e(%rip),%rcx        # 211e8 <g_dyn_entry_table+0x1e8>
    5daa:	48 8d 15 2b b5 01 00 	lea    0x1b52b(%rip),%rdx        # 212dc <_ZZN8TraceMemIN5Table10TableEntryEE4readEiE8__func__>
    5db1:	48 8d 3d 43 b4 01 00 	lea    0x1b443(%rip),%rdi        # 211fb <g_dyn_entry_table+0x1fb>
    5db8:	be 3b 00 00 00       	mov    $0x3b,%esi
    5dbd:	e8 ae 4d 00 00       	call   ab70 <__assert>
    5dc2:	4d 89 e1             	mov    %r12,%r9
    5dc5:	49 c1 e1 05          	shl    $0x5,%r9
    5dc9:	4c 89 c9             	mov    %r9,%rcx
    5dcc:	49 03 0f             	add    (%r15),%rcx
    5dcf:	48 8b 41 08          	mov    0x8(%rcx),%rax
    5dd3:	48 8b 19             	mov    (%rcx),%rbx
    5dd6:	48 89 84 24 88 00 00 	mov    %rax,0x88(%rsp)
    5ddd:	00 
    5dde:	48 8b 41 10          	mov    0x10(%rcx),%rax
    5de2:	85 db                	test   %ebx,%ebx
    5de4:	48 89 9c 24 80 00 00 	mov    %rbx,0x80(%rsp)
    5deb:	00 
    5dec:	48 89 84 24 90 00 00 	mov    %rax,0x90(%rsp)
    5df3:	00 
    5df4:	48 8b 41 18          	mov    0x18(%rcx),%rax
    5df8:	48 89 84 24 98 00 00 	mov    %rax,0x98(%rsp)
    5dff:	00 
    5e00:	0f 85 7a fe ff ff    	jne    5c80 <_Z4joinR5TableS0_S0_+0x350>
    5e06:	48 8b 44 24 68       	mov    0x68(%rsp),%rax
    5e0b:	48 8b 5c 24 60       	mov    0x60(%rsp),%rbx
    5e10:	48 89 84 24 88 00 00 	mov    %rax,0x88(%rsp)
    5e17:	00 
    5e18:	48 8b 44 24 70       	mov    0x70(%rsp),%rax
    5e1d:	48 89 9c 24 80 00 00 	mov    %rbx,0x80(%rsp)
    5e24:	00 
    5e25:	48 89 84 24 90 00 00 	mov    %rax,0x90(%rsp)
    5e2c:	00 
    5e2d:	48 8b 44 24 78       	mov    0x78(%rsp),%rax
    5e32:	48 89 84 24 98 00 00 	mov    %rax,0x98(%rsp)
    5e39:	00 
    5e3a:	48 8d 44 24 60       	lea    0x60(%rsp),%rax
    5e3f:	e9 44 fe ff ff       	jmp    5c88 <_Z4joinR5TableS0_S0_+0x358>
    5e44:	48 8b 7c 24 50       	mov    0x50(%rsp),%rdi
    5e49:	31 f6                	xor    %esi,%esi
    5e4b:	e8 30 f7 ff ff       	call   5580 <_Z16obliv_distributeIN5Table10TableEntryEXadL_ZNS0_9entry_indES1_EEEvP8TraceMemIT_Ei>
    5e50:	bf 01 00 00 00       	mov    $0x1,%edi
    5e55:	e8 56 de ff ff       	call   3cb0 <get_time>
    5e5a:	66 0f 1f 44 00 00    	nopw   0x0(%rax,%rax,1)
    5e60:	bf 01 00 00 00       	mov    $0x1,%edi
    5e65:	e8 46 de ff ff       	call   3cb0 <get_time>
    5e6a:	8b 44 24 48          	mov    0x48(%rsp),%eax
    5e6e:	85 c0                	test   %eax,%eax
    5e70:	0f 8e 15 01 00 00    	jle    5f8b <_Z4joinR5TableS0_S0_+0x65b>
    5e76:	48 63 44 24 4c       	movslq 0x4c(%rsp),%rax
    5e7b:	31 db                	xor    %ebx,%ebx
    5e7d:	48 89 c5             	mov    %rax,%rbp
    5e80:	48 c1 e0 05          	shl    $0x5,%rax
    5e84:	49 89 c4             	mov    %rax,%r12
    5e87:	66 0f 1f 84 00 00 00 	nopw   0x0(%rax,%rax,1)
    5e8e:	00 00 
    5e90:	85 ed                	test   %ebp,%ebp
    5e92:	41 89 db             	mov    %ebx,%r11d
    5e95:	78 0a                	js     5ea1 <_Z4joinR5TableS0_S0_+0x571>
    5e97:	48 8b 44 24 08       	mov    0x8(%rsp),%rax
    5e9c:	3b 68 2c             	cmp    0x2c(%rax),%ebp
    5e9f:	7c 29                	jl     5eca <_Z4joinR5TableS0_S0_+0x59a>
    5ea1:	48 8d 0d 40 b3 01 00 	lea    0x1b340(%rip),%rcx        # 211e8 <g_dyn_entry_table+0x1e8>
    5ea8:	48 8d 15 2d b4 01 00 	lea    0x1b42d(%rip),%rdx        # 212dc <_ZZN8TraceMemIN5Table10TableEntryEE4readEiE8__func__>
    5eaf:	48 8d 3d 45 b3 01 00 	lea    0x1b345(%rip),%rdi        # 211fb <g_dyn_entry_table+0x1fb>
    5eb6:	be 3b 00 00 00       	mov    $0x3b,%esi
    5ebb:	44 89 5c 24 1c       	mov    %r11d,0x1c(%rsp)
    5ec0:	e8 ab 4c 00 00       	call   ab70 <__assert>
    5ec5:	44 8b 5c 24 1c       	mov    0x1c(%rsp),%r11d
    5eca:	48 8b 44 24 08       	mov    0x8(%rsp),%rax
    5ecf:	4c 89 e2             	mov    %r12,%rdx
    5ed2:	48 03 10             	add    (%rax),%rdx
    5ed5:	8b 7a 14             	mov    0x14(%rdx),%edi
    5ed8:	44 8b 12             	mov    (%rdx),%r10d
    5edb:	44 8b 4a 04          	mov    0x4(%rdx),%r9d
    5edf:	44 8b 42 08          	mov    0x8(%rdx),%r8d
    5ee3:	8b 42 0c             	mov    0xc(%rdx),%eax
    5ee6:	44 8b 7a 10          	mov    0x10(%rdx),%r15d
    5eea:	89 7c 24 1c          	mov    %edi,0x1c(%rsp)
    5eee:	48 8b 7c 24 10       	mov    0x10(%rsp),%rdi
    5ef3:	44 8b 72 18          	mov    0x18(%rdx),%r14d
    5ef7:	44 8b 6a 1c          	mov    0x1c(%rdx),%r13d
    5efb:	44 39 5f 2c          	cmp    %r11d,0x2c(%rdi)
    5eff:	7f 45                	jg     5f46 <_Z4joinR5TableS0_S0_+0x616>
    5f01:	48 8d 0d e0 b2 01 00 	lea    0x1b2e0(%rip),%rcx        # 211e8 <g_dyn_entry_table+0x1e8>
    5f08:	48 8d 15 c7 b3 01 00 	lea    0x1b3c7(%rip),%rdx        # 212d6 <_ZZN8TraceMemIN5Table10TableEntryEE5writeEiS1_E8__func__>
    5f0f:	48 8d 3d e5 b2 01 00 	lea    0x1b2e5(%rip),%rdi        # 211fb <g_dyn_entry_table+0x1fb>
    5f16:	be 48 00 00 00       	mov    $0x48,%esi
    5f1b:	89 44 24 34          	mov    %eax,0x34(%rsp)
    5f1f:	44 89 44 24 30       	mov    %r8d,0x30(%rsp)
    5f24:	44 89 4c 24 28       	mov    %r9d,0x28(%rsp)
    5f29:	44 89 54 24 20       	mov    %r10d,0x20(%rsp)
    5f2e:	e8 3d 4c 00 00       	call   ab70 <__assert>
    5f33:	8b 44 24 34          	mov    0x34(%rsp),%eax
    5f37:	44 8b 44 24 30       	mov    0x30(%rsp),%r8d
    5f3c:	44 8b 4c 24 28       	mov    0x28(%rsp),%r9d
    5f41:	44 8b 54 24 20       	mov    0x20(%rsp),%r10d
    5f46:	48 8b 7c 24 10       	mov    0x10(%rsp),%rdi
    5f4b:	48 89 da             	mov    %rbx,%rdx
    5f4e:	83 c5 01             	add    $0x1,%ebp
    5f51:	48 c1 e2 05          	shl    $0x5,%rdx
    5f55:	48 83 c3 01          	add    $0x1,%rbx
    5f59:	49 83 c4 20          	add    $0x20,%r12
    5f5d:	48 03 17             	add    (%rdi),%rdx
    5f60:	39 5c 24 48          	cmp    %ebx,0x48(%rsp)
    5f64:	89 42 0c             	mov    %eax,0xc(%rdx)
    5f67:	8b 44 24 1c          	mov    0x1c(%rsp),%eax
    5f6b:	44 89 12             	mov    %r10d,(%rdx)
    5f6e:	44 89 4a 04          	mov    %r9d,0x4(%rdx)
    5f72:	44 89 42 08          	mov    %r8d,0x8(%rdx)
    5f76:	44 89 7a 10          	mov    %r15d,0x10(%rdx)
    5f7a:	89 42 14             	mov    %eax,0x14(%rdx)
    5f7d:	44 89 72 18          	mov    %r14d,0x18(%rdx)
    5f81:	44 89 6a 1c          	mov    %r13d,0x1c(%rdx)
    5f85:	0f 8f 05 ff ff ff    	jg     5e90 <_Z4joinR5TableS0_S0_+0x560>
    5f8b:	48 8b 44 24 10       	mov    0x10(%rsp),%rax
    5f90:	8b 70 2c             	mov    0x2c(%rax),%esi
    5f93:	85 f6                	test   %esi,%esi
    5f95:	0f 8e 19 03 00 00    	jle    62b4 <_Z4joinR5TableS0_S0_+0x984>
    5f9b:	48 8b 44 24 10       	mov    0x10(%rsp),%rax
    5fa0:	45 31 ed             	xor    %r13d,%r13d
    5fa3:	45 31 c0             	xor    %r8d,%r8d
    5fa6:	48 8b 38             	mov    (%rax),%rdi
    5fa9:	49 89 c1             	mov    %rax,%r9
    5fac:	eb 0a                	jmp    5fb8 <_Z4joinR5TableS0_S0_+0x688>
    5fae:	66 90                	xchg   %ax,%ax
    5fb0:	41 8b 71 2c          	mov    0x2c(%r9),%esi
    5fb4:	49 83 c5 01          	add    $0x1,%r13
    5fb8:	4d 89 ef             	mov    %r13,%r15
    5fbb:	31 db                	xor    %ebx,%ebx
    5fbd:	49 c1 e7 05          	shl    $0x5,%r15
    5fc1:	4a 8d 14 3f          	lea    (%rdi,%r15,1),%rdx
    5fc5:	44 8b 22             	mov    (%rdx),%r12d
    5fc8:	44 8b 72 10          	mov    0x10(%rdx),%r14d
    5fcc:	8b 42 0c             	mov    0xc(%rdx),%eax
    5fcf:	44 8b 5a 04          	mov    0x4(%rdx),%r11d
    5fd3:	44 8b 52 08          	mov    0x8(%rdx),%r10d
    5fd7:	45 85 e4             	test   %r12d,%r12d
    5fda:	0f 95 c3             	setne  %bl
    5fdd:	31 c9                	xor    %ecx,%ecx
    5fdf:	89 44 24 08          	mov    %eax,0x8(%rsp)
    5fe3:	41 0f af de          	imul   %r14d,%ebx
    5fe7:	45 85 e4             	test   %r12d,%r12d
    5fea:	8b 42 14             	mov    0x14(%rdx),%eax
    5fed:	0f 94 c1             	sete   %cl
    5ff0:	29 cb                	sub    %ecx,%ebx
    5ff2:	89 44 24 1c          	mov    %eax,0x1c(%rsp)
    5ff6:	8b 42 1c             	mov    0x1c(%rdx),%eax
    5ff9:	0f 95 c1             	setne  %cl
    5ffc:	31 ed                	xor    %ebp,%ebp
    5ffe:	0f b6 c9             	movzbl %cl,%ecx
    6001:	44 0f af e1          	imul   %ecx,%r12d
    6005:	85 db                	test   %ebx,%ebx
    6007:	40 0f 94 c5          	sete   %bpl
    600b:	0f af 6a 18          	imul   0x18(%rdx),%ebp
    600f:	41 0f af c8          	imul   %r8d,%ecx
    6013:	01 cd                	add    %ecx,%ebp
    6015:	44 39 ee             	cmp    %r13d,%esi
    6018:	7f 5a                	jg     6074 <_Z4joinR5TableS0_S0_+0x744>
    601a:	48 8d 15 b5 b2 01 00 	lea    0x1b2b5(%rip),%rdx        # 212d6 <_ZZN8TraceMemIN5Table10TableEntryEE5writeEiS1_E8__func__>
    6021:	48 8d 3d d3 b1 01 00 	lea    0x1b1d3(%rip),%rdi        # 211fb <g_dyn_entry_table+0x1fb>
    6028:	48 8d 0d b9 b1 01 00 	lea    0x1b1b9(%rip),%rcx        # 211e8 <g_dyn_entry_table+0x1e8>
    602f:	be 48 00 00 00       	mov    $0x48,%esi
    6034:	4c 89 4c 24 38       	mov    %r9,0x38(%rsp)
    6039:	44 89 44 24 34       	mov    %r8d,0x34(%rsp)
    603e:	89 44 24 30          	mov    %eax,0x30(%rsp)
    6042:	44 89 54 24 28       	mov    %r10d,0x28(%rsp)
    6047:	44 89 5c 24 20       	mov    %r11d,0x20(%rsp)
    604c:	e8 1f 4b 00 00       	call   ab70 <__assert>
    6051:	4c 8b 4c 24 38       	mov    0x38(%rsp),%r9
    6056:	44 8b 44 24 34       	mov    0x34(%rsp),%r8d
    605b:	8b 44 24 30          	mov    0x30(%rsp),%eax
    605f:	44 8b 54 24 28       	mov    0x28(%rsp),%r10d
    6064:	44 8b 5c 24 20       	mov    0x20(%rsp),%r11d
    6069:	49 8b 39             	mov    (%r9),%rdi
    606c:	41 8b 71 2c          	mov    0x2c(%r9),%esi
    6070:	4a 8d 14 3f          	lea    (%rdi,%r15,1),%rdx
    6074:	8b 4c 24 08          	mov    0x8(%rsp),%ecx
    6078:	89 42 1c             	mov    %eax,0x1c(%rdx)
    607b:	41 8d 45 01          	lea    0x1(%r13),%eax
    607f:	41 01 d8             	add    %ebx,%r8d
    6082:	44 89 22             	mov    %r12d,(%rdx)
    6085:	44 89 5a 04          	mov    %r11d,0x4(%rdx)
    6089:	39 f0                	cmp    %esi,%eax
    608b:	44 89 52 08          	mov    %r10d,0x8(%rdx)
    608f:	44 89 72 10          	mov    %r14d,0x10(%rdx)
    6093:	89 4a 0c             	mov    %ecx,0xc(%rdx)
    6096:	8b 4c 24 1c          	mov    0x1c(%rsp),%ecx
    609a:	89 6a 18             	mov    %ebp,0x18(%rdx)
    609d:	89 4a 14             	mov    %ecx,0x14(%rdx)
    60a0:	0f 8c 0a ff ff ff    	jl     5fb0 <_Z4joinR5TableS0_S0_+0x680>
    60a6:	4c 8b 7c 24 10       	mov    0x10(%rsp),%r15
    60ab:	44 89 c6             	mov    %r8d,%esi
    60ae:	44 89 c3             	mov    %r8d,%ebx
    60b1:	44 89 44 24 40       	mov    %r8d,0x40(%rsp)
    60b6:	4c 89 ff             	mov    %r15,%rdi
    60b9:	e8 c2 f4 ff ff       	call   5580 <_Z16obliv_distributeIN5Table10TableEntryEXadL_ZNS0_9entry_indES1_EEEvP8TraceMemIT_Ei>
    60be:	bf 01 00 00 00       	mov    $0x1,%edi
    60c3:	e8 e8 db ff ff       	call   3cb0 <get_time>
    60c8:	85 db                	test   %ebx,%ebx
    60ca:	c7 44 24 60 00 00 00 	movl   $0x0,0x60(%rsp)
    60d1:	00 
    60d2:	0f 8e f8 01 00 00    	jle    62d0 <_Z4joinR5TableS0_S0_+0x9a0>
    60d8:	45 31 e4             	xor    %r12d,%r12d
    60db:	c7 44 24 08 00 00 00 	movl   $0x0,0x8(%rsp)
    60e2:	00 
    60e3:	e9 22 01 00 00       	jmp    620a <_Z4joinR5TableS0_S0_+0x8da>
    60e8:	0f 1f 84 00 00 00 00 	nopl   0x0(%rax,%rax,1)
    60ef:	00 
    60f0:	48 8d 84 24 80 00 00 	lea    0x80(%rsp),%rax
    60f7:	00 
    60f8:	48 8b 10             	mov    (%rax),%rdx
    60fb:	44 8b b4 24 90 00 00 	mov    0x90(%rsp),%r14d
    6102:	00 
    6103:	31 f6                	xor    %esi,%esi
    6105:	85 db                	test   %ebx,%ebx
    6107:	44 8b 8c 24 94 00 00 	mov    0x94(%rsp),%r9d
    610e:	00 
    610f:	44 8b 84 24 98 00 00 	mov    0x98(%rsp),%r8d
    6116:	00 
    6117:	40 0f 94 c6          	sete   %sil
    611b:	4c 89 54 24 20       	mov    %r10,0x20(%rsp)
    6120:	44 8b 9c 24 84 00 00 	mov    0x84(%rsp),%r11d
    6127:	00 
    6128:	48 89 54 24 60       	mov    %rdx,0x60(%rsp)
    612d:	48 8b 50 08          	mov    0x8(%rax),%rdx
    6131:	0f af 74 24 08       	imul   0x8(%rsp),%esi
    6136:	48 89 54 24 68       	mov    %rdx,0x68(%rsp)
    613b:	48 8b 50 10          	mov    0x10(%rax),%rdx
    613f:	48 89 54 24 70       	mov    %rdx,0x70(%rsp)
    6144:	48 8b 40 18          	mov    0x18(%rax),%rax
    6148:	41 01 f0             	add    %esi,%r8d
