
enclave.signed.so:     file format elf64-x86-64


Disassembly of section .plt:

0000000000002000 <.plt>:
    2000:	ff 35 02 a0 02 00    	push   0x2a002(%rip)        # 2c008 <_GLOBAL_OFFSET_TABLE_+0x8>
    2006:	ff 25 04 a0 02 00    	jmp    *0x2a004(%rip)        # 2c010 <_GLOBAL_OFFSET_TABLE_+0x10>
    200c:	0f 1f 40 00          	nopl   0x0(%rax)

Disassembly of section .plt.got:

0000000000002010 <_Z9pcl_entryPvS_@plt>:
    2010:	ff 25 c2 9f 02 00    	jmp    *0x29fc2(%rip)        # 2bfd8 <_Z9pcl_entryPvS_>
    2016:	66 90                	xchg   %ax,%ax

0000000000002018 <ippcpSetCpuFeatures@plt>:
    2018:	ff 25 d2 9f 02 00    	jmp    *0x29fd2(%rip)        # 2bff0 <ippcpSetCpuFeatures>
    201e:	66 90                	xchg   %ax,%ax

Disassembly of section .text:

0000000000002020 <_ZSt10unexpectedv.cold>:
    2020:	48 8d 3d b1 b0 02 00 	lea    0x2b0b1(%rip),%rdi        # 2d0d8 <_ZGVZSt10unexpectedvE4info>
    2027:	e8 d4 ae 01 00       	call   1cf00 <__cxa_guard_abort>
    202c:	48 89 ef             	mov    %rbp,%rdi
    202f:	e8 cc 73 01 00       	call   19400 <_Unwind_Resume>

0000000000002034 <__cxa_call_unexpected>:
    2034:	f3 0f 1e fa          	endbr64 
    2038:	50                   	push   %rax
    2039:	58                   	pop    %rax
    203a:	50                   	push   %rax
    203b:	48 b8 00 2b 2b 43 43 	movabs $0x474e5543432b2b00,%rax
    2042:	55 4e 47 
    2045:	48 39 07             	cmp    %rax,(%rdi)
    2048:	75 10                	jne    205a <__cxa_call_unexpected+0x26>
    204a:	48 8b 47 b8          	mov    -0x48(%rdi),%rax
    204e:	48 85 c0             	test   %rax,%rax
    2051:	74 07                	je     205a <__cxa_call_unexpected+0x26>
    2053:	ff d0                	call   *%rax
    2055:	e8 aa f5 01 00       	call   21604 <abort>
    205a:	e8 b1 a3 01 00       	call   1c410 <_ZSt10unexpectedv>
    205f:	e8 a0 f5 01 00       	call   21604 <abort>

0000000000002064 <__cxa_begin_catch.cold>:
    2064:	48 83 c0 01          	add    $0x1,%rax
    2068:	75 05                	jne    206f <__cxa_begin_catch.cold+0xb>
    206a:	e8 c5 ff ff ff       	call   2034 <__cxa_call_unexpected>
    206f:	e8 8c 73 01 00       	call   19400 <_Unwind_Resume>

0000000000002074 <_ZSt9terminatev.cold>:
    2074:	48 8d 3d 6d b0 02 00 	lea    0x2b06d(%rip),%rdi        # 2d0e8 <_ZGVZSt9terminatevE4info>
    207b:	e8 80 ae 01 00       	call   1cf00 <__cxa_guard_abort>
    2080:	48 89 ef             	mov    %rbp,%rdi
    2083:	e8 78 73 01 00       	call   19400 <_Unwind_Resume>
    2088:	e8 03 a4 01 00       	call   1c490 <__cxa_begin_catch>
    208d:	e8 72 f5 01 00       	call   21604 <abort>
    2092:	e8 f9 a3 01 00       	call   1c490 <__cxa_begin_catch>
    2097:	e8 68 f5 01 00       	call   21604 <abort>
    209c:	f3 0f 1e fa          	endbr64 
    20a0:	48 89 c5             	mov    %rax,%rbp
    20a3:	e8 b8 a5 01 00       	call   1c660 <__cxa_end_catch>
    20a8:	48 89 ef             	mov    %rbp,%rdi
    20ab:	e8 50 73 01 00       	call   19400 <_Unwind_Resume>
    20b0:	f3 0f 1e fa          	endbr64 
    20b4:	48 89 c5             	mov    %rax,%rbp
    20b7:	e8 a4 a5 01 00       	call   1c660 <__cxa_end_catch>
    20bc:	48 89 ef             	mov    %rbp,%rdi
    20bf:	e8 3c 73 01 00       	call   19400 <_Unwind_Resume>

00000000000020c4 <__cxa_free_exception.cold>:
    20c4:	e8 c7 a3 01 00       	call   1c490 <__cxa_begin_catch>
    20c9:	e8 42 a4 01 00       	call   1c510 <_ZSt9terminatev>
    20ce:	f3 0f 1e fa          	endbr64 
    20d2:	48 89 c5             	mov    %rax,%rbp
    20d5:	e8 86 a5 01 00       	call   1c660 <__cxa_end_catch>
    20da:	48 89 ef             	mov    %rbp,%rdi
    20dd:	e8 1e 73 01 00       	call   19400 <_Unwind_Resume>

00000000000020e2 <_Znwm.cold>:
    20e2:	bf 08 00 00 00       	mov    $0x8,%edi
    20e7:	e8 04 a7 01 00       	call   1c7f0 <__cxa_allocate_exception>
    20ec:	48 89 c7             	mov    %rax,%rdi
    20ef:	48 89 c5             	mov    %rax,%rbp
    20f2:	e8 99 ae 01 00       	call   1cf90 <_ZNSt9bad_allocC1Ev>
    20f7:	48 8d 15 42 ae 01 00 	lea    0x1ae42(%rip),%rdx        # 1cf40 <_ZNSt9bad_allocD1Ev>
    20fe:	48 8d 35 6b 9c 02 00 	lea    0x29c6b(%rip),%rsi        # 2bd70 <_ZTISt9bad_alloc>
    2105:	48 89 ef             	mov    %rbp,%rdi
    2108:	e8 e3 a7 01 00       	call   1c8f0 <__cxa_throw>
    210d:	90                   	nop

000000000000210e <_ZNKSt3__120__vector_base_commonILb1EE20__throw_length_errorEv>:
    210e:	f3 0f 1e fa          	endbr64 
    2112:	41 54                	push   %r12
    2114:	bf 10 00 00 00       	mov    $0x10,%edi
    2119:	55                   	push   %rbp
    211a:	50                   	push   %rax
    211b:	e8 d0 a6 01 00       	call   1c7f0 <__cxa_allocate_exception>
    2120:	48 8d 35 be 13 02 00 	lea    0x213be(%rip),%rsi        # 234e5 <_ZTSN10__cxxabiv120__si_class_type_infoE+0x25>
    2127:	48 89 c7             	mov    %rax,%rdi
    212a:	48 89 c5             	mov    %rax,%rbp
    212d:	e8 5e b2 01 00       	call   1d390 <_ZNSt11logic_errorC1EPKc>
    2132:	48 8d 15 77 b0 01 00 	lea    0x1b077(%rip),%rdx        # 1d1b0 <_ZNSt12length_errorD1Ev>
    2139:	48 8d 05 78 9b 02 00 	lea    0x29b78(%rip),%rax        # 2bcb8 <_ZTVSt12length_error+0x10>
    2140:	48 8d 35 01 9d 02 00 	lea    0x29d01(%rip),%rsi        # 2be48 <_ZTISt12length_error>
    2147:	48 89 ef             	mov    %rbp,%rdi
    214a:	48 89 45 00          	mov    %rax,0x0(%rbp)
    214e:	e8 9d a7 01 00       	call   1c8f0 <__cxa_throw>
    2153:	f3 0f 1e fa          	endbr64 
    2157:	49 89 c4             	mov    %rax,%r12
    215a:	48 89 ef             	mov    %rbp,%rdi
    215d:	e8 3e a4 01 00       	call   1c5a0 <__cxa_free_exception>
    2162:	4c 89 e7             	mov    %r12,%rdi
    2165:	e8 96 72 01 00       	call   19400 <_Unwind_Resume>

000000000000216a <_ZNSt11logic_errorC2EPKc.cold>:
    216a:	4c 89 e7             	mov    %r12,%rdi
    216d:	e8 ae ad 01 00       	call   1cf20 <_ZNSt9exceptionD1Ev>
    2172:	48 89 ef             	mov    %rbp,%rdi
    2175:	e8 86 72 01 00       	call   19400 <_Unwind_Resume>

000000000000217a <_ZNSt13runtime_errorC2ERKNSt3__112basic_stringIcNS0_11char_traitsIcEENS0_9allocatorIcEEEE.cold>:
    217a:	4c 89 e7             	mov    %r12,%rdi
    217d:	e8 9e ad 01 00       	call   1cf20 <_ZNSt9exceptionD1Ev>
    2182:	48 89 ef             	mov    %rbp,%rdi
    2185:	e8 76 72 01 00       	call   19400 <_Unwind_Resume>

000000000000218a <_ZNSt13runtime_errorC2EPKc.cold>:
    218a:	4c 89 e7             	mov    %r12,%rdi
    218d:	e8 8e ad 01 00       	call   1cf20 <_ZNSt9exceptionD1Ev>
    2192:	48 89 ef             	mov    %rbp,%rdi
    2195:	e8 66 72 01 00       	call   19400 <_Unwind_Resume>

000000000000219a <_ZNKSt3__121__basic_string_commonILb1EE20__throw_length_errorEv>:
    219a:	f3 0f 1e fa          	endbr64 
    219e:	41 54                	push   %r12
    21a0:	bf 10 00 00 00       	mov    $0x10,%edi
    21a5:	55                   	push   %rbp
    21a6:	50                   	push   %rax
    21a7:	e8 44 a6 01 00       	call   1c7f0 <__cxa_allocate_exception>
    21ac:	48 8d 35 9e 13 02 00 	lea    0x2139e(%rip),%rsi        # 23551 <_ZTSSt12out_of_range+0x11>
    21b3:	48 89 c7             	mov    %rax,%rdi
    21b6:	48 89 c5             	mov    %rax,%rbp
    21b9:	e8 d2 b1 01 00       	call   1d390 <_ZNSt11logic_errorC1EPKc>
    21be:	48 8d 15 eb af 01 00 	lea    0x1afeb(%rip),%rdx        # 1d1b0 <_ZNSt12length_errorD1Ev>
    21c5:	48 8d 05 ec 9a 02 00 	lea    0x29aec(%rip),%rax        # 2bcb8 <_ZTVSt12length_error+0x10>
    21cc:	48 8d 35 75 9c 02 00 	lea    0x29c75(%rip),%rsi        # 2be48 <_ZTISt12length_error>
    21d3:	48 89 ef             	mov    %rbp,%rdi
    21d6:	48 89 45 00          	mov    %rax,0x0(%rbp)
    21da:	e8 11 a7 01 00       	call   1c8f0 <__cxa_throw>
    21df:	f3 0f 1e fa          	endbr64 
    21e3:	49 89 c4             	mov    %rax,%r12
    21e6:	48 89 ef             	mov    %rbp,%rdi
    21e9:	e8 b2 a3 01 00       	call   1c5a0 <__cxa_free_exception>
    21ee:	4c 89 e7             	mov    %r12,%rdi
    21f1:	e8 0a 72 01 00       	call   19400 <_Unwind_Resume>

00000000000021f6 <_ZNKSt3__121__basic_string_commonILb1EE20__throw_out_of_rangeEv>:
    21f6:	f3 0f 1e fa          	endbr64 
    21fa:	41 54                	push   %r12
    21fc:	bf 10 00 00 00       	mov    $0x10,%edi
    2201:	55                   	push   %rbp
    2202:	50                   	push   %rax
    2203:	e8 e8 a5 01 00       	call   1c7f0 <__cxa_allocate_exception>
    2208:	48 8d 35 42 13 02 00 	lea    0x21342(%rip),%rsi        # 23551 <_ZTSSt12out_of_range+0x11>
    220f:	48 89 c7             	mov    %rax,%rdi
    2212:	48 89 c5             	mov    %rax,%rbp
    2215:	e8 76 b1 01 00       	call   1d390 <_ZNSt11logic_errorC1EPKc>
    221a:	48 8d 15 df af 01 00 	lea    0x1afdf(%rip),%rdx        # 1d200 <_ZNSt12out_of_rangeD1Ev>
    2221:	48 8d 05 b8 9a 02 00 	lea    0x29ab8(%rip),%rax        # 2bce0 <_ZTVSt12out_of_range+0x10>
    2228:	48 8d 35 31 9c 02 00 	lea    0x29c31(%rip),%rsi        # 2be60 <_ZTISt12out_of_range>
    222f:	48 89 ef             	mov    %rbp,%rdi
    2232:	48 89 45 00          	mov    %rax,0x0(%rbp)
    2236:	e8 b5 a6 01 00       	call   1c8f0 <__cxa_throw>
    223b:	f3 0f 1e fa          	endbr64 
    223f:	49 89 c4             	mov    %rax,%r12
    2242:	48 89 ef             	mov    %rbp,%rdi
    2245:	e8 56 a3 01 00       	call   1c5a0 <__cxa_free_exception>
    224a:	4c 89 e7             	mov    %r12,%rdi
    224d:	e8 ae 71 01 00       	call   19400 <_Unwind_Resume>

0000000000002252 <_ULx86_64_r_uc_addr.cold>:
    2252:	31 c0                	xor    %eax,%eax
    2254:	c3                   	ret    

0000000000002255 <_ULx86_64_access_reg.cold>:
    2255:	b8 fd ff ff ff       	mov    $0xfffffffd,%eax
    225a:	e9 d9 c2 01 00       	jmp    1e538 <_ULx86_64_access_reg+0x58>
    225f:	90                   	nop

0000000000002260 <trts_access_version_dummy1>:
    2260:	f3 0f 1e fa          	endbr64 
    2264:	48 8d 05 55 9f 02 00 	lea    0x29f55(%rip),%rax        # 2c1c0 <sgx_trts_version>
    226b:	c6 00 73             	movb   $0x73,(%rax)
    226e:	c3                   	ret    
    226f:	90                   	nop

0000000000002270 <tstdc_access_version_dummy1>:
    2270:	f3 0f 1e fa          	endbr64 
    2274:	c6 05 75 9f 02 00 73 	movb   $0x73,0x29f75(%rip)        # 2c1f0 <sgx_tstdc_version>
    227b:	48 8d 05 6e 9f 02 00 	lea    0x29f6e(%rip),%rax        # 2c1f0 <sgx_tstdc_version>
    2282:	c3                   	ret    
    2283:	66 2e 0f 1f 84 00 00 	cs nopw 0x0(%rax,%rax,1)
    228a:	00 00 00 
    228d:	0f 1f 00             	nopl   (%rax)

0000000000002290 <tcxx_access_version_dummy1>:
    2290:	f3 0f 1e fa          	endbr64 
    2294:	c6 05 c5 9f 02 00 73 	movb   $0x73,0x29fc5(%rip)        # 2c260 <sgx_tcxx_version>
    229b:	48 8d 05 be 9f 02 00 	lea    0x29fbe(%rip),%rax        # 2c260 <sgx_tcxx_version>
    22a2:	c3                   	ret    
    22a3:	66 2e 0f 1f 84 00 00 	cs nopw 0x0(%rax,%rax,1)
    22aa:	00 00 00 
    22ad:	0f 1f 00             	nopl   (%rax)

00000000000022b0 <tcxx_access_version_dummy3>:
    22b0:	f3 0f 1e fa          	endbr64 
    22b4:	c6 05 a5 9f 02 00 73 	movb   $0x73,0x29fa5(%rip)        # 2c260 <sgx_tcxx_version>
    22bb:	48 8d 05 9e 9f 02 00 	lea    0x29f9e(%rip),%rax        # 2c260 <sgx_tcxx_version>
    22c2:	c3                   	ret    
    22c3:	66 2e 0f 1f 84 00 00 	cs nopw 0x0(%rax,%rax,1)
    22ca:	00 00 00 
    22cd:	0f 1f 00             	nopl   (%rax)

00000000000022d0 <tcxx_access_version_dummy5>:
    22d0:	f3 0f 1e fa          	endbr64 
    22d4:	c6 05 85 9f 02 00 73 	movb   $0x73,0x29f85(%rip)        # 2c260 <sgx_tcxx_version>
    22db:	48 8d 05 7e 9f 02 00 	lea    0x29f7e(%rip),%rax        # 2c260 <sgx_tcxx_version>
    22e2:	c3                   	ret    
    22e3:	66 2e 0f 1f 84 00 00 	cs nopw 0x0(%rax,%rax,1)
    22ea:	00 00 00 
    22ed:	0f 1f 00             	nopl   (%rax)

00000000000022f0 <tcxx_access_version_dummy4>:
    22f0:	f3 0f 1e fa          	endbr64 
    22f4:	c6 05 65 9f 02 00 73 	movb   $0x73,0x29f65(%rip)        # 2c260 <sgx_tcxx_version>
    22fb:	48 8d 05 5e 9f 02 00 	lea    0x29f5e(%rip),%rax        # 2c260 <sgx_tcxx_version>
    2302:	c3                   	ret    
    2303:	66 2e 0f 1f 84 00 00 	cs nopw 0x0(%rax,%rax,1)
    230a:	00 00 00 
    230d:	0f 1f 00             	nopl   (%rax)

0000000000002310 <tcrypto_access_version_dummy1>:
    2310:	f3 0f 1e fa          	endbr64 
    2314:	c6 05 75 9f 02 00 73 	movb   $0x73,0x29f75(%rip)        # 2c290 <sgx_tcrypto_version>
    231b:	48 8d 05 6e 9f 02 00 	lea    0x29f6e(%rip),%rax        # 2c290 <sgx_tcrypto_version>
    2322:	c3                   	ret    
    2323:	66 2e 0f 1f 84 00 00 	cs nopw 0x0(%rax,%rax,1)
    232a:	00 00 00 
    232d:	0f 1f 00             	nopl   (%rax)

0000000000002330 <tservice_access_version_dummy1>:
    2330:	f3 0f 1e fa          	endbr64 
    2334:	c6 05 85 9f 02 00 73 	movb   $0x73,0x29f85(%rip)        # 2c2c0 <sgx_tservice_version>
    233b:	48 8d 05 7e 9f 02 00 	lea    0x29f7e(%rip),%rax        # 2c2c0 <sgx_tservice_version>
    2342:	c3                   	ret    
    2343:	66 2e 0f 1f 84 00 00 	cs nopw 0x0(%rax,%rax,1)
    234a:	00 00 00 
    234d:	0f 1f 00             	nopl   (%rax)

0000000000002350 <sgx_ecall_consumer>:
    2350:	48 85 ff             	test   %rdi,%rdi
    2353:	74 0b                	je     2360 <sgx_ecall_consumer+0x10>
    2355:	b8 02 00 00 00       	mov    $0x2,%eax
    235a:	c3                   	ret    
    235b:	0f 1f 44 00 00       	nopl   0x0(%rax,%rax,1)
    2360:	48 83 ec 08          	sub    $0x8,%rsp
    2364:	e8 c7 5d 00 00       	call   8130 <ecall_consumer>
    2369:	31 c0                	xor    %eax,%eax
    236b:	48 83 c4 08          	add    $0x8,%rsp
    236f:	c3                   	ret    

0000000000002370 <sgx_ecall_producer>:
    2370:	48 85 ff             	test   %rdi,%rdi
    2373:	74 0b                	je     2380 <sgx_ecall_producer+0x10>
    2375:	b8 02 00 00 00       	mov    $0x2,%eax
    237a:	c3                   	ret    
    237b:	0f 1f 44 00 00       	nopl   0x0(%rax,%rax,1)
    2380:	48 83 ec 08          	sub    $0x8,%rsp
    2384:	e8 f7 5c 00 00       	call   8080 <ecall_producer>
    2389:	31 c0                	xor    %eax,%eax
    238b:	48 83 c4 08          	add    $0x8,%rsp
    238f:	c3                   	ret    

0000000000002390 <sgx_ecall_map>:
    2390:	48 85 ff             	test   %rdi,%rdi
    2393:	74 0b                	je     23a0 <sgx_ecall_map+0x10>
    2395:	b8 02 00 00 00       	mov    $0x2,%eax
    239a:	c3                   	ret    
    239b:	0f 1f 44 00 00       	nopl   0x0(%rax,%rax,1)
    23a0:	48 83 ec 08          	sub    $0x8,%rsp
    23a4:	e8 67 62 00 00       	call   8610 <ecall_map>
    23a9:	31 c0                	xor    %eax,%eax
    23ab:	48 83 c4 08          	add    $0x8,%rsp
    23af:	c3                   	ret    

00000000000023b0 <sgx_ecall_exception>:
    23b0:	48 85 ff             	test   %rdi,%rdi
    23b3:	74 0b                	je     23c0 <sgx_ecall_exception+0x10>
    23b5:	b8 02 00 00 00       	mov    $0x2,%eax
    23ba:	c3                   	ret    
    23bb:	0f 1f 44 00 00       	nopl   0x0(%rax,%rax,1)
    23c0:	48 83 ec 08          	sub    $0x8,%rsp
    23c4:	e8 c7 64 00 00       	call   8890 <ecall_exception>
    23c9:	31 c0                	xor    %eax,%eax
    23cb:	48 83 c4 08          	add    $0x8,%rsp
    23cf:	c3                   	ret    

00000000000023d0 <sgx_ecall_malloc_free>:
    23d0:	48 85 ff             	test   %rdi,%rdi
    23d3:	74 0b                	je     23e0 <sgx_ecall_malloc_free+0x10>
    23d5:	b8 02 00 00 00       	mov    $0x2,%eax
    23da:	c3                   	ret    
    23db:	0f 1f 44 00 00       	nopl   0x0(%rax,%rax,1)
    23e0:	48 83 ec 08          	sub    $0x8,%rsp
    23e4:	e8 67 67 00 00       	call   8b50 <ecall_malloc_free>
    23e9:	31 c0                	xor    %eax,%eax
    23eb:	48 83 c4 08          	add    $0x8,%rsp
    23ef:	c3                   	ret    

00000000000023f0 <sgx_ecall_function_public>:
    23f0:	48 85 ff             	test   %rdi,%rdi
    23f3:	74 0b                	je     2400 <sgx_ecall_function_public+0x10>
    23f5:	b8 02 00 00 00       	mov    $0x2,%eax
    23fa:	c3                   	ret    
    23fb:	0f 1f 44 00 00       	nopl   0x0(%rax,%rax,1)
    2400:	48 83 ec 08          	sub    $0x8,%rsp
    2404:	e8 e7 5b 00 00       	call   7ff0 <ecall_function_public>
    2409:	31 c0                	xor    %eax,%eax
    240b:	48 83 c4 08          	add    $0x8,%rsp
    240f:	c3                   	ret    

0000000000002410 <sgx_ecall_function_calling_convs>:
    2410:	48 85 ff             	test   %rdi,%rdi
    2413:	74 0b                	je     2420 <sgx_ecall_function_calling_convs+0x10>
    2415:	b8 02 00 00 00       	mov    $0x2,%eax
    241a:	c3                   	ret    
    241b:	0f 1f 44 00 00       	nopl   0x0(%rax,%rax,1)
    2420:	48 83 ec 08          	sub    $0x8,%rsp
    2424:	e8 87 5a 00 00       	call   7eb0 <ecall_function_calling_convs>
    2429:	31 c0                	xor    %eax,%eax
    242b:	48 83 c4 08          	add    $0x8,%rsp
    242f:	c3                   	ret    

0000000000002430 <sgx_ocall_pointer_attr>:
    2430:	48 85 ff             	test   %rdi,%rdi
    2433:	74 0b                	je     2440 <sgx_ocall_pointer_attr+0x10>
    2435:	b8 02 00 00 00       	mov    $0x2,%eax
    243a:	c3                   	ret    
    243b:	0f 1f 44 00 00       	nopl   0x0(%rax,%rax,1)
    2440:	48 83 ec 08          	sub    $0x8,%rsp
    2444:	e8 d7 56 00 00       	call   7b20 <ocall_pointer_attr>
    2449:	31 c0                	xor    %eax,%eax
    244b:	48 83 c4 08          	add    $0x8,%rsp
    244f:	c3                   	ret    

0000000000002450 <sgx_ecall_increase_counter>:
    2450:	53                   	push   %rbx
    2451:	48 83 ec 20          	sub    $0x20,%rsp
    2455:	64 48 8b 04 25 28 00 	mov    %fs:0x28,%rax
    245c:	00 00 
    245e:	48 89 44 24 18       	mov    %rax,0x18(%rsp)
    2463:	31 c0                	xor    %eax,%eax
    2465:	48 85 ff             	test   %rdi,%rdi
    2468:	74 11                	je     247b <sgx_ecall_increase_counter+0x2b>
    246a:	be 08 00 00 00       	mov    $0x8,%esi
    246f:	48 89 fb             	mov    %rdi,%rbx
    2472:	e8 29 69 00 00       	call   8da0 <sgx_is_outside_enclave>
    2477:	85 c0                	test   %eax,%eax
    2479:	75 25                	jne    24a0 <sgx_ecall_increase_counter+0x50>
    247b:	b8 02 00 00 00       	mov    $0x2,%eax
    2480:	48 8b 4c 24 18       	mov    0x18(%rsp),%rcx
    2485:	64 48 33 0c 25 28 00 	xor    %fs:0x28,%rcx
    248c:	00 00 
    248e:	75 5e                	jne    24ee <sgx_ecall_increase_counter+0x9e>
    2490:	48 83 c4 20          	add    $0x20,%rsp
    2494:	5b                   	pop    %rbx
    2495:	c3                   	ret    
    2496:	66 2e 0f 1f 84 00 00 	cs nopw 0x0(%rax,%rax,1)
    249d:	00 00 00 
    24a0:	48 89 da             	mov    %rbx,%rdx
    24a3:	48 89 e7             	mov    %rsp,%rdi
    24a6:	b9 08 00 00 00       	mov    $0x8,%ecx
    24ab:	be 08 00 00 00       	mov    $0x8,%esi
    24b0:	0f ae e8             	lfence 
    24b3:	e8 48 da 00 00       	call   ff00 <memcpy_s>
    24b8:	89 c2                	mov    %eax,%edx
    24ba:	b8 01 00 00 00       	mov    $0x1,%eax
    24bf:	85 d2                	test   %edx,%edx
    24c1:	75 bd                	jne    2480 <sgx_ecall_increase_counter+0x30>
    24c3:	e8 58 5b 00 00       	call   8020 <ecall_increase_counter>
    24c8:	48 8d 54 24 10       	lea    0x10(%rsp),%rdx
    24cd:	b9 08 00 00 00       	mov    $0x8,%ecx
    24d2:	be 08 00 00 00       	mov    $0x8,%esi
    24d7:	48 89 df             	mov    %rbx,%rdi
    24da:	48 89 44 24 10       	mov    %rax,0x10(%rsp)
    24df:	e8 9c da 00 00       	call   ff80 <memcpy_verw_s>
    24e4:	85 c0                	test   %eax,%eax
    24e6:	0f 95 c0             	setne  %al
    24e9:	0f b6 c0             	movzbl %al,%eax
    24ec:	eb 92                	jmp    2480 <sgx_ecall_increase_counter+0x30>
    24ee:	e8 cd d4 00 00       	call   f9c0 <__stack_chk_fail>
    24f3:	66 2e 0f 1f 84 00 00 	cs nopw 0x0(%rax,%rax,1)
    24fa:	00 00 00 
    24fd:	0f 1f 00             	nopl   (%rax)

0000000000002500 <sgx_ecall_sgx_cpuid>:
    2500:	55                   	push   %rbp
    2501:	53                   	push   %rbx
    2502:	48 83 ec 38          	sub    $0x38,%rsp
    2506:	64 48 8b 04 25 28 00 	mov    %fs:0x28,%rax
    250d:	00 00 
    250f:	48 89 44 24 28       	mov    %rax,0x28(%rsp)
    2514:	31 c0                	xor    %eax,%eax
    2516:	48 85 ff             	test   %rdi,%rdi
    2519:	74 11                	je     252c <sgx_ecall_sgx_cpuid+0x2c>
    251b:	be 10 00 00 00       	mov    $0x10,%esi
    2520:	48 89 fb             	mov    %rdi,%rbx
    2523:	e8 78 68 00 00       	call   8da0 <sgx_is_outside_enclave>
    2528:	85 c0                	test   %eax,%eax
    252a:	75 24                	jne    2550 <sgx_ecall_sgx_cpuid+0x50>
    252c:	b8 02 00 00 00       	mov    $0x2,%eax
    2531:	48 8b 4c 24 28       	mov    0x28(%rsp),%rcx
    2536:	64 48 33 0c 25 28 00 	xor    %fs:0x28,%rcx
    253d:	00 00 
    253f:	0f 85 c9 00 00 00    	jne    260e <sgx_ecall_sgx_cpuid+0x10e>
    2545:	48 83 c4 38          	add    $0x38,%rsp
    2549:	5b                   	pop    %rbx
    254a:	5d                   	pop    %rbp
    254b:	c3                   	ret    
    254c:	0f 1f 40 00          	nopl   0x0(%rax)
    2550:	48 8d 7c 24 10       	lea    0x10(%rsp),%rdi
    2555:	48 89 da             	mov    %rbx,%rdx
    2558:	b9 10 00 00 00       	mov    $0x10,%ecx
    255d:	be 10 00 00 00       	mov    $0x10,%esi
    2562:	0f ae e8             	lfence 
    2565:	e8 96 d9 00 00       	call   ff00 <memcpy_s>
    256a:	89 c2                	mov    %eax,%edx
    256c:	b8 01 00 00 00       	mov    $0x1,%eax
    2571:	85 d2                	test   %edx,%edx
    2573:	75 bc                	jne    2531 <sgx_ecall_sgx_cpuid+0x31>
    2575:	48 8b 5c 24 10       	mov    0x10(%rsp),%rbx
    257a:	48 85 db             	test   %rbx,%rbx
    257d:	74 70                	je     25ef <sgx_ecall_sgx_cpuid+0xef>
    257f:	be 10 00 00 00       	mov    $0x10,%esi
    2584:	48 89 df             	mov    %rbx,%rdi
    2587:	e8 14 68 00 00       	call   8da0 <sgx_is_outside_enclave>
    258c:	89 c2                	mov    %eax,%edx
    258e:	b8 02 00 00 00       	mov    $0x2,%eax
    2593:	85 d2                	test   %edx,%edx
    2595:	74 9a                	je     2531 <sgx_ecall_sgx_cpuid+0x31>
    2597:	be 01 00 00 00       	mov    $0x1,%esi
    259c:	bf 10 00 00 00       	mov    $0x10,%edi
    25a1:	0f ae e8             	lfence 
    25a4:	e8 47 c4 00 00       	call   e9f0 <calloc>
    25a9:	48 85 c0             	test   %rax,%rax
    25ac:	48 89 c5             	mov    %rax,%rbp
    25af:	74 53                	je     2604 <sgx_ecall_sgx_cpuid+0x104>
    25b1:	8b 74 24 18          	mov    0x18(%rsp),%esi
    25b5:	48 89 ef             	mov    %rbp,%rdi
    25b8:	e8 f3 65 00 00       	call   8bb0 <ecall_sgx_cpuid>
    25bd:	b9 10 00 00 00       	mov    $0x10,%ecx
    25c2:	48 89 ea             	mov    %rbp,%rdx
    25c5:	be 10 00 00 00       	mov    $0x10,%esi
    25ca:	48 89 df             	mov    %rbx,%rdi
    25cd:	e8 ae d9 00 00       	call   ff80 <memcpy_verw_s>
    25d2:	85 c0                	test   %eax,%eax
    25d4:	48 89 ef             	mov    %rbp,%rdi
    25d7:	0f 95 c0             	setne  %al
    25da:	0f b6 c0             	movzbl %al,%eax
    25dd:	89 44 24 0c          	mov    %eax,0xc(%rsp)
    25e1:	e8 fa b9 00 00       	call   dfe0 <dlfree>
    25e6:	8b 44 24 0c          	mov    0xc(%rsp),%eax
    25ea:	e9 42 ff ff ff       	jmp    2531 <sgx_ecall_sgx_cpuid+0x31>
    25ef:	0f ae e8             	lfence 
    25f2:	8b 74 24 18          	mov    0x18(%rsp),%esi
    25f6:	31 ff                	xor    %edi,%edi
    25f8:	e8 b3 65 00 00       	call   8bb0 <ecall_sgx_cpuid>
    25fd:	31 c0                	xor    %eax,%eax
    25ff:	e9 2d ff ff ff       	jmp    2531 <sgx_ecall_sgx_cpuid+0x31>
    2604:	b8 03 00 00 00       	mov    $0x3,%eax
    2609:	e9 23 ff ff ff       	jmp    2531 <sgx_ecall_sgx_cpuid+0x31>
    260e:	e8 ad d3 00 00       	call   f9c0 <__stack_chk_fail>
    2613:	66 2e 0f 1f 84 00 00 	cs nopw 0x0(%rax,%rax,1)
    261a:	00 00 00 
    261d:	0f 1f 00             	nopl   (%rax)

0000000000002620 <sgx_ecall_function_private>:
    2620:	53                   	push   %rbx
    2621:	48 83 ec 10          	sub    $0x10,%rsp
    2625:	64 48 8b 04 25 28 00 	mov    %fs:0x28,%rax
    262c:	00 00 
    262e:	48 89 44 24 08       	mov    %rax,0x8(%rsp)
    2633:	31 c0                	xor    %eax,%eax
    2635:	48 85 ff             	test   %rdi,%rdi
    2638:	74 11                	je     264b <sgx_ecall_function_private+0x2b>
    263a:	be 04 00 00 00       	mov    $0x4,%esi
    263f:	48 89 fb             	mov    %rdi,%rbx
    2642:	e8 59 67 00 00       	call   8da0 <sgx_is_outside_enclave>
    2647:	85 c0                	test   %eax,%eax
    2649:	75 25                	jne    2670 <sgx_ecall_function_private+0x50>
    264b:	b8 02 00 00 00       	mov    $0x2,%eax
    2650:	48 8b 4c 24 08       	mov    0x8(%rsp),%rcx
    2655:	64 48 33 0c 25 28 00 	xor    %fs:0x28,%rcx
    265c:	00 00 
    265e:	75 5d                	jne    26bd <sgx_ecall_function_private+0x9d>
    2660:	48 83 c4 10          	add    $0x10,%rsp
    2664:	5b                   	pop    %rbx
    2665:	c3                   	ret    
    2666:	66 2e 0f 1f 84 00 00 	cs nopw 0x0(%rax,%rax,1)
    266d:	00 00 00 
    2670:	48 89 da             	mov    %rbx,%rdx
    2673:	48 89 e7             	mov    %rsp,%rdi
    2676:	b9 04 00 00 00       	mov    $0x4,%ecx
    267b:	be 04 00 00 00       	mov    $0x4,%esi
    2680:	0f ae e8             	lfence 
    2683:	e8 78 d8 00 00       	call   ff00 <memcpy_s>
    2688:	89 c2                	mov    %eax,%edx
    268a:	b8 01 00 00 00       	mov    $0x1,%eax
    268f:	85 d2                	test   %edx,%edx
    2691:	75 bd                	jne    2650 <sgx_ecall_function_private+0x30>
    2693:	e8 78 59 00 00       	call   8010 <ecall_function_private>
    2698:	48 8d 54 24 04       	lea    0x4(%rsp),%rdx
    269d:	b9 04 00 00 00       	mov    $0x4,%ecx
    26a2:	be 04 00 00 00       	mov    $0x4,%esi
    26a7:	48 89 df             	mov    %rbx,%rdi
    26aa:	89 44 24 04          	mov    %eax,0x4(%rsp)
    26ae:	e8 cd d8 00 00       	call   ff80 <memcpy_verw_s>
    26b3:	85 c0                	test   %eax,%eax
    26b5:	0f 95 c0             	setne  %al
    26b8:	0f b6 c0             	movzbl %al,%eax
    26bb:	eb 93                	jmp    2650 <sgx_ecall_function_private+0x30>
    26bd:	e8 fe d2 00 00       	call   f9c0 <__stack_chk_fail>
    26c2:	66 2e 0f 1f 84 00 00 	cs nopw 0x0(%rax,%rax,1)
    26c9:	00 00 00 
    26cc:	0f 1f 40 00          	nopl   0x0(%rax)

00000000000026d0 <sgx_ecall_array_isary>:
    26d0:	53                   	push   %rbx
    26d1:	48 83 ec 10          	sub    $0x10,%rsp
    26d5:	64 48 8b 04 25 28 00 	mov    %fs:0x28,%rax
    26dc:	00 00 
    26de:	48 89 44 24 08       	mov    %rax,0x8(%rsp)
    26e3:	31 c0                	xor    %eax,%eax
    26e5:	48 85 ff             	test   %rdi,%rdi
    26e8:	74 11                	je     26fb <sgx_ecall_array_isary+0x2b>
    26ea:	be 08 00 00 00       	mov    $0x8,%esi
    26ef:	48 89 fb             	mov    %rdi,%rbx
    26f2:	e8 a9 66 00 00       	call   8da0 <sgx_is_outside_enclave>
    26f7:	85 c0                	test   %eax,%eax
    26f9:	75 25                	jne    2720 <sgx_ecall_array_isary+0x50>
    26fb:	b8 02 00 00 00       	mov    $0x2,%eax
    2700:	48 8b 4c 24 08       	mov    0x8(%rsp),%rcx
    2705:	64 48 33 0c 25 28 00 	xor    %fs:0x28,%rcx
    270c:	00 00 
    270e:	75 40                	jne    2750 <sgx_ecall_array_isary+0x80>
    2710:	48 83 c4 10          	add    $0x10,%rsp
    2714:	5b                   	pop    %rbx
    2715:	c3                   	ret    
    2716:	66 2e 0f 1f 84 00 00 	cs nopw 0x0(%rax,%rax,1)
    271d:	00 00 00 
    2720:	48 89 da             	mov    %rbx,%rdx
    2723:	48 89 e7             	mov    %rsp,%rdi
    2726:	b9 08 00 00 00       	mov    $0x8,%ecx
    272b:	be 08 00 00 00       	mov    $0x8,%esi
    2730:	0f ae e8             	lfence 
    2733:	e8 c8 d7 00 00       	call   ff00 <memcpy_s>
    2738:	89 c2                	mov    %eax,%edx
    273a:	b8 01 00 00 00       	mov    $0x1,%eax
    273f:	85 d2                	test   %edx,%edx
    2741:	75 bd                	jne    2700 <sgx_ecall_array_isary+0x30>
    2743:	48 8b 3c 24          	mov    (%rsp),%rdi
    2747:	e8 f4 56 00 00       	call   7e40 <ecall_array_isary>
    274c:	31 c0                	xor    %eax,%eax
    274e:	eb b0                	jmp    2700 <sgx_ecall_array_isary+0x30>
    2750:	e8 6b d2 00 00       	call   f9c0 <__stack_chk_fail>
    2755:	66 2e 0f 1f 84 00 00 	cs nopw 0x0(%rax,%rax,1)
    275c:	00 00 00 
    275f:	90                   	nop

0000000000002760 <sgx_ecall_array_in_out>:
    2760:	41 54                	push   %r12
    2762:	55                   	push   %rbp
    2763:	53                   	push   %rbx
    2764:	48 83 ec 10          	sub    $0x10,%rsp
    2768:	64 48 8b 04 25 28 00 	mov    %fs:0x28,%rax
    276f:	00 00 
    2771:	48 89 44 24 08       	mov    %rax,0x8(%rsp)
    2776:	31 c0                	xor    %eax,%eax
    2778:	48 85 ff             	test   %rdi,%rdi
    277b:	74 11                	je     278e <sgx_ecall_array_in_out+0x2e>
    277d:	be 08 00 00 00       	mov    $0x8,%esi
    2782:	48 89 fb             	mov    %rdi,%rbx
    2785:	e8 16 66 00 00       	call   8da0 <sgx_is_outside_enclave>
    278a:	85 c0                	test   %eax,%eax
    278c:	75 22                	jne    27b0 <sgx_ecall_array_in_out+0x50>
    278e:	b8 02 00 00 00       	mov    $0x2,%eax
    2793:	48 8b 4c 24 08       	mov    0x8(%rsp),%rcx
    2798:	64 48 33 0c 25 28 00 	xor    %fs:0x28,%rcx
    279f:	00 00 
    27a1:	0f 85 ce 00 00 00    	jne    2875 <sgx_ecall_array_in_out+0x115>
    27a7:	48 83 c4 10          	add    $0x10,%rsp
    27ab:	5b                   	pop    %rbx
    27ac:	5d                   	pop    %rbp
    27ad:	41 5c                	pop    %r12
    27af:	c3                   	ret    
    27b0:	48 89 da             	mov    %rbx,%rdx
    27b3:	48 89 e7             	mov    %rsp,%rdi
    27b6:	b9 08 00 00 00       	mov    $0x8,%ecx
    27bb:	be 08 00 00 00       	mov    $0x8,%esi
    27c0:	0f ae e8             	lfence 
    27c3:	e8 38 d7 00 00       	call   ff00 <memcpy_s>
    27c8:	89 c2                	mov    %eax,%edx
    27ca:	b8 01 00 00 00       	mov    $0x1,%eax
    27cf:	85 d2                	test   %edx,%edx
    27d1:	75 c0                	jne    2793 <sgx_ecall_array_in_out+0x33>
    27d3:	48 8b 2c 24          	mov    (%rsp),%rbp
    27d7:	48 85 ed             	test   %rbp,%rbp
    27da:	74 7e                	je     285a <sgx_ecall_array_in_out+0xfa>
    27dc:	be 10 00 00 00       	mov    $0x10,%esi
    27e1:	48 89 ef             	mov    %rbp,%rdi
    27e4:	e8 b7 65 00 00       	call   8da0 <sgx_is_outside_enclave>
    27e9:	89 c2                	mov    %eax,%edx
    27eb:	b8 02 00 00 00       	mov    $0x2,%eax
    27f0:	85 d2                	test   %edx,%edx
    27f2:	74 9f                	je     2793 <sgx_ecall_array_in_out+0x33>
    27f4:	bf 10 00 00 00       	mov    $0x10,%edi
    27f9:	0f ae e8             	lfence 
    27fc:	e8 6f 9d 00 00       	call   c570 <dlmalloc>
    2801:	48 85 c0             	test   %rax,%rax
    2804:	49 89 c4             	mov    %rax,%r12
    2807:	74 62                	je     286b <sgx_ecall_array_in_out+0x10b>
    2809:	b9 10 00 00 00       	mov    $0x10,%ecx
    280e:	48 89 ea             	mov    %rbp,%rdx
    2811:	be 10 00 00 00       	mov    $0x10,%esi
    2816:	4c 89 e7             	mov    %r12,%rdi
    2819:	bb 01 00 00 00       	mov    $0x1,%ebx
    281e:	e8 dd d6 00 00       	call   ff00 <memcpy_s>
    2823:	85 c0                	test   %eax,%eax
    2825:	75 24                	jne    284b <sgx_ecall_array_in_out+0xeb>
    2827:	4c 89 e7             	mov    %r12,%rdi
    282a:	31 db                	xor    %ebx,%ebx
    282c:	e8 bf 55 00 00       	call   7df0 <ecall_array_in_out>
    2831:	b9 10 00 00 00       	mov    $0x10,%ecx
    2836:	4c 89 e2             	mov    %r12,%rdx
    2839:	be 10 00 00 00       	mov    $0x10,%esi
    283e:	48 89 ef             	mov    %rbp,%rdi
    2841:	e8 3a d7 00 00       	call   ff80 <memcpy_verw_s>
    2846:	85 c0                	test   %eax,%eax
    2848:	0f 95 c3             	setne  %bl
    284b:	4c 89 e7             	mov    %r12,%rdi
    284e:	e8 8d b7 00 00       	call   dfe0 <dlfree>
    2853:	89 d8                	mov    %ebx,%eax
    2855:	e9 39 ff ff ff       	jmp    2793 <sgx_ecall_array_in_out+0x33>
    285a:	31 ff                	xor    %edi,%edi
    285c:	0f ae e8             	lfence 
    285f:	e8 8c 55 00 00       	call   7df0 <ecall_array_in_out>
    2864:	31 c0                	xor    %eax,%eax
    2866:	e9 28 ff ff ff       	jmp    2793 <sgx_ecall_array_in_out+0x33>
    286b:	b8 03 00 00 00       	mov    $0x3,%eax
    2870:	e9 1e ff ff ff       	jmp    2793 <sgx_ecall_array_in_out+0x33>
    2875:	e8 46 d1 00 00       	call   f9c0 <__stack_chk_fail>
    287a:	66 0f 1f 44 00 00    	nopw   0x0(%rax,%rax,1)

0000000000002880 <sgx_ecall_array_out>:
    2880:	55                   	push   %rbp
    2881:	53                   	push   %rbx
    2882:	48 83 ec 28          	sub    $0x28,%rsp
    2886:	64 48 8b 04 25 28 00 	mov    %fs:0x28,%rax
    288d:	00 00 
    288f:	48 89 44 24 18       	mov    %rax,0x18(%rsp)
    2894:	31 c0                	xor    %eax,%eax
    2896:	48 85 ff             	test   %rdi,%rdi
    2899:	74 11                	je     28ac <sgx_ecall_array_out+0x2c>
    289b:	be 08 00 00 00       	mov    $0x8,%esi
    28a0:	48 89 fb             	mov    %rdi,%rbx
    28a3:	e8 f8 64 00 00       	call   8da0 <sgx_is_outside_enclave>
    28a8:	85 c0                	test   %eax,%eax
    28aa:	75 24                	jne    28d0 <sgx_ecall_array_out+0x50>
    28ac:	b8 02 00 00 00       	mov    $0x2,%eax
    28b1:	48 8b 4c 24 18       	mov    0x18(%rsp),%rcx
    28b6:	64 48 33 0c 25 28 00 	xor    %fs:0x28,%rcx
    28bd:	00 00 
    28bf:	0f 85 c1 00 00 00    	jne    2986 <sgx_ecall_array_out+0x106>
    28c5:	48 83 c4 28          	add    $0x28,%rsp
    28c9:	5b                   	pop    %rbx
    28ca:	5d                   	pop    %rbp
    28cb:	c3                   	ret    
    28cc:	0f 1f 40 00          	nopl   0x0(%rax)
    28d0:	48 8d 7c 24 10       	lea    0x10(%rsp),%rdi
    28d5:	48 89 da             	mov    %rbx,%rdx
    28d8:	b9 08 00 00 00       	mov    $0x8,%ecx
    28dd:	be 08 00 00 00       	mov    $0x8,%esi
    28e2:	0f ae e8             	lfence 
    28e5:	e8 16 d6 00 00       	call   ff00 <memcpy_s>
    28ea:	89 c2                	mov    %eax,%edx
    28ec:	b8 01 00 00 00       	mov    $0x1,%eax
    28f1:	85 d2                	test   %edx,%edx
    28f3:	75 bc                	jne    28b1 <sgx_ecall_array_out+0x31>
    28f5:	48 8b 5c 24 10       	mov    0x10(%rsp),%rbx
    28fa:	48 85 db             	test   %rbx,%rbx
    28fd:	74 6c                	je     296b <sgx_ecall_array_out+0xeb>
    28ff:	be 10 00 00 00       	mov    $0x10,%esi
    2904:	48 89 df             	mov    %rbx,%rdi
    2907:	e8 94 64 00 00       	call   8da0 <sgx_is_outside_enclave>
    290c:	89 c2                	mov    %eax,%edx
    290e:	b8 02 00 00 00       	mov    $0x2,%eax
    2913:	85 d2                	test   %edx,%edx
    2915:	74 9a                	je     28b1 <sgx_ecall_array_out+0x31>
    2917:	be 01 00 00 00       	mov    $0x1,%esi
    291c:	bf 10 00 00 00       	mov    $0x10,%edi
    2921:	0f ae e8             	lfence 
    2924:	e8 c7 c0 00 00       	call   e9f0 <calloc>
    2929:	48 85 c0             	test   %rax,%rax
    292c:	48 89 c5             	mov    %rax,%rbp
    292f:	74 4b                	je     297c <sgx_ecall_array_out+0xfc>
    2931:	48 89 ef             	mov    %rbp,%rdi
    2934:	e8 57 54 00 00       	call   7d90 <ecall_array_out>
    2939:	b9 10 00 00 00       	mov    $0x10,%ecx
    293e:	48 89 ea             	mov    %rbp,%rdx
    2941:	be 10 00 00 00       	mov    $0x10,%esi
    2946:	48 89 df             	mov    %rbx,%rdi
    2949:	e8 32 d6 00 00       	call   ff80 <memcpy_verw_s>
    294e:	85 c0                	test   %eax,%eax
    2950:	48 89 ef             	mov    %rbp,%rdi
    2953:	0f 95 c0             	setne  %al
    2956:	0f b6 c0             	movzbl %al,%eax
    2959:	89 44 24 0c          	mov    %eax,0xc(%rsp)
    295d:	e8 7e b6 00 00       	call   dfe0 <dlfree>
    2962:	8b 44 24 0c          	mov    0xc(%rsp),%eax
    2966:	e9 46 ff ff ff       	jmp    28b1 <sgx_ecall_array_out+0x31>
    296b:	31 ff                	xor    %edi,%edi
    296d:	0f ae e8             	lfence 
    2970:	e8 1b 54 00 00       	call   7d90 <ecall_array_out>
    2975:	31 c0                	xor    %eax,%eax
    2977:	e9 35 ff ff ff       	jmp    28b1 <sgx_ecall_array_out+0x31>
    297c:	b8 03 00 00 00       	mov    $0x3,%eax
    2981:	e9 2b ff ff ff       	jmp    28b1 <sgx_ecall_array_out+0x31>
    2986:	e8 35 d0 00 00       	call   f9c0 <__stack_chk_fail>
    298b:	0f 1f 44 00 00       	nopl   0x0(%rax,%rax,1)

0000000000002990 <sgx_ecall_array_in>:
    2990:	55                   	push   %rbp
    2991:	53                   	push   %rbx
    2992:	48 83 ec 18          	sub    $0x18,%rsp
    2996:	64 48 8b 04 25 28 00 	mov    %fs:0x28,%rax
    299d:	00 00 
    299f:	48 89 44 24 08       	mov    %rax,0x8(%rsp)
    29a4:	31 c0                	xor    %eax,%eax
    29a6:	48 85 ff             	test   %rdi,%rdi
    29a9:	74 11                	je     29bc <sgx_ecall_array_in+0x2c>
    29ab:	be 08 00 00 00       	mov    $0x8,%esi
    29b0:	48 89 fb             	mov    %rdi,%rbx
    29b3:	e8 e8 63 00 00       	call   8da0 <sgx_is_outside_enclave>
    29b8:	85 c0                	test   %eax,%eax
    29ba:	75 24                	jne    29e0 <sgx_ecall_array_in+0x50>
    29bc:	b8 02 00 00 00       	mov    $0x2,%eax
    29c1:	48 8b 4c 24 08       	mov    0x8(%rsp),%rcx
    29c6:	64 48 33 0c 25 28 00 	xor    %fs:0x28,%rcx
    29cd:	00 00 
    29cf:	0f 85 b3 00 00 00    	jne    2a88 <sgx_ecall_array_in+0xf8>
    29d5:	48 83 c4 18          	add    $0x18,%rsp
    29d9:	5b                   	pop    %rbx
    29da:	5d                   	pop    %rbp
    29db:	c3                   	ret    
    29dc:	0f 1f 40 00          	nopl   0x0(%rax)
    29e0:	48 89 da             	mov    %rbx,%rdx
    29e3:	48 89 e7             	mov    %rsp,%rdi
    29e6:	b9 08 00 00 00       	mov    $0x8,%ecx
    29eb:	be 08 00 00 00       	mov    $0x8,%esi
    29f0:	0f ae e8             	lfence 
    29f3:	e8 08 d5 00 00       	call   ff00 <memcpy_s>
    29f8:	89 c2                	mov    %eax,%edx
    29fa:	b8 01 00 00 00       	mov    $0x1,%eax
    29ff:	85 d2                	test   %edx,%edx
    2a01:	75 be                	jne    29c1 <sgx_ecall_array_in+0x31>
    2a03:	48 8b 1c 24          	mov    (%rsp),%rbx
    2a07:	48 85 db             	test   %rbx,%rbx
    2a0a:	74 5f                	je     2a6b <sgx_ecall_array_in+0xdb>
    2a0c:	be 10 00 00 00       	mov    $0x10,%esi
    2a11:	48 89 df             	mov    %rbx,%rdi
    2a14:	e8 87 63 00 00       	call   8da0 <sgx_is_outside_enclave>
    2a19:	89 c2                	mov    %eax,%edx
    2a1b:	b8 02 00 00 00       	mov    $0x2,%eax
    2a20:	85 d2                	test   %edx,%edx
    2a22:	74 9d                	je     29c1 <sgx_ecall_array_in+0x31>
    2a24:	bf 10 00 00 00       	mov    $0x10,%edi
    2a29:	0f ae e8             	lfence 
    2a2c:	e8 3f 9b 00 00       	call   c570 <dlmalloc>
    2a31:	48 89 c5             	mov    %rax,%rbp
    2a34:	b8 03 00 00 00       	mov    $0x3,%eax
    2a39:	48 85 ed             	test   %rbp,%rbp
    2a3c:	74 83                	je     29c1 <sgx_ecall_array_in+0x31>
    2a3e:	b9 10 00 00 00       	mov    $0x10,%ecx
    2a43:	48 89 da             	mov    %rbx,%rdx
    2a46:	be 10 00 00 00       	mov    $0x10,%esi
    2a4b:	48 89 ef             	mov    %rbp,%rdi
    2a4e:	e8 ad d4 00 00       	call   ff00 <memcpy_s>
    2a53:	85 c0                	test   %eax,%eax
    2a55:	74 25                	je     2a7c <sgx_ecall_array_in+0xec>
    2a57:	bb 01 00 00 00       	mov    $0x1,%ebx
    2a5c:	48 89 ef             	mov    %rbp,%rdi
    2a5f:	e8 7c b5 00 00       	call   dfe0 <dlfree>
    2a64:	89 d8                	mov    %ebx,%eax
    2a66:	e9 56 ff ff ff       	jmp    29c1 <sgx_ecall_array_in+0x31>
    2a6b:	31 ff                	xor    %edi,%edi
    2a6d:	0f ae e8             	lfence 
    2a70:	e8 cb 52 00 00       	call   7d40 <ecall_array_in>
    2a75:	31 c0                	xor    %eax,%eax
    2a77:	e9 45 ff ff ff       	jmp    29c1 <sgx_ecall_array_in+0x31>
    2a7c:	48 89 ef             	mov    %rbp,%rdi
    2a7f:	31 db                	xor    %ebx,%ebx
    2a81:	e8 ba 52 00 00       	call   7d40 <ecall_array_in>
    2a86:	eb d4                	jmp    2a5c <sgx_ecall_array_in+0xcc>
    2a88:	e8 33 cf 00 00       	call   f9c0 <__stack_chk_fail>
    2a8d:	0f 1f 00             	nopl   (%rax)

0000000000002a90 <sgx_ecall_array_user_check>:
    2a90:	53                   	push   %rbx
    2a91:	48 83 ec 10          	sub    $0x10,%rsp
    2a95:	64 48 8b 04 25 28 00 	mov    %fs:0x28,%rax
    2a9c:	00 00 
    2a9e:	48 89 44 24 08       	mov    %rax,0x8(%rsp)
    2aa3:	31 c0                	xor    %eax,%eax
    2aa5:	48 85 ff             	test   %rdi,%rdi
    2aa8:	74 11                	je     2abb <sgx_ecall_array_user_check+0x2b>
    2aaa:	be 08 00 00 00       	mov    $0x8,%esi
    2aaf:	48 89 fb             	mov    %rdi,%rbx
    2ab2:	e8 e9 62 00 00       	call   8da0 <sgx_is_outside_enclave>
    2ab7:	85 c0                	test   %eax,%eax
    2ab9:	75 25                	jne    2ae0 <sgx_ecall_array_user_check+0x50>
    2abb:	b8 02 00 00 00       	mov    $0x2,%eax
    2ac0:	48 8b 4c 24 08       	mov    0x8(%rsp),%rcx
    2ac5:	64 48 33 0c 25 28 00 	xor    %fs:0x28,%rcx
    2acc:	00 00 
    2ace:	75 40                	jne    2b10 <sgx_ecall_array_user_check+0x80>
    2ad0:	48 83 c4 10          	add    $0x10,%rsp
    2ad4:	5b                   	pop    %rbx
    2ad5:	c3                   	ret    
    2ad6:	66 2e 0f 1f 84 00 00 	cs nopw 0x0(%rax,%rax,1)
    2add:	00 00 00 
    2ae0:	48 89 da             	mov    %rbx,%rdx
    2ae3:	48 89 e7             	mov    %rsp,%rdi
    2ae6:	b9 08 00 00 00       	mov    $0x8,%ecx
    2aeb:	be 08 00 00 00       	mov    $0x8,%esi
    2af0:	0f ae e8             	lfence 
    2af3:	e8 08 d4 00 00       	call   ff00 <memcpy_s>
    2af8:	89 c2                	mov    %eax,%edx
    2afa:	b8 01 00 00 00       	mov    $0x1,%eax
    2aff:	85 d2                	test   %edx,%edx
    2b01:	75 bd                	jne    2ac0 <sgx_ecall_array_user_check+0x30>
    2b03:	48 8b 3c 24          	mov    (%rsp),%rdi
    2b07:	e8 d4 51 00 00       	call   7ce0 <ecall_array_user_check>
    2b0c:	31 c0                	xor    %eax,%eax
    2b0e:	eb b0                	jmp    2ac0 <sgx_ecall_array_user_check+0x30>
    2b10:	e8 ab ce 00 00       	call   f9c0 <__stack_chk_fail>
    2b15:	66 2e 0f 1f 84 00 00 	cs nopw 0x0(%rax,%rax,1)
    2b1c:	00 00 00 
    2b1f:	90                   	nop

0000000000002b20 <sgx_ecall_pointer_isptr_readonly>:
    2b20:	41 54                	push   %r12
    2b22:	55                   	push   %rbp
    2b23:	53                   	push   %rbx
    2b24:	48 83 ec 20          	sub    $0x20,%rsp
    2b28:	64 48 8b 04 25 28 00 	mov    %fs:0x28,%rax
    2b2f:	00 00 
    2b31:	48 89 44 24 18       	mov    %rax,0x18(%rsp)
    2b36:	31 c0                	xor    %eax,%eax
    2b38:	48 85 ff             	test   %rdi,%rdi
    2b3b:	74 11                	je     2b4e <sgx_ecall_pointer_isptr_readonly+0x2e>
    2b3d:	be 10 00 00 00       	mov    $0x10,%esi
    2b42:	48 89 fb             	mov    %rdi,%rbx
    2b45:	e8 56 62 00 00       	call   8da0 <sgx_is_outside_enclave>
    2b4a:	85 c0                	test   %eax,%eax
    2b4c:	75 22                	jne    2b70 <sgx_ecall_pointer_isptr_readonly+0x50>
    2b4e:	b8 02 00 00 00       	mov    $0x2,%eax
    2b53:	48 8b 4c 24 18       	mov    0x18(%rsp),%rcx
    2b58:	64 48 33 0c 25 28 00 	xor    %fs:0x28,%rcx
    2b5f:	00 00 
    2b61:	0f 85 cd 00 00 00    	jne    2c34 <sgx_ecall_pointer_isptr_readonly+0x114>
    2b67:	48 83 c4 20          	add    $0x20,%rsp
    2b6b:	5b                   	pop    %rbx
    2b6c:	5d                   	pop    %rbp
    2b6d:	41 5c                	pop    %r12
    2b6f:	c3                   	ret    
    2b70:	48 89 da             	mov    %rbx,%rdx
    2b73:	48 89 e7             	mov    %rsp,%rdi
    2b76:	b9 10 00 00 00       	mov    $0x10,%ecx
    2b7b:	be 10 00 00 00       	mov    $0x10,%esi
    2b80:	0f ae e8             	lfence 
    2b83:	e8 78 d3 00 00       	call   ff00 <memcpy_s>
    2b88:	89 c2                	mov    %eax,%edx
    2b8a:	b8 01 00 00 00       	mov    $0x1,%eax
    2b8f:	85 d2                	test   %edx,%edx
    2b91:	75 c0                	jne    2b53 <sgx_ecall_pointer_isptr_readonly+0x33>
    2b93:	48 8b 1c 24          	mov    (%rsp),%rbx
    2b97:	48 8b 6c 24 08       	mov    0x8(%rsp),%rbp
    2b9c:	48 85 db             	test   %rbx,%rbx
    2b9f:	74 60                	je     2c01 <sgx_ecall_pointer_isptr_readonly+0xe1>
    2ba1:	48 89 ee             	mov    %rbp,%rsi
    2ba4:	48 89 df             	mov    %rbx,%rdi
    2ba7:	e8 f4 61 00 00       	call   8da0 <sgx_is_outside_enclave>
    2bac:	89 c2                	mov    %eax,%edx
    2bae:	b8 02 00 00 00       	mov    $0x2,%eax
    2bb3:	85 d2                	test   %edx,%edx
    2bb5:	74 9c                	je     2b53 <sgx_ecall_pointer_isptr_readonly+0x33>
    2bb7:	48 85 ed             	test   %rbp,%rbp
    2bba:	0f ae e8             	lfence 
    2bbd:	74 65                	je     2c24 <sgx_ecall_pointer_isptr_readonly+0x104>
    2bbf:	48 89 ef             	mov    %rbp,%rdi
    2bc2:	e8 a9 99 00 00       	call   c570 <dlmalloc>
    2bc7:	49 89 c4             	mov    %rax,%r12
    2bca:	b8 03 00 00 00       	mov    $0x3,%eax
    2bcf:	4d 85 e4             	test   %r12,%r12
    2bd2:	0f 84 7b ff ff ff    	je     2b53 <sgx_ecall_pointer_isptr_readonly+0x33>
    2bd8:	48 89 e9             	mov    %rbp,%rcx
    2bdb:	48 89 da             	mov    %rbx,%rdx
    2bde:	48 89 ee             	mov    %rbp,%rsi
    2be1:	4c 89 e7             	mov    %r12,%rdi
    2be4:	e8 17 d3 00 00       	call   ff00 <memcpy_s>
    2be9:	85 c0                	test   %eax,%eax
    2beb:	74 28                	je     2c15 <sgx_ecall_pointer_isptr_readonly+0xf5>
    2bed:	bb 01 00 00 00       	mov    $0x1,%ebx
    2bf2:	4c 89 e7             	mov    %r12,%rdi
    2bf5:	e8 e6 b3 00 00       	call   dfe0 <dlfree>
    2bfa:	89 d8                	mov    %ebx,%eax
    2bfc:	e9 52 ff ff ff       	jmp    2b53 <sgx_ecall_pointer_isptr_readonly+0x33>
    2c01:	48 89 ee             	mov    %rbp,%rsi
    2c04:	31 ff                	xor    %edi,%edi
    2c06:	0f ae e8             	lfence 
    2c09:	e8 b2 50 00 00       	call   7cc0 <ecall_pointer_isptr_readonly>
    2c0e:	31 c0                	xor    %eax,%eax
    2c10:	e9 3e ff ff ff       	jmp    2b53 <sgx_ecall_pointer_isptr_readonly+0x33>
    2c15:	48 89 ee             	mov    %rbp,%rsi
    2c18:	4c 89 e7             	mov    %r12,%rdi
    2c1b:	31 db                	xor    %ebx,%ebx
    2c1d:	e8 9e 50 00 00       	call   7cc0 <ecall_pointer_isptr_readonly>
    2c22:	eb ce                	jmp    2bf2 <sgx_ecall_pointer_isptr_readonly+0xd2>
    2c24:	31 f6                	xor    %esi,%esi
    2c26:	31 ff                	xor    %edi,%edi
    2c28:	e8 93 50 00 00       	call   7cc0 <ecall_pointer_isptr_readonly>
    2c2d:	31 c0                	xor    %eax,%eax
    2c2f:	e9 1f ff ff ff       	jmp    2b53 <sgx_ecall_pointer_isptr_readonly+0x33>
    2c34:	e8 87 cd 00 00       	call   f9c0 <__stack_chk_fail>
    2c39:	0f 1f 80 00 00 00 00 	nopl   0x0(%rax)

0000000000002c40 <sgx_ecall_pointer_count>:
    2c40:	41 56                	push   %r14
    2c42:	41 55                	push   %r13
    2c44:	41 54                	push   %r12
    2c46:	55                   	push   %rbp
    2c47:	53                   	push   %rbx
    2c48:	48 83 ec 20          	sub    $0x20,%rsp
    2c4c:	64 48 8b 04 25 28 00 	mov    %fs:0x28,%rax
    2c53:	00 00 
    2c55:	48 89 44 24 18       	mov    %rax,0x18(%rsp)
    2c5a:	31 c0                	xor    %eax,%eax
    2c5c:	48 85 ff             	test   %rdi,%rdi
    2c5f:	74 11                	je     2c72 <sgx_ecall_pointer_count+0x32>
    2c61:	be 10 00 00 00       	mov    $0x10,%esi
    2c66:	48 89 fb             	mov    %rdi,%rbx
    2c69:	e8 32 61 00 00       	call   8da0 <sgx_is_outside_enclave>
    2c6e:	85 c0                	test   %eax,%eax
    2c70:	75 2e                	jne    2ca0 <sgx_ecall_pointer_count+0x60>
    2c72:	b8 02 00 00 00       	mov    $0x2,%eax
    2c77:	48 8b 4c 24 18       	mov    0x18(%rsp),%rcx
    2c7c:	64 48 33 0c 25 28 00 	xor    %fs:0x28,%rcx
    2c83:	00 00 
    2c85:	0f 85 e2 00 00 00    	jne    2d6d <sgx_ecall_pointer_count+0x12d>
    2c8b:	48 83 c4 20          	add    $0x20,%rsp
    2c8f:	5b                   	pop    %rbx
    2c90:	5d                   	pop    %rbp
    2c91:	41 5c                	pop    %r12
    2c93:	41 5d                	pop    %r13
    2c95:	41 5e                	pop    %r14
    2c97:	c3                   	ret    
    2c98:	0f 1f 84 00 00 00 00 	nopl   0x0(%rax,%rax,1)
    2c9f:	00 
    2ca0:	48 89 da             	mov    %rbx,%rdx
    2ca3:	48 89 e7             	mov    %rsp,%rdi
    2ca6:	b9 10 00 00 00       	mov    $0x10,%ecx
    2cab:	be 10 00 00 00       	mov    $0x10,%esi
    2cb0:	0f ae e8             	lfence 
    2cb3:	e8 48 d2 00 00       	call   ff00 <memcpy_s>
    2cb8:	89 c2                	mov    %eax,%edx
    2cba:	b8 01 00 00 00       	mov    $0x1,%eax
    2cbf:	85 d2                	test   %edx,%edx
    2cc1:	75 b4                	jne    2c77 <sgx_ecall_pointer_count+0x37>
    2cc3:	8b 6c 24 08          	mov    0x8(%rsp),%ebp
    2cc7:	85 ed                	test   %ebp,%ebp
    2cc9:	78 a7                	js     2c72 <sgx_ecall_pointer_count+0x32>
    2ccb:	4c 8b 2c 24          	mov    (%rsp),%r13
    2ccf:	4d 85 ed             	test   %r13,%r13
    2cd2:	0f 84 82 00 00 00    	je     2d5a <sgx_ecall_pointer_count+0x11a>
    2cd8:	4c 63 e5             	movslq %ebp,%r12
    2cdb:	4c 89 ef             	mov    %r13,%rdi
    2cde:	49 c1 e4 02          	shl    $0x2,%r12
    2ce2:	4c 89 e6             	mov    %r12,%rsi
    2ce5:	e8 b6 60 00 00       	call   8da0 <sgx_is_outside_enclave>
    2cea:	85 c0                	test   %eax,%eax
    2cec:	74 84                	je     2c72 <sgx_ecall_pointer_count+0x32>
    2cee:	4d 85 e4             	test   %r12,%r12
    2cf1:	0f ae e8             	lfence 
    2cf4:	74 67                	je     2d5d <sgx_ecall_pointer_count+0x11d>
    2cf6:	4c 89 e7             	mov    %r12,%rdi
    2cf9:	e8 72 98 00 00       	call   c570 <dlmalloc>
    2cfe:	49 89 c6             	mov    %rax,%r14
    2d01:	b8 03 00 00 00       	mov    $0x3,%eax
    2d06:	4d 85 f6             	test   %r14,%r14
    2d09:	0f 84 68 ff ff ff    	je     2c77 <sgx_ecall_pointer_count+0x37>
    2d0f:	4c 89 e1             	mov    %r12,%rcx
    2d12:	4c 89 ea             	mov    %r13,%rdx
    2d15:	4c 89 e6             	mov    %r12,%rsi
    2d18:	4c 89 f7             	mov    %r14,%rdi
    2d1b:	bb 01 00 00 00       	mov    $0x1,%ebx
    2d20:	e8 db d1 00 00       	call   ff00 <memcpy_s>
    2d25:	85 c0                	test   %eax,%eax
    2d27:	75 22                	jne    2d4b <sgx_ecall_pointer_count+0x10b>
    2d29:	89 ee                	mov    %ebp,%esi
    2d2b:	4c 89 f7             	mov    %r14,%rdi
    2d2e:	31 db                	xor    %ebx,%ebx
    2d30:	e8 6b 4f 00 00       	call   7ca0 <ecall_pointer_count>
    2d35:	4c 89 e1             	mov    %r12,%rcx
    2d38:	4c 89 f2             	mov    %r14,%rdx
    2d3b:	4c 89 e6             	mov    %r12,%rsi
    2d3e:	4c 89 ef             	mov    %r13,%rdi
    2d41:	e8 3a d2 00 00       	call   ff80 <memcpy_verw_s>
    2d46:	85 c0                	test   %eax,%eax
    2d48:	0f 95 c3             	setne  %bl
    2d4b:	4c 89 f7             	mov    %r14,%rdi
    2d4e:	e8 8d b2 00 00       	call   dfe0 <dlfree>
    2d53:	89 d8                	mov    %ebx,%eax
    2d55:	e9 1d ff ff ff       	jmp    2c77 <sgx_ecall_pointer_count+0x37>
    2d5a:	0f ae e8             	lfence 
    2d5d:	89 ee                	mov    %ebp,%esi
    2d5f:	31 ff                	xor    %edi,%edi
    2d61:	e8 3a 4f 00 00       	call   7ca0 <ecall_pointer_count>
    2d66:	31 c0                	xor    %eax,%eax
    2d68:	e9 0a ff ff ff       	jmp    2c77 <sgx_ecall_pointer_count+0x37>
    2d6d:	e8 4e cc 00 00       	call   f9c0 <__stack_chk_fail>
    2d72:	66 2e 0f 1f 84 00 00 	cs nopw 0x0(%rax,%rax,1)
    2d79:	00 00 00 
    2d7c:	0f 1f 40 00          	nopl   0x0(%rax)

0000000000002d80 <sgx_ecall_pointer_size>:
    2d80:	41 55                	push   %r13
    2d82:	41 54                	push   %r12
    2d84:	55                   	push   %rbp
    2d85:	53                   	push   %rbx
    2d86:	48 83 ec 28          	sub    $0x28,%rsp
    2d8a:	64 48 8b 04 25 28 00 	mov    %fs:0x28,%rax
    2d91:	00 00 
    2d93:	48 89 44 24 18       	mov    %rax,0x18(%rsp)
    2d98:	31 c0                	xor    %eax,%eax
    2d9a:	48 85 ff             	test   %rdi,%rdi
    2d9d:	74 11                	je     2db0 <sgx_ecall_pointer_size+0x30>
    2d9f:	be 10 00 00 00       	mov    $0x10,%esi
    2da4:	48 89 fb             	mov    %rdi,%rbx
    2da7:	e8 f4 5f 00 00       	call   8da0 <sgx_is_outside_enclave>
    2dac:	85 c0                	test   %eax,%eax
    2dae:	75 28                	jne    2dd8 <sgx_ecall_pointer_size+0x58>
    2db0:	b8 02 00 00 00       	mov    $0x2,%eax
    2db5:	48 8b 4c 24 18       	mov    0x18(%rsp),%rcx
    2dba:	64 48 33 0c 25 28 00 	xor    %fs:0x28,%rcx
    2dc1:	00 00 
    2dc3:	0f 85 db 00 00 00    	jne    2ea4 <sgx_ecall_pointer_size+0x124>
    2dc9:	48 83 c4 28          	add    $0x28,%rsp
    2dcd:	5b                   	pop    %rbx
    2dce:	5d                   	pop    %rbp
    2dcf:	41 5c                	pop    %r12
    2dd1:	41 5d                	pop    %r13
    2dd3:	c3                   	ret    
    2dd4:	0f 1f 40 00          	nopl   0x0(%rax)
    2dd8:	48 89 da             	mov    %rbx,%rdx
    2ddb:	48 89 e7             	mov    %rsp,%rdi
    2dde:	b9 10 00 00 00       	mov    $0x10,%ecx
    2de3:	be 10 00 00 00       	mov    $0x10,%esi
    2de8:	0f ae e8             	lfence 
    2deb:	e8 10 d1 00 00       	call   ff00 <memcpy_s>
    2df0:	89 c2                	mov    %eax,%edx
    2df2:	b8 01 00 00 00       	mov    $0x1,%eax
    2df7:	85 d2                	test   %edx,%edx
    2df9:	75 ba                	jne    2db5 <sgx_ecall_pointer_size+0x35>
    2dfb:	4c 8b 24 24          	mov    (%rsp),%r12
    2dff:	48 8b 6c 24 08       	mov    0x8(%rsp),%rbp
    2e04:	4d 85 e4             	test   %r12,%r12
    2e07:	0f 84 83 00 00 00    	je     2e90 <sgx_ecall_pointer_size+0x110>
    2e0d:	48 89 ee             	mov    %rbp,%rsi
    2e10:	4c 89 e7             	mov    %r12,%rdi
    2e13:	e8 88 5f 00 00       	call   8da0 <sgx_is_outside_enclave>
    2e18:	89 c2                	mov    %eax,%edx
    2e1a:	b8 02 00 00 00       	mov    $0x2,%eax
    2e1f:	85 d2                	test   %edx,%edx
    2e21:	74 92                	je     2db5 <sgx_ecall_pointer_size+0x35>
    2e23:	48 85 ed             	test   %rbp,%rbp
    2e26:	0f ae e8             	lfence 
    2e29:	74 68                	je     2e93 <sgx_ecall_pointer_size+0x113>
    2e2b:	48 89 ef             	mov    %rbp,%rdi
    2e2e:	e8 3d 97 00 00       	call   c570 <dlmalloc>
    2e33:	49 89 c5             	mov    %rax,%r13
    2e36:	b8 03 00 00 00       	mov    $0x3,%eax
    2e3b:	4d 85 ed             	test   %r13,%r13
    2e3e:	0f 84 71 ff ff ff    	je     2db5 <sgx_ecall_pointer_size+0x35>
    2e44:	48 89 e9             	mov    %rbp,%rcx
    2e47:	4c 89 e2             	mov    %r12,%rdx
    2e4a:	48 89 ee             	mov    %rbp,%rsi
    2e4d:	4c 89 ef             	mov    %r13,%rdi
    2e50:	bb 01 00 00 00       	mov    $0x1,%ebx
    2e55:	e8 a6 d0 00 00       	call   ff00 <memcpy_s>
    2e5a:	85 c0                	test   %eax,%eax
    2e5c:	75 23                	jne    2e81 <sgx_ecall_pointer_size+0x101>
    2e5e:	48 89 ee             	mov    %rbp,%rsi
    2e61:	4c 89 ef             	mov    %r13,%rdi
    2e64:	31 db                	xor    %ebx,%ebx
    2e66:	e8 65 4e 00 00       	call   7cd0 <ecall_pointer_size>
    2e6b:	48 89 e9             	mov    %rbp,%rcx
    2e6e:	4c 89 ea             	mov    %r13,%rdx
    2e71:	48 89 ee             	mov    %rbp,%rsi
    2e74:	4c 89 e7             	mov    %r12,%rdi
    2e77:	e8 04 d1 00 00       	call   ff80 <memcpy_verw_s>
    2e7c:	85 c0                	test   %eax,%eax
    2e7e:	0f 95 c3             	setne  %bl
    2e81:	4c 89 ef             	mov    %r13,%rdi
    2e84:	e8 57 b1 00 00       	call   dfe0 <dlfree>
    2e89:	89 d8                	mov    %ebx,%eax
    2e8b:	e9 25 ff ff ff       	jmp    2db5 <sgx_ecall_pointer_size+0x35>
    2e90:	0f ae e8             	lfence 
    2e93:	48 89 ee             	mov    %rbp,%rsi
    2e96:	31 ff                	xor    %edi,%edi
    2e98:	e8 33 4e 00 00       	call   7cd0 <ecall_pointer_size>
    2e9d:	31 c0                	xor    %eax,%eax
    2e9f:	e9 11 ff ff ff       	jmp    2db5 <sgx_ecall_pointer_size+0x35>
    2ea4:	e8 17 cb 00 00       	call   f9c0 <__stack_chk_fail>
    2ea9:	0f 1f 80 00 00 00 00 	nopl   0x0(%rax)

0000000000002eb0 <sgx_ecall_pointer_string_const>:
    2eb0:	41 54                	push   %r12
    2eb2:	55                   	push   %rbp
    2eb3:	53                   	push   %rbx
    2eb4:	48 83 ec 20          	sub    $0x20,%rsp
    2eb8:	64 48 8b 04 25 28 00 	mov    %fs:0x28,%rax
    2ebf:	00 00 
    2ec1:	48 89 44 24 18       	mov    %rax,0x18(%rsp)
    2ec6:	31 c0                	xor    %eax,%eax
    2ec8:	48 85 ff             	test   %rdi,%rdi
    2ecb:	74 11                	je     2ede <sgx_ecall_pointer_string_const+0x2e>
    2ecd:	be 10 00 00 00       	mov    $0x10,%esi
    2ed2:	48 89 fb             	mov    %rdi,%rbx
    2ed5:	e8 c6 5e 00 00       	call   8da0 <sgx_is_outside_enclave>
    2eda:	85 c0                	test   %eax,%eax
    2edc:	75 22                	jne    2f00 <sgx_ecall_pointer_string_const+0x50>
    2ede:	b8 02 00 00 00       	mov    $0x2,%eax
    2ee3:	48 8b 4c 24 18       	mov    0x18(%rsp),%rcx
    2ee8:	64 48 33 0c 25 28 00 	xor    %fs:0x28,%rcx
    2eef:	00 00 
    2ef1:	0f 85 17 01 00 00    	jne    300e <sgx_ecall_pointer_string_const+0x15e>
    2ef7:	48 83 c4 20          	add    $0x20,%rsp
    2efb:	5b                   	pop    %rbx
    2efc:	5d                   	pop    %rbp
    2efd:	41 5c                	pop    %r12
    2eff:	c3                   	ret    
    2f00:	48 89 da             	mov    %rbx,%rdx
    2f03:	48 89 e7             	mov    %rsp,%rdi
    2f06:	b9 10 00 00 00       	mov    $0x10,%ecx
    2f0b:	be 10 00 00 00       	mov    $0x10,%esi
    2f10:	0f ae e8             	lfence 
    2f13:	e8 e8 cf 00 00       	call   ff00 <memcpy_s>
    2f18:	89 c2                	mov    %eax,%edx
    2f1a:	b8 01 00 00 00       	mov    $0x1,%eax
    2f1f:	85 d2                	test   %edx,%edx
    2f21:	75 c0                	jne    2ee3 <sgx_ecall_pointer_string_const+0x33>
    2f23:	48 8b 1c 24          	mov    (%rsp),%rbx
    2f27:	48 8b 6c 24 08       	mov    0x8(%rsp),%rbp
    2f2c:	48 85 db             	test   %rbx,%rbx
    2f2f:	0f 84 ae 00 00 00    	je     2fe3 <sgx_ecall_pointer_string_const+0x133>
    2f35:	48 89 ee             	mov    %rbp,%rsi
    2f38:	48 89 df             	mov    %rbx,%rdi
    2f3b:	e8 60 5e 00 00       	call   8da0 <sgx_is_outside_enclave>
    2f40:	89 c2                	mov    %eax,%edx
    2f42:	b8 02 00 00 00       	mov    $0x2,%eax
    2f47:	85 d2                	test   %edx,%edx
    2f49:	74 98                	je     2ee3 <sgx_ecall_pointer_string_const+0x33>
    2f4b:	48 85 ed             	test   %rbp,%rbp
    2f4e:	0f ae e8             	lfence 
    2f51:	0f 84 9d 00 00 00    	je     2ff4 <sgx_ecall_pointer_string_const+0x144>
    2f57:	48 89 ef             	mov    %rbp,%rdi
    2f5a:	e8 11 96 00 00       	call   c570 <dlmalloc>
    2f5f:	49 89 c4             	mov    %rax,%r12
    2f62:	b8 03 00 00 00       	mov    $0x3,%eax
    2f67:	4d 85 e4             	test   %r12,%r12
    2f6a:	0f 84 73 ff ff ff    	je     2ee3 <sgx_ecall_pointer_string_const+0x33>
    2f70:	48 89 e9             	mov    %rbp,%rcx
    2f73:	48 89 da             	mov    %rbx,%rdx
    2f76:	48 89 ee             	mov    %rbp,%rsi
    2f79:	4c 89 e7             	mov    %r12,%rdi
    2f7c:	e8 7f cf 00 00       	call   ff00 <memcpy_s>
    2f81:	85 c0                	test   %eax,%eax
    2f83:	75 4a                	jne    2fcf <sgx_ecall_pointer_string_const+0x11f>
    2f85:	41 c6 44 2c ff 00    	movb   $0x0,-0x1(%r12,%rbp,1)
    2f8b:	4c 89 e2             	mov    %r12,%rdx
    2f8e:	8b 0a                	mov    (%rdx),%ecx
    2f90:	48 83 c2 04          	add    $0x4,%rdx
    2f94:	8d 81 ff fe fe fe    	lea    -0x1010101(%rcx),%eax
    2f9a:	f7 d1                	not    %ecx
    2f9c:	21 c8                	and    %ecx,%eax
    2f9e:	25 80 80 80 80       	and    $0x80808080,%eax
    2fa3:	74 e9                	je     2f8e <sgx_ecall_pointer_string_const+0xde>
    2fa5:	89 c1                	mov    %eax,%ecx
    2fa7:	c1 e9 10             	shr    $0x10,%ecx
    2faa:	a9 80 80 00 00       	test   $0x8080,%eax
    2faf:	0f 44 c1             	cmove  %ecx,%eax
    2fb2:	48 8d 4a 02          	lea    0x2(%rdx),%rcx
    2fb6:	89 c6                	mov    %eax,%esi
    2fb8:	48 0f 44 d1          	cmove  %rcx,%rdx
    2fbc:	40 00 c6             	add    %al,%sil
    2fbf:	48 83 da 03          	sbb    $0x3,%rdx
    2fc3:	4c 29 e2             	sub    %r12,%rdx
    2fc6:	48 83 c2 01          	add    $0x1,%rdx
    2fca:	48 39 d5             	cmp    %rdx,%rbp
    2fcd:	74 33                	je     3002 <sgx_ecall_pointer_string_const+0x152>
    2fcf:	bb 01 00 00 00       	mov    $0x1,%ebx
    2fd4:	4c 89 e7             	mov    %r12,%rdi
    2fd7:	e8 04 b0 00 00       	call   dfe0 <dlfree>
    2fdc:	89 d8                	mov    %ebx,%eax
    2fde:	e9 00 ff ff ff       	jmp    2ee3 <sgx_ecall_pointer_string_const+0x33>
    2fe3:	31 ff                	xor    %edi,%edi
    2fe5:	0f ae e8             	lfence 
    2fe8:	e8 73 4c 00 00       	call   7c60 <ecall_pointer_string_const>
    2fed:	31 c0                	xor    %eax,%eax
    2fef:	e9 ef fe ff ff       	jmp    2ee3 <sgx_ecall_pointer_string_const+0x33>
    2ff4:	31 ff                	xor    %edi,%edi
    2ff6:	e8 65 4c 00 00       	call   7c60 <ecall_pointer_string_const>
    2ffb:	31 c0                	xor    %eax,%eax
    2ffd:	e9 e1 fe ff ff       	jmp    2ee3 <sgx_ecall_pointer_string_const+0x33>
    3002:	4c 89 e7             	mov    %r12,%rdi
    3005:	31 db                	xor    %ebx,%ebx
    3007:	e8 54 4c 00 00       	call   7c60 <ecall_pointer_string_const>
    300c:	eb c6                	jmp    2fd4 <sgx_ecall_pointer_string_const+0x124>
    300e:	e8 ad c9 00 00       	call   f9c0 <__stack_chk_fail>
    3013:	66 2e 0f 1f 84 00 00 	cs nopw 0x0(%rax,%rax,1)
    301a:	00 00 00 
    301d:	0f 1f 00             	nopl   (%rax)

0000000000003020 <sgx_ecall_pointer_string>:
    3020:	41 55                	push   %r13
    3022:	41 54                	push   %r12
    3024:	55                   	push   %rbp
    3025:	53                   	push   %rbx
    3026:	48 83 ec 28          	sub    $0x28,%rsp
    302a:	64 48 8b 04 25 28 00 	mov    %fs:0x28,%rax
    3031:	00 00 
    3033:	48 89 44 24 18       	mov    %rax,0x18(%rsp)
    3038:	31 c0                	xor    %eax,%eax
    303a:	48 85 ff             	test   %rdi,%rdi
    303d:	74 11                	je     3050 <sgx_ecall_pointer_string+0x30>
    303f:	be 10 00 00 00       	mov    $0x10,%esi
    3044:	48 89 fb             	mov    %rdi,%rbx
    3047:	e8 54 5d 00 00       	call   8da0 <sgx_is_outside_enclave>
    304c:	85 c0                	test   %eax,%eax
    304e:	75 28                	jne    3078 <sgx_ecall_pointer_string+0x58>
    3050:	b8 02 00 00 00       	mov    $0x2,%eax
    3055:	48 8b 4c 24 18       	mov    0x18(%rsp),%rcx
    305a:	64 48 33 0c 25 28 00 	xor    %fs:0x28,%rcx
    3061:	00 00 
    3063:	0f 85 6d 01 00 00    	jne    31d6 <sgx_ecall_pointer_string+0x1b6>
    3069:	48 83 c4 28          	add    $0x28,%rsp
    306d:	5b                   	pop    %rbx
    306e:	5d                   	pop    %rbp
    306f:	41 5c                	pop    %r12
    3071:	41 5d                	pop    %r13
    3073:	c3                   	ret    
    3074:	0f 1f 40 00          	nopl   0x0(%rax)
    3078:	48 89 da             	mov    %rbx,%rdx
    307b:	48 89 e7             	mov    %rsp,%rdi
    307e:	b9 10 00 00 00       	mov    $0x10,%ecx
    3083:	be 10 00 00 00       	mov    $0x10,%esi
    3088:	0f ae e8             	lfence 
    308b:	e8 70 ce 00 00       	call   ff00 <memcpy_s>
    3090:	89 c2                	mov    %eax,%edx
    3092:	b8 01 00 00 00       	mov    $0x1,%eax
    3097:	85 d2                	test   %edx,%edx
    3099:	75 ba                	jne    3055 <sgx_ecall_pointer_string+0x35>
    309b:	48 8b 1c 24          	mov    (%rsp),%rbx
    309f:	48 8b 6c 24 08       	mov    0x8(%rsp),%rbp
    30a4:	48 85 db             	test   %rbx,%rbx
    30a7:	0f 84 b2 00 00 00    	je     315f <sgx_ecall_pointer_string+0x13f>
    30ad:	48 89 ee             	mov    %rbp,%rsi
    30b0:	48 89 df             	mov    %rbx,%rdi
    30b3:	e8 e8 5c 00 00       	call   8da0 <sgx_is_outside_enclave>
    30b8:	89 c2                	mov    %eax,%edx
    30ba:	b8 02 00 00 00       	mov    $0x2,%eax
    30bf:	85 d2                	test   %edx,%edx
    30c1:	74 92                	je     3055 <sgx_ecall_pointer_string+0x35>
    30c3:	48 85 ed             	test   %rbp,%rbp
    30c6:	0f ae e8             	lfence 
    30c9:	0f 84 93 00 00 00    	je     3162 <sgx_ecall_pointer_string+0x142>
    30cf:	48 89 ef             	mov    %rbp,%rdi
    30d2:	e8 99 94 00 00       	call   c570 <dlmalloc>
    30d7:	49 89 c4             	mov    %rax,%r12
    30da:	b8 03 00 00 00       	mov    $0x3,%eax
    30df:	4d 85 e4             	test   %r12,%r12
    30e2:	0f 84 6d ff ff ff    	je     3055 <sgx_ecall_pointer_string+0x35>
    30e8:	48 89 e9             	mov    %rbp,%rcx
    30eb:	48 89 da             	mov    %rbx,%rdx
    30ee:	48 89 ee             	mov    %rbp,%rsi
    30f1:	4c 89 e7             	mov    %r12,%rdi
    30f4:	e8 07 ce 00 00       	call   ff00 <memcpy_s>
    30f9:	85 c0                	test   %eax,%eax
    30fb:	75 4e                	jne    314b <sgx_ecall_pointer_string+0x12b>
    30fd:	4d 8d 6c 2c ff       	lea    -0x1(%r12,%rbp,1),%r13
    3102:	4c 89 e2             	mov    %r12,%rdx
    3105:	41 c6 45 00 00       	movb   $0x0,0x0(%r13)
    310a:	8b 0a                	mov    (%rdx),%ecx
    310c:	48 83 c2 04          	add    $0x4,%rdx
    3110:	8d 81 ff fe fe fe    	lea    -0x1010101(%rcx),%eax
    3116:	f7 d1                	not    %ecx
    3118:	21 c8                	and    %ecx,%eax
    311a:	25 80 80 80 80       	and    $0x80808080,%eax
    311f:	74 e9                	je     310a <sgx_ecall_pointer_string+0xea>
    3121:	89 c1                	mov    %eax,%ecx
    3123:	c1 e9 10             	shr    $0x10,%ecx
    3126:	a9 80 80 00 00       	test   $0x8080,%eax
    312b:	0f 44 c1             	cmove  %ecx,%eax
    312e:	48 8d 4a 02          	lea    0x2(%rdx),%rcx
    3132:	89 c6                	mov    %eax,%esi
    3134:	48 0f 44 d1          	cmove  %rcx,%rdx
    3138:	40 00 c6             	add    %al,%sil
    313b:	48 83 da 03          	sbb    $0x3,%rdx
    313f:	4c 29 e2             	sub    %r12,%rdx
    3142:	48 83 c2 01          	add    $0x1,%rdx
    3146:	48 39 d5             	cmp    %rdx,%rbp
    3149:	74 25                	je     3170 <sgx_ecall_pointer_string+0x150>
    314b:	bb 01 00 00 00       	mov    $0x1,%ebx
    3150:	4c 89 e7             	mov    %r12,%rdi
    3153:	e8 88 ae 00 00       	call   dfe0 <dlfree>
    3158:	89 d8                	mov    %ebx,%eax
    315a:	e9 f6 fe ff ff       	jmp    3055 <sgx_ecall_pointer_string+0x35>
    315f:	0f ae e8             	lfence 
    3162:	31 ff                	xor    %edi,%edi
    3164:	e8 d7 4a 00 00       	call   7c40 <ecall_pointer_string>
    3169:	31 c0                	xor    %eax,%eax
    316b:	e9 e5 fe ff ff       	jmp    3055 <sgx_ecall_pointer_string+0x35>
    3170:	4c 89 e7             	mov    %r12,%rdi
    3173:	e8 c8 4a 00 00       	call   7c40 <ecall_pointer_string>
    3178:	41 c6 45 00 00       	movb   $0x0,0x0(%r13)
    317d:	4c 89 e2             	mov    %r12,%rdx
    3180:	8b 0a                	mov    (%rdx),%ecx
    3182:	48 83 c2 04          	add    $0x4,%rdx
    3186:	8d 81 ff fe fe fe    	lea    -0x1010101(%rcx),%eax
    318c:	f7 d1                	not    %ecx
    318e:	21 c8                	and    %ecx,%eax
    3190:	25 80 80 80 80       	and    $0x80808080,%eax
    3195:	74 e9                	je     3180 <sgx_ecall_pointer_string+0x160>
    3197:	89 c1                	mov    %eax,%ecx
    3199:	48 89 df             	mov    %rbx,%rdi
    319c:	c1 e9 10             	shr    $0x10,%ecx
    319f:	a9 80 80 00 00       	test   $0x8080,%eax
    31a4:	0f 44 c1             	cmove  %ecx,%eax
    31a7:	48 8d 4a 02          	lea    0x2(%rdx),%rcx
    31ab:	89 c6                	mov    %eax,%esi
    31ad:	48 0f 44 d1          	cmove  %rcx,%rdx
    31b1:	40 00 c6             	add    %al,%sil
    31b4:	48 83 da 03          	sbb    $0x3,%rdx
    31b8:	31 db                	xor    %ebx,%ebx
    31ba:	4c 29 e2             	sub    %r12,%rdx
    31bd:	48 8d 72 01          	lea    0x1(%rdx),%rsi
    31c1:	4c 89 e2             	mov    %r12,%rdx
    31c4:	48 89 f1             	mov    %rsi,%rcx
    31c7:	e8 b4 cd 00 00       	call   ff80 <memcpy_verw_s>
    31cc:	85 c0                	test   %eax,%eax
    31ce:	0f 95 c3             	setne  %bl
    31d1:	e9 7a ff ff ff       	jmp    3150 <sgx_ecall_pointer_string+0x130>
    31d6:	e8 e5 c7 00 00       	call   f9c0 <__stack_chk_fail>
    31db:	0f 1f 44 00 00       	nopl   0x0(%rax,%rax,1)

00000000000031e0 <sgx_ecall_pointer_in_out>:
    31e0:	41 54                	push   %r12
    31e2:	55                   	push   %rbp
    31e3:	53                   	push   %rbx
    31e4:	48 83 ec 10          	sub    $0x10,%rsp
    31e8:	64 48 8b 04 25 28 00 	mov    %fs:0x28,%rax
    31ef:	00 00 
    31f1:	48 89 44 24 08       	mov    %rax,0x8(%rsp)
    31f6:	31 c0                	xor    %eax,%eax
    31f8:	48 85 ff             	test   %rdi,%rdi
    31fb:	74 11                	je     320e <sgx_ecall_pointer_in_out+0x2e>
    31fd:	be 08 00 00 00       	mov    $0x8,%esi
    3202:	48 89 fb             	mov    %rdi,%rbx
    3205:	e8 96 5b 00 00       	call   8da0 <sgx_is_outside_enclave>
    320a:	85 c0                	test   %eax,%eax
    320c:	75 22                	jne    3230 <sgx_ecall_pointer_in_out+0x50>
    320e:	b8 02 00 00 00       	mov    $0x2,%eax
    3213:	48 8b 4c 24 08       	mov    0x8(%rsp),%rcx
    3218:	64 48 33 0c 25 28 00 	xor    %fs:0x28,%rcx
    321f:	00 00 
    3221:	0f 85 ce 00 00 00    	jne    32f5 <sgx_ecall_pointer_in_out+0x115>
    3227:	48 83 c4 10          	add    $0x10,%rsp
    322b:	5b                   	pop    %rbx
    322c:	5d                   	pop    %rbp
    322d:	41 5c                	pop    %r12
    322f:	c3                   	ret    
    3230:	48 89 da             	mov    %rbx,%rdx
    3233:	48 89 e7             	mov    %rsp,%rdi
    3236:	b9 08 00 00 00       	mov    $0x8,%ecx
    323b:	be 08 00 00 00       	mov    $0x8,%esi
    3240:	0f ae e8             	lfence 
    3243:	e8 b8 cc 00 00       	call   ff00 <memcpy_s>
    3248:	89 c2                	mov    %eax,%edx
    324a:	b8 01 00 00 00       	mov    $0x1,%eax
    324f:	85 d2                	test   %edx,%edx
    3251:	75 c0                	jne    3213 <sgx_ecall_pointer_in_out+0x33>
    3253:	48 8b 2c 24          	mov    (%rsp),%rbp
    3257:	48 85 ed             	test   %rbp,%rbp
    325a:	74 7e                	je     32da <sgx_ecall_pointer_in_out+0xfa>
    325c:	be 04 00 00 00       	mov    $0x4,%esi
    3261:	48 89 ef             	mov    %rbp,%rdi
    3264:	e8 37 5b 00 00       	call   8da0 <sgx_is_outside_enclave>
    3269:	89 c2                	mov    %eax,%edx
    326b:	b8 02 00 00 00       	mov    $0x2,%eax
    3270:	85 d2                	test   %edx,%edx
    3272:	74 9f                	je     3213 <sgx_ecall_pointer_in_out+0x33>
    3274:	bf 04 00 00 00       	mov    $0x4,%edi
    3279:	0f ae e8             	lfence 
    327c:	e8 ef 92 00 00       	call   c570 <dlmalloc>
    3281:	48 85 c0             	test   %rax,%rax
    3284:	49 89 c4             	mov    %rax,%r12
    3287:	74 62                	je     32eb <sgx_ecall_pointer_in_out+0x10b>
    3289:	b9 04 00 00 00       	mov    $0x4,%ecx
    328e:	48 89 ea             	mov    %rbp,%rdx
    3291:	be 04 00 00 00       	mov    $0x4,%esi
    3296:	4c 89 e7             	mov    %r12,%rdi
    3299:	bb 01 00 00 00       	mov    $0x1,%ebx
    329e:	e8 5d cc 00 00       	call   ff00 <memcpy_s>
    32a3:	85 c0                	test   %eax,%eax
    32a5:	75 24                	jne    32cb <sgx_ecall_pointer_in_out+0xeb>
    32a7:	4c 89 e7             	mov    %r12,%rdi
    32aa:	31 db                	xor    %ebx,%ebx
    32ac:	e8 3f 48 00 00       	call   7af0 <ecall_pointer_in_out>
    32b1:	b9 04 00 00 00       	mov    $0x4,%ecx
    32b6:	4c 89 e2             	mov    %r12,%rdx
    32b9:	be 04 00 00 00       	mov    $0x4,%esi
    32be:	48 89 ef             	mov    %rbp,%rdi
    32c1:	e8 ba cc 00 00       	call   ff80 <memcpy_verw_s>
    32c6:	85 c0                	test   %eax,%eax
    32c8:	0f 95 c3             	setne  %bl
    32cb:	4c 89 e7             	mov    %r12,%rdi
    32ce:	e8 0d ad 00 00       	call   dfe0 <dlfree>
    32d3:	89 d8                	mov    %ebx,%eax
    32d5:	e9 39 ff ff ff       	jmp    3213 <sgx_ecall_pointer_in_out+0x33>
    32da:	31 ff                	xor    %edi,%edi
    32dc:	0f ae e8             	lfence 
    32df:	e8 0c 48 00 00       	call   7af0 <ecall_pointer_in_out>
    32e4:	31 c0                	xor    %eax,%eax
    32e6:	e9 28 ff ff ff       	jmp    3213 <sgx_ecall_pointer_in_out+0x33>
    32eb:	b8 03 00 00 00       	mov    $0x3,%eax
    32f0:	e9 1e ff ff ff       	jmp    3213 <sgx_ecall_pointer_in_out+0x33>
    32f5:	e8 c6 c6 00 00       	call   f9c0 <__stack_chk_fail>
    32fa:	66 0f 1f 44 00 00    	nopw   0x0(%rax,%rax,1)

0000000000003300 <sgx_ecall_pointer_out>:
    3300:	55                   	push   %rbp
    3301:	53                   	push   %rbx
    3302:	48 83 ec 28          	sub    $0x28,%rsp
    3306:	64 48 8b 04 25 28 00 	mov    %fs:0x28,%rax
    330d:	00 00 
    330f:	48 89 44 24 18       	mov    %rax,0x18(%rsp)
    3314:	31 c0                	xor    %eax,%eax
    3316:	48 85 ff             	test   %rdi,%rdi
    3319:	74 11                	je     332c <sgx_ecall_pointer_out+0x2c>
    331b:	be 08 00 00 00       	mov    $0x8,%esi
    3320:	48 89 fb             	mov    %rdi,%rbx
    3323:	e8 78 5a 00 00       	call   8da0 <sgx_is_outside_enclave>
    3328:	85 c0                	test   %eax,%eax
    332a:	75 24                	jne    3350 <sgx_ecall_pointer_out+0x50>
    332c:	b8 02 00 00 00       	mov    $0x2,%eax
    3331:	48 8b 4c 24 18       	mov    0x18(%rsp),%rcx
    3336:	64 48 33 0c 25 28 00 	xor    %fs:0x28,%rcx
    333d:	00 00 
    333f:	0f 85 c1 00 00 00    	jne    3406 <sgx_ecall_pointer_out+0x106>
    3345:	48 83 c4 28          	add    $0x28,%rsp
    3349:	5b                   	pop    %rbx
    334a:	5d                   	pop    %rbp
    334b:	c3                   	ret    
    334c:	0f 1f 40 00          	nopl   0x0(%rax)
    3350:	48 8d 7c 24 10       	lea    0x10(%rsp),%rdi
    3355:	48 89 da             	mov    %rbx,%rdx
    3358:	b9 08 00 00 00       	mov    $0x8,%ecx
    335d:	be 08 00 00 00       	mov    $0x8,%esi
    3362:	0f ae e8             	lfence 
    3365:	e8 96 cb 00 00       	call   ff00 <memcpy_s>
    336a:	89 c2                	mov    %eax,%edx
    336c:	b8 01 00 00 00       	mov    $0x1,%eax
    3371:	85 d2                	test   %edx,%edx
    3373:	75 bc                	jne    3331 <sgx_ecall_pointer_out+0x31>
    3375:	48 8b 5c 24 10       	mov    0x10(%rsp),%rbx
    337a:	48 85 db             	test   %rbx,%rbx
    337d:	74 6c                	je     33eb <sgx_ecall_pointer_out+0xeb>
    337f:	be 04 00 00 00       	mov    $0x4,%esi
    3384:	48 89 df             	mov    %rbx,%rdi
    3387:	e8 14 5a 00 00       	call   8da0 <sgx_is_outside_enclave>
    338c:	89 c2                	mov    %eax,%edx
    338e:	b8 02 00 00 00       	mov    $0x2,%eax
    3393:	85 d2                	test   %edx,%edx
    3395:	74 9a                	je     3331 <sgx_ecall_pointer_out+0x31>
    3397:	be 01 00 00 00       	mov    $0x1,%esi
    339c:	bf 04 00 00 00       	mov    $0x4,%edi
    33a1:	0f ae e8             	lfence 
    33a4:	e8 47 b6 00 00       	call   e9f0 <calloc>
    33a9:	48 85 c0             	test   %rax,%rax
    33ac:	48 89 c5             	mov    %rax,%rbp
    33af:	74 4b                	je     33fc <sgx_ecall_pointer_out+0xfc>
    33b1:	48 89 ef             	mov    %rbp,%rdi
    33b4:	e8 e7 46 00 00       	call   7aa0 <ecall_pointer_out>
    33b9:	b9 04 00 00 00       	mov    $0x4,%ecx
    33be:	48 89 ea             	mov    %rbp,%rdx
    33c1:	be 04 00 00 00       	mov    $0x4,%esi
    33c6:	48 89 df             	mov    %rbx,%rdi
    33c9:	e8 b2 cb 00 00       	call   ff80 <memcpy_verw_s>
    33ce:	85 c0                	test   %eax,%eax
    33d0:	48 89 ef             	mov    %rbp,%rdi
    33d3:	0f 95 c0             	setne  %al
    33d6:	0f b6 c0             	movzbl %al,%eax
    33d9:	89 44 24 0c          	mov    %eax,0xc(%rsp)
    33dd:	e8 fe ab 00 00       	call   dfe0 <dlfree>
    33e2:	8b 44 24 0c          	mov    0xc(%rsp),%eax
    33e6:	e9 46 ff ff ff       	jmp    3331 <sgx_ecall_pointer_out+0x31>
    33eb:	31 ff                	xor    %edi,%edi
    33ed:	0f ae e8             	lfence 
    33f0:	e8 ab 46 00 00       	call   7aa0 <ecall_pointer_out>
    33f5:	31 c0                	xor    %eax,%eax
    33f7:	e9 35 ff ff ff       	jmp    3331 <sgx_ecall_pointer_out+0x31>
    33fc:	b8 03 00 00 00       	mov    $0x3,%eax
    3401:	e9 2b ff ff ff       	jmp    3331 <sgx_ecall_pointer_out+0x31>
    3406:	e8 b5 c5 00 00       	call   f9c0 <__stack_chk_fail>
    340b:	0f 1f 44 00 00       	nopl   0x0(%rax,%rax,1)

0000000000003410 <sgx_ecall_pointer_in>:
    3410:	55                   	push   %rbp
    3411:	53                   	push   %rbx
    3412:	48 83 ec 18          	sub    $0x18,%rsp
    3416:	64 48 8b 04 25 28 00 	mov    %fs:0x28,%rax
    341d:	00 00 
    341f:	48 89 44 24 08       	mov    %rax,0x8(%rsp)
    3424:	31 c0                	xor    %eax,%eax
    3426:	48 85 ff             	test   %rdi,%rdi
    3429:	74 11                	je     343c <sgx_ecall_pointer_in+0x2c>
    342b:	be 08 00 00 00       	mov    $0x8,%esi
    3430:	48 89 fb             	mov    %rdi,%rbx
    3433:	e8 68 59 00 00       	call   8da0 <sgx_is_outside_enclave>
    3438:	85 c0                	test   %eax,%eax
    343a:	75 24                	jne    3460 <sgx_ecall_pointer_in+0x50>
    343c:	b8 02 00 00 00       	mov    $0x2,%eax
    3441:	48 8b 4c 24 08       	mov    0x8(%rsp),%rcx
    3446:	64 48 33 0c 25 28 00 	xor    %fs:0x28,%rcx
    344d:	00 00 
    344f:	0f 85 b3 00 00 00    	jne    3508 <sgx_ecall_pointer_in+0xf8>
    3455:	48 83 c4 18          	add    $0x18,%rsp
    3459:	5b                   	pop    %rbx
    345a:	5d                   	pop    %rbp
    345b:	c3                   	ret    
    345c:	0f 1f 40 00          	nopl   0x0(%rax)
    3460:	48 89 da             	mov    %rbx,%rdx
    3463:	48 89 e7             	mov    %rsp,%rdi
    3466:	b9 08 00 00 00       	mov    $0x8,%ecx
    346b:	be 08 00 00 00       	mov    $0x8,%esi
    3470:	0f ae e8             	lfence 
    3473:	e8 88 ca 00 00       	call   ff00 <memcpy_s>
    3478:	89 c2                	mov    %eax,%edx
    347a:	b8 01 00 00 00       	mov    $0x1,%eax
    347f:	85 d2                	test   %edx,%edx
    3481:	75 be                	jne    3441 <sgx_ecall_pointer_in+0x31>
    3483:	48 8b 1c 24          	mov    (%rsp),%rbx
    3487:	48 85 db             	test   %rbx,%rbx
    348a:	74 5f                	je     34eb <sgx_ecall_pointer_in+0xdb>
    348c:	be 04 00 00 00       	mov    $0x4,%esi
    3491:	48 89 df             	mov    %rbx,%rdi
    3494:	e8 07 59 00 00       	call   8da0 <sgx_is_outside_enclave>
    3499:	89 c2                	mov    %eax,%edx
    349b:	b8 02 00 00 00       	mov    $0x2,%eax
    34a0:	85 d2                	test   %edx,%edx
    34a2:	74 9d                	je     3441 <sgx_ecall_pointer_in+0x31>
    34a4:	bf 04 00 00 00       	mov    $0x4,%edi
    34a9:	0f ae e8             	lfence 
    34ac:	e8 bf 90 00 00       	call   c570 <dlmalloc>
    34b1:	48 89 c5             	mov    %rax,%rbp
    34b4:	b8 03 00 00 00       	mov    $0x3,%eax
    34b9:	48 85 ed             	test   %rbp,%rbp
    34bc:	74 83                	je     3441 <sgx_ecall_pointer_in+0x31>
    34be:	b9 04 00 00 00       	mov    $0x4,%ecx
    34c3:	48 89 da             	mov    %rbx,%rdx
    34c6:	be 04 00 00 00       	mov    $0x4,%esi
    34cb:	48 89 ef             	mov    %rbp,%rdi
    34ce:	e8 2d ca 00 00       	call   ff00 <memcpy_s>
    34d3:	85 c0                	test   %eax,%eax
    34d5:	74 25                	je     34fc <sgx_ecall_pointer_in+0xec>
    34d7:	bb 01 00 00 00       	mov    $0x1,%ebx
    34dc:	48 89 ef             	mov    %rbp,%rdi
    34df:	e8 fc aa 00 00       	call   dfe0 <dlfree>
    34e4:	89 d8                	mov    %ebx,%eax
    34e6:	e9 56 ff ff ff       	jmp    3441 <sgx_ecall_pointer_in+0x31>
    34eb:	31 ff                	xor    %edi,%edi
    34ed:	0f ae e8             	lfence 
    34f0:	e8 1b 46 00 00       	call   7b10 <ecall_pointer_in>
    34f5:	31 c0                	xor    %eax,%eax
    34f7:	e9 45 ff ff ff       	jmp    3441 <sgx_ecall_pointer_in+0x31>
    34fc:	48 89 ef             	mov    %rbp,%rdi
    34ff:	31 db                	xor    %ebx,%ebx
    3501:	e8 0a 46 00 00       	call   7b10 <ecall_pointer_in>
    3506:	eb d4                	jmp    34dc <sgx_ecall_pointer_in+0xcc>
    3508:	e8 b3 c4 00 00       	call   f9c0 <__stack_chk_fail>
    350d:	0f 1f 00             	nopl   (%rax)

0000000000003510 <sgx_ecall_pointer_user_check>:
    3510:	53                   	push   %rbx
    3511:	48 83 ec 30          	sub    $0x30,%rsp
    3515:	64 48 8b 04 25 28 00 	mov    %fs:0x28,%rax
    351c:	00 00 
    351e:	48 89 44 24 28       	mov    %rax,0x28(%rsp)
    3523:	31 c0                	xor    %eax,%eax
    3525:	48 85 ff             	test   %rdi,%rdi
    3528:	74 11                	je     353b <sgx_ecall_pointer_user_check+0x2b>
    352a:	be 18 00 00 00       	mov    $0x18,%esi
    352f:	48 89 fb             	mov    %rdi,%rbx
    3532:	e8 69 58 00 00       	call   8da0 <sgx_is_outside_enclave>
    3537:	85 c0                	test   %eax,%eax
    3539:	75 25                	jne    3560 <sgx_ecall_pointer_user_check+0x50>
    353b:	b8 02 00 00 00       	mov    $0x2,%eax
    3540:	48 8b 4c 24 28       	mov    0x28(%rsp),%rcx
    3545:	64 48 33 0c 25 28 00 	xor    %fs:0x28,%rcx
    354c:	00 00 
    354e:	75 6a                	jne    35ba <sgx_ecall_pointer_user_check+0xaa>
    3550:	48 83 c4 30          	add    $0x30,%rsp
    3554:	5b                   	pop    %rbx
    3555:	c3                   	ret    
    3556:	66 2e 0f 1f 84 00 00 	cs nopw 0x0(%rax,%rax,1)
    355d:	00 00 00 
    3560:	48 8d 7c 24 10       	lea    0x10(%rsp),%rdi
    3565:	48 89 da             	mov    %rbx,%rdx
    3568:	b9 18 00 00 00       	mov    $0x18,%ecx
    356d:	be 18 00 00 00       	mov    $0x18,%esi
    3572:	0f ae e8             	lfence 
    3575:	e8 86 c9 00 00       	call   ff00 <memcpy_s>
    357a:	89 c2                	mov    %eax,%edx
    357c:	b8 01 00 00 00       	mov    $0x1,%eax
    3581:	85 d2                	test   %edx,%edx
    3583:	75 bb                	jne    3540 <sgx_ecall_pointer_user_check+0x30>
    3585:	48 8b 74 24 20       	mov    0x20(%rsp),%rsi
    358a:	48 8b 7c 24 18       	mov    0x18(%rsp),%rdi
    358f:	e8 3c 43 00 00       	call   78d0 <ecall_pointer_user_check>
    3594:	48 8d 54 24 08       	lea    0x8(%rsp),%rdx
    3599:	b9 08 00 00 00       	mov    $0x8,%ecx
    359e:	be 08 00 00 00       	mov    $0x8,%esi
    35a3:	48 89 df             	mov    %rbx,%rdi
    35a6:	48 89 44 24 08       	mov    %rax,0x8(%rsp)
    35ab:	e8 d0 c9 00 00       	call   ff80 <memcpy_verw_s>
    35b0:	85 c0                	test   %eax,%eax
    35b2:	0f 95 c0             	setne  %al
    35b5:	0f b6 c0             	movzbl %al,%eax
    35b8:	eb 86                	jmp    3540 <sgx_ecall_pointer_user_check+0x30>
    35ba:	e8 01 c4 00 00       	call   f9c0 <__stack_chk_fail>
    35bf:	90                   	nop

00000000000035c0 <sgx_ecall_type_enum_union>:
    35c0:	53                   	push   %rbx
    35c1:	48 83 ec 20          	sub    $0x20,%rsp
    35c5:	64 48 8b 04 25 28 00 	mov    %fs:0x28,%rax
    35cc:	00 00 
    35ce:	48 89 44 24 18       	mov    %rax,0x18(%rsp)
    35d3:	31 c0                	xor    %eax,%eax
    35d5:	48 85 ff             	test   %rdi,%rdi
    35d8:	74 11                	je     35eb <sgx_ecall_type_enum_union+0x2b>
    35da:	be 10 00 00 00       	mov    $0x10,%esi
    35df:	48 89 fb             	mov    %rdi,%rbx
    35e2:	e8 b9 57 00 00       	call   8da0 <sgx_is_outside_enclave>
    35e7:	85 c0                	test   %eax,%eax
    35e9:	75 25                	jne    3610 <sgx_ecall_type_enum_union+0x50>
    35eb:	b8 02 00 00 00       	mov    $0x2,%eax
    35f0:	48 8b 4c 24 18       	mov    0x18(%rsp),%rcx
    35f5:	64 48 33 0c 25 28 00 	xor    %fs:0x28,%rcx
    35fc:	00 00 
    35fe:	75 44                	jne    3644 <sgx_ecall_type_enum_union+0x84>
    3600:	48 83 c4 20          	add    $0x20,%rsp
    3604:	5b                   	pop    %rbx
    3605:	c3                   	ret    
    3606:	66 2e 0f 1f 84 00 00 	cs nopw 0x0(%rax,%rax,1)
    360d:	00 00 00 
    3610:	48 89 da             	mov    %rbx,%rdx
    3613:	48 89 e7             	mov    %rsp,%rdi
    3616:	b9 10 00 00 00       	mov    $0x10,%ecx
    361b:	be 10 00 00 00       	mov    $0x10,%esi
    3620:	0f ae e8             	lfence 
    3623:	e8 d8 c8 00 00       	call   ff00 <memcpy_s>
    3628:	89 c2                	mov    %eax,%edx
    362a:	b8 01 00 00 00       	mov    $0x1,%eax
    362f:	85 d2                	test   %edx,%edx
    3631:	75 bd                	jne    35f0 <sgx_ecall_type_enum_union+0x30>
    3633:	48 8b 74 24 08       	mov    0x8(%rsp),%rsi
    3638:	8b 3c 24             	mov    (%rsp),%edi
    363b:	e8 30 42 00 00       	call   7870 <ecall_type_enum_union>
    3640:	31 c0                	xor    %eax,%eax
    3642:	eb ac                	jmp    35f0 <sgx_ecall_type_enum_union+0x30>
    3644:	e8 77 c3 00 00       	call   f9c0 <__stack_chk_fail>
    3649:	0f 1f 80 00 00 00 00 	nopl   0x0(%rax)

0000000000003650 <sgx_ecall_type_struct>:
    3650:	53                   	push   %rbx
    3651:	48 83 ec 20          	sub    $0x20,%rsp
    3655:	64 48 8b 04 25 28 00 	mov    %fs:0x28,%rax
    365c:	00 00 
    365e:	48 89 44 24 18       	mov    %rax,0x18(%rsp)
    3663:	31 c0                	xor    %eax,%eax
    3665:	48 85 ff             	test   %rdi,%rdi
    3668:	74 11                	je     367b <sgx_ecall_type_struct+0x2b>
    366a:	be 10 00 00 00       	mov    $0x10,%esi
    366f:	48 89 fb             	mov    %rdi,%rbx
    3672:	e8 29 57 00 00       	call   8da0 <sgx_is_outside_enclave>
    3677:	85 c0                	test   %eax,%eax
    3679:	75 25                	jne    36a0 <sgx_ecall_type_struct+0x50>
    367b:	b8 02 00 00 00       	mov    $0x2,%eax
    3680:	48 8b 4c 24 18       	mov    0x18(%rsp),%rcx
    3685:	64 48 33 0c 25 28 00 	xor    %fs:0x28,%rcx
    368c:	00 00 
    368e:	75 44                	jne    36d4 <sgx_ecall_type_struct+0x84>
    3690:	48 83 c4 20          	add    $0x20,%rsp
    3694:	5b                   	pop    %rbx
    3695:	c3                   	ret    
    3696:	66 2e 0f 1f 84 00 00 	cs nopw 0x0(%rax,%rax,1)
    369d:	00 00 00 
    36a0:	48 89 da             	mov    %rbx,%rdx
    36a3:	48 89 e7             	mov    %rsp,%rdi
    36a6:	b9 10 00 00 00       	mov    $0x10,%ecx
    36ab:	be 10 00 00 00       	mov    $0x10,%esi
    36b0:	0f ae e8             	lfence 
    36b3:	e8 48 c8 00 00       	call   ff00 <memcpy_s>
    36b8:	89 c2                	mov    %eax,%edx
    36ba:	b8 01 00 00 00       	mov    $0x1,%eax
    36bf:	85 d2                	test   %edx,%edx
    36c1:	75 bd                	jne    3680 <sgx_ecall_type_struct+0x30>
    36c3:	8b 3c 24             	mov    (%rsp),%edi
    36c6:	48 8b 74 24 08       	mov    0x8(%rsp),%rsi
    36cb:	e8 40 41 00 00       	call   7810 <ecall_type_struct>
    36d0:	31 c0                	xor    %eax,%eax
    36d2:	eb ac                	jmp    3680 <sgx_ecall_type_struct+0x30>
    36d4:	e8 e7 c2 00 00       	call   f9c0 <__stack_chk_fail>
    36d9:	0f 1f 80 00 00 00 00 	nopl   0x0(%rax)

00000000000036e0 <sgx_ecall_type_wchar_t>:
    36e0:	53                   	push   %rbx
    36e1:	48 83 ec 10          	sub    $0x10,%rsp
    36e5:	64 48 8b 04 25 28 00 	mov    %fs:0x28,%rax
    36ec:	00 00 
    36ee:	48 89 44 24 08       	mov    %rax,0x8(%rsp)
    36f3:	31 c0                	xor    %eax,%eax
    36f5:	48 85 ff             	test   %rdi,%rdi
    36f8:	74 11                	je     370b <sgx_ecall_type_wchar_t+0x2b>
    36fa:	be 04 00 00 00       	mov    $0x4,%esi
    36ff:	48 89 fb             	mov    %rdi,%rbx
    3702:	e8 99 56 00 00       	call   8da0 <sgx_is_outside_enclave>
    3707:	85 c0                	test   %eax,%eax
    3709:	75 25                	jne    3730 <sgx_ecall_type_wchar_t+0x50>
    370b:	b8 02 00 00 00       	mov    $0x2,%eax
    3710:	48 8b 4c 24 08       	mov    0x8(%rsp),%rcx
    3715:	64 48 33 0c 25 28 00 	xor    %fs:0x28,%rcx
    371c:	00 00 
    371e:	75 3f                	jne    375f <sgx_ecall_type_wchar_t+0x7f>
    3720:	48 83 c4 10          	add    $0x10,%rsp
    3724:	5b                   	pop    %rbx
    3725:	c3                   	ret    
    3726:	66 2e 0f 1f 84 00 00 	cs nopw 0x0(%rax,%rax,1)
    372d:	00 00 00 
    3730:	48 89 da             	mov    %rbx,%rdx
    3733:	48 89 e7             	mov    %rsp,%rdi
    3736:	b9 04 00 00 00       	mov    $0x4,%ecx
    373b:	be 04 00 00 00       	mov    $0x4,%esi
    3740:	0f ae e8             	lfence 
    3743:	e8 b8 c7 00 00       	call   ff00 <memcpy_s>
    3748:	89 c2                	mov    %eax,%edx
    374a:	b8 01 00 00 00       	mov    $0x1,%eax
    374f:	85 d2                	test   %edx,%edx
    3751:	75 bd                	jne    3710 <sgx_ecall_type_wchar_t+0x30>
    3753:	8b 3c 24             	mov    (%rsp),%edi
    3756:	e8 75 40 00 00       	call   77d0 <ecall_type_wchar_t>
    375b:	31 c0                	xor    %eax,%eax
    375d:	eb b1                	jmp    3710 <sgx_ecall_type_wchar_t+0x30>
    375f:	e8 5c c2 00 00       	call   f9c0 <__stack_chk_fail>
    3764:	66 2e 0f 1f 84 00 00 	cs nopw 0x0(%rax,%rax,1)
    376b:	00 00 00 
    376e:	66 90                	xchg   %ax,%ax

0000000000003770 <sgx_ecall_type_size_t>:
    3770:	53                   	push   %rbx
    3771:	48 83 ec 10          	sub    $0x10,%rsp
    3775:	64 48 8b 04 25 28 00 	mov    %fs:0x28,%rax
    377c:	00 00 
    377e:	48 89 44 24 08       	mov    %rax,0x8(%rsp)
    3783:	31 c0                	xor    %eax,%eax
    3785:	48 85 ff             	test   %rdi,%rdi
    3788:	74 11                	je     379b <sgx_ecall_type_size_t+0x2b>
    378a:	be 08 00 00 00       	mov    $0x8,%esi
    378f:	48 89 fb             	mov    %rdi,%rbx
    3792:	e8 09 56 00 00       	call   8da0 <sgx_is_outside_enclave>
    3797:	85 c0                	test   %eax,%eax
    3799:	75 25                	jne    37c0 <sgx_ecall_type_size_t+0x50>
    379b:	b8 02 00 00 00       	mov    $0x2,%eax
    37a0:	48 8b 4c 24 08       	mov    0x8(%rsp),%rcx
    37a5:	64 48 33 0c 25 28 00 	xor    %fs:0x28,%rcx
    37ac:	00 00 
    37ae:	75 40                	jne    37f0 <sgx_ecall_type_size_t+0x80>
    37b0:	48 83 c4 10          	add    $0x10,%rsp
    37b4:	5b                   	pop    %rbx
    37b5:	c3                   	ret    
    37b6:	66 2e 0f 1f 84 00 00 	cs nopw 0x0(%rax,%rax,1)
    37bd:	00 00 00 
    37c0:	48 89 da             	mov    %rbx,%rdx
    37c3:	48 89 e7             	mov    %rsp,%rdi
    37c6:	b9 08 00 00 00       	mov    $0x8,%ecx
    37cb:	be 08 00 00 00       	mov    $0x8,%esi
    37d0:	0f ae e8             	lfence 
    37d3:	e8 28 c7 00 00       	call   ff00 <memcpy_s>
    37d8:	89 c2                	mov    %eax,%edx
    37da:	b8 01 00 00 00       	mov    $0x1,%eax
    37df:	85 d2                	test   %edx,%edx
    37e1:	75 bd                	jne    37a0 <sgx_ecall_type_size_t+0x30>
    37e3:	48 8b 3c 24          	mov    (%rsp),%rdi
    37e7:	e8 a4 3f 00 00       	call   7790 <ecall_type_size_t>
    37ec:	31 c0                	xor    %eax,%eax
    37ee:	eb b0                	jmp    37a0 <sgx_ecall_type_size_t+0x30>
    37f0:	e8 cb c1 00 00       	call   f9c0 <__stack_chk_fail>
    37f5:	66 2e 0f 1f 84 00 00 	cs nopw 0x0(%rax,%rax,1)
    37fc:	00 00 00 
    37ff:	90                   	nop

0000000000003800 <sgx_ecall_type_double>:
    3800:	53                   	push   %rbx
    3801:	48 83 ec 10          	sub    $0x10,%rsp
    3805:	64 48 8b 04 25 28 00 	mov    %fs:0x28,%rax
    380c:	00 00 
    380e:	48 89 44 24 08       	mov    %rax,0x8(%rsp)
    3813:	31 c0                	xor    %eax,%eax
    3815:	48 85 ff             	test   %rdi,%rdi
    3818:	74 11                	je     382b <sgx_ecall_type_double+0x2b>
    381a:	be 08 00 00 00       	mov    $0x8,%esi
    381f:	48 89 fb             	mov    %rdi,%rbx
    3822:	e8 79 55 00 00       	call   8da0 <sgx_is_outside_enclave>
    3827:	85 c0                	test   %eax,%eax
    3829:	75 25                	jne    3850 <sgx_ecall_type_double+0x50>
    382b:	b8 02 00 00 00       	mov    $0x2,%eax
    3830:	48 8b 4c 24 08       	mov    0x8(%rsp),%rcx
    3835:	64 48 33 0c 25 28 00 	xor    %fs:0x28,%rcx
    383c:	00 00 
    383e:	75 41                	jne    3881 <sgx_ecall_type_double+0x81>
    3840:	48 83 c4 10          	add    $0x10,%rsp
    3844:	5b                   	pop    %rbx
    3845:	c3                   	ret    
    3846:	66 2e 0f 1f 84 00 00 	cs nopw 0x0(%rax,%rax,1)
    384d:	00 00 00 
    3850:	48 89 da             	mov    %rbx,%rdx
    3853:	48 89 e7             	mov    %rsp,%rdi
    3856:	b9 08 00 00 00       	mov    $0x8,%ecx
    385b:	be 08 00 00 00       	mov    $0x8,%esi
    3860:	0f ae e8             	lfence 
    3863:	e8 98 c6 00 00       	call   ff00 <memcpy_s>
    3868:	89 c2                	mov    %eax,%edx
    386a:	b8 01 00 00 00       	mov    $0x1,%eax
    386f:	85 d2                	test   %edx,%edx
    3871:	75 bd                	jne    3830 <sgx_ecall_type_double+0x30>
    3873:	f2 0f 10 04 24       	movsd  (%rsp),%xmm0
    3878:	e8 b3 3e 00 00       	call   7730 <ecall_type_double>
    387d:	31 c0                	xor    %eax,%eax
    387f:	eb af                	jmp    3830 <sgx_ecall_type_double+0x30>
    3881:	e8 3a c1 00 00       	call   f9c0 <__stack_chk_fail>
    3886:	66 2e 0f 1f 84 00 00 	cs nopw 0x0(%rax,%rax,1)
    388d:	00 00 00 

0000000000003890 <sgx_ecall_type_float>:
    3890:	53                   	push   %rbx
    3891:	48 83 ec 10          	sub    $0x10,%rsp
    3895:	64 48 8b 04 25 28 00 	mov    %fs:0x28,%rax
    389c:	00 00 
    389e:	48 89 44 24 08       	mov    %rax,0x8(%rsp)
    38a3:	31 c0                	xor    %eax,%eax
    38a5:	48 85 ff             	test   %rdi,%rdi
    38a8:	74 11                	je     38bb <sgx_ecall_type_float+0x2b>
    38aa:	be 04 00 00 00       	mov    $0x4,%esi
    38af:	48 89 fb             	mov    %rdi,%rbx
    38b2:	e8 e9 54 00 00       	call   8da0 <sgx_is_outside_enclave>
    38b7:	85 c0                	test   %eax,%eax
    38b9:	75 25                	jne    38e0 <sgx_ecall_type_float+0x50>
    38bb:	b8 02 00 00 00       	mov    $0x2,%eax
    38c0:	48 8b 4c 24 08       	mov    0x8(%rsp),%rcx
    38c5:	64 48 33 0c 25 28 00 	xor    %fs:0x28,%rcx
    38cc:	00 00 
    38ce:	75 41                	jne    3911 <sgx_ecall_type_float+0x81>
    38d0:	48 83 c4 10          	add    $0x10,%rsp
    38d4:	5b                   	pop    %rbx
    38d5:	c3                   	ret    
    38d6:	66 2e 0f 1f 84 00 00 	cs nopw 0x0(%rax,%rax,1)
    38dd:	00 00 00 
    38e0:	48 89 da             	mov    %rbx,%rdx
    38e3:	48 89 e7             	mov    %rsp,%rdi
    38e6:	b9 04 00 00 00       	mov    $0x4,%ecx
    38eb:	be 04 00 00 00       	mov    $0x4,%esi
    38f0:	0f ae e8             	lfence 
    38f3:	e8 08 c6 00 00       	call   ff00 <memcpy_s>
    38f8:	89 c2                	mov    %eax,%edx
    38fa:	b8 01 00 00 00       	mov    $0x1,%eax
    38ff:	85 d2                	test   %edx,%edx
    3901:	75 bd                	jne    38c0 <sgx_ecall_type_float+0x30>
    3903:	f3 0f 10 04 24       	movss  (%rsp),%xmm0
    3908:	e8 c3 3d 00 00       	call   76d0 <ecall_type_float>
    390d:	31 c0                	xor    %eax,%eax
    390f:	eb af                	jmp    38c0 <sgx_ecall_type_float+0x30>
    3911:	e8 aa c0 00 00       	call   f9c0 <__stack_chk_fail>
    3916:	66 2e 0f 1f 84 00 00 	cs nopw 0x0(%rax,%rax,1)
    391d:	00 00 00 

0000000000003920 <sgx_ecall_type_int>:
    3920:	53                   	push   %rbx
    3921:	48 83 ec 10          	sub    $0x10,%rsp
    3925:	64 48 8b 04 25 28 00 	mov    %fs:0x28,%rax
    392c:	00 00 
    392e:	48 89 44 24 08       	mov    %rax,0x8(%rsp)
    3933:	31 c0                	xor    %eax,%eax
    3935:	48 85 ff             	test   %rdi,%rdi
    3938:	74 11                	je     394b <sgx_ecall_type_int+0x2b>
    393a:	be 04 00 00 00       	mov    $0x4,%esi
    393f:	48 89 fb             	mov    %rdi,%rbx
    3942:	e8 59 54 00 00       	call   8da0 <sgx_is_outside_enclave>
    3947:	85 c0                	test   %eax,%eax
    3949:	75 25                	jne    3970 <sgx_ecall_type_int+0x50>
    394b:	b8 02 00 00 00       	mov    $0x2,%eax
    3950:	48 8b 4c 24 08       	mov    0x8(%rsp),%rcx
    3955:	64 48 33 0c 25 28 00 	xor    %fs:0x28,%rcx
    395c:	00 00 
    395e:	75 3f                	jne    399f <sgx_ecall_type_int+0x7f>
    3960:	48 83 c4 10          	add    $0x10,%rsp
    3964:	5b                   	pop    %rbx
    3965:	c3                   	ret    
    3966:	66 2e 0f 1f 84 00 00 	cs nopw 0x0(%rax,%rax,1)
    396d:	00 00 00 
    3970:	48 89 da             	mov    %rbx,%rdx
    3973:	48 89 e7             	mov    %rsp,%rdi
    3976:	b9 04 00 00 00       	mov    $0x4,%ecx
    397b:	be 04 00 00 00       	mov    $0x4,%esi
    3980:	0f ae e8             	lfence 
    3983:	e8 78 c5 00 00       	call   ff00 <memcpy_s>
    3988:	89 c2                	mov    %eax,%edx
    398a:	b8 01 00 00 00       	mov    $0x1,%eax
    398f:	85 d2                	test   %edx,%edx
    3991:	75 bd                	jne    3950 <sgx_ecall_type_int+0x30>
    3993:	8b 3c 24             	mov    (%rsp),%edi
    3996:	e8 f5 3c 00 00       	call   7690 <ecall_type_int>
    399b:	31 c0                	xor    %eax,%eax
    399d:	eb b1                	jmp    3950 <sgx_ecall_type_int+0x30>
    399f:	e8 1c c0 00 00       	call   f9c0 <__stack_chk_fail>
    39a4:	66 2e 0f 1f 84 00 00 	cs nopw 0x0(%rax,%rax,1)
    39ab:	00 00 00 
    39ae:	66 90                	xchg   %ax,%ax

00000000000039b0 <sgx_ecall_type_char>:
    39b0:	53                   	push   %rbx
    39b1:	48 83 ec 10          	sub    $0x10,%rsp
    39b5:	64 48 8b 04 25 28 00 	mov    %fs:0x28,%rax
    39bc:	00 00 
    39be:	48 89 44 24 08       	mov    %rax,0x8(%rsp)
    39c3:	31 c0                	xor    %eax,%eax
    39c5:	48 85 ff             	test   %rdi,%rdi
    39c8:	74 11                	je     39db <sgx_ecall_type_char+0x2b>
    39ca:	be 01 00 00 00       	mov    $0x1,%esi
    39cf:	48 89 fb             	mov    %rdi,%rbx
    39d2:	e8 c9 53 00 00       	call   8da0 <sgx_is_outside_enclave>
    39d7:	85 c0                	test   %eax,%eax
    39d9:	75 25                	jne    3a00 <sgx_ecall_type_char+0x50>
    39db:	b8 02 00 00 00       	mov    $0x2,%eax
    39e0:	48 8b 4c 24 08       	mov    0x8(%rsp),%rcx
    39e5:	64 48 33 0c 25 28 00 	xor    %fs:0x28,%rcx
    39ec:	00 00 
    39ee:	75 43                	jne    3a33 <sgx_ecall_type_char+0x83>
    39f0:	48 83 c4 10          	add    $0x10,%rsp
    39f4:	5b                   	pop    %rbx
    39f5:	c3                   	ret    
    39f6:	66 2e 0f 1f 84 00 00 	cs nopw 0x0(%rax,%rax,1)
    39fd:	00 00 00 
    3a00:	48 8d 7c 24 07       	lea    0x7(%rsp),%rdi
    3a05:	48 89 da             	mov    %rbx,%rdx
    3a08:	b9 01 00 00 00       	mov    $0x1,%ecx
    3a0d:	be 01 00 00 00       	mov    $0x1,%esi
    3a12:	0f ae e8             	lfence 
    3a15:	e8 e6 c4 00 00       	call   ff00 <memcpy_s>
    3a1a:	89 c2                	mov    %eax,%edx
    3a1c:	b8 01 00 00 00       	mov    $0x1,%eax
    3a21:	85 d2                	test   %edx,%edx
    3a23:	75 bb                	jne    39e0 <sgx_ecall_type_char+0x30>
    3a25:	0f be 7c 24 07       	movsbl 0x7(%rsp),%edi
    3a2a:	e8 31 3c 00 00       	call   7660 <ecall_type_char>
    3a2f:	31 c0                	xor    %eax,%eax
    3a31:	eb ad                	jmp    39e0 <sgx_ecall_type_char+0x30>
    3a33:	e8 88 bf 00 00       	call   f9c0 <__stack_chk_fail>
    3a38:	0f 1f 84 00 00 00 00 	nopl   0x0(%rax,%rax,1)
    3a3f:	00 

0000000000003a40 <sgx_process_input>:
    3a40:	41 55                	push   %r13
    3a42:	41 54                	push   %r12
    3a44:	55                   	push   %rbp
    3a45:	53                   	push   %rbx
    3a46:	48 83 ec 28          	sub    $0x28,%rsp
    3a4a:	64 48 8b 04 25 28 00 	mov    %fs:0x28,%rax
    3a51:	00 00 
    3a53:	48 89 44 24 18       	mov    %rax,0x18(%rsp)
    3a58:	31 c0                	xor    %eax,%eax
    3a5a:	48 85 ff             	test   %rdi,%rdi
    3a5d:	74 11                	je     3a70 <sgx_process_input+0x30>
    3a5f:	be 10 00 00 00       	mov    $0x10,%esi
    3a64:	48 89 fb             	mov    %rdi,%rbx
    3a67:	e8 34 53 00 00       	call   8da0 <sgx_is_outside_enclave>
    3a6c:	85 c0                	test   %eax,%eax
    3a6e:	75 28                	jne    3a98 <sgx_process_input+0x58>
    3a70:	b8 02 00 00 00       	mov    $0x2,%eax
    3a75:	48 8b 4c 24 18       	mov    0x18(%rsp),%rcx
    3a7a:	64 48 33 0c 25 28 00 	xor    %fs:0x28,%rcx
    3a81:	00 00 
    3a83:	0f 85 db 00 00 00    	jne    3b64 <sgx_process_input+0x124>
    3a89:	48 83 c4 28          	add    $0x28,%rsp
    3a8d:	5b                   	pop    %rbx
    3a8e:	5d                   	pop    %rbp
    3a8f:	41 5c                	pop    %r12
    3a91:	41 5d                	pop    %r13
    3a93:	c3                   	ret    
    3a94:	0f 1f 40 00          	nopl   0x0(%rax)
    3a98:	48 89 da             	mov    %rbx,%rdx
    3a9b:	48 89 e7             	mov    %rsp,%rdi
    3a9e:	b9 10 00 00 00       	mov    $0x10,%ecx
    3aa3:	be 10 00 00 00       	mov    $0x10,%esi
    3aa8:	0f ae e8             	lfence 
    3aab:	e8 50 c4 00 00       	call   ff00 <memcpy_s>
    3ab0:	89 c2                	mov    %eax,%edx
    3ab2:	b8 01 00 00 00       	mov    $0x1,%eax
    3ab7:	85 d2                	test   %edx,%edx
    3ab9:	75 ba                	jne    3a75 <sgx_process_input+0x35>
    3abb:	4c 8b 24 24          	mov    (%rsp),%r12
    3abf:	48 8b 6c 24 08       	mov    0x8(%rsp),%rbp
    3ac4:	4d 85 e4             	test   %r12,%r12
    3ac7:	0f 84 83 00 00 00    	je     3b50 <sgx_process_input+0x110>
    3acd:	48 89 ee             	mov    %rbp,%rsi
    3ad0:	4c 89 e7             	mov    %r12,%rdi
    3ad3:	e8 c8 52 00 00       	call   8da0 <sgx_is_outside_enclave>
    3ad8:	89 c2                	mov    %eax,%edx
    3ada:	b8 02 00 00 00       	mov    $0x2,%eax
    3adf:	85 d2                	test   %edx,%edx
    3ae1:	74 92                	je     3a75 <sgx_process_input+0x35>
    3ae3:	48 85 ed             	test   %rbp,%rbp
    3ae6:	0f ae e8             	lfence 
    3ae9:	74 68                	je     3b53 <sgx_process_input+0x113>
    3aeb:	48 89 ef             	mov    %rbp,%rdi
    3aee:	e8 7d 8a 00 00       	call   c570 <dlmalloc>
    3af3:	49 89 c5             	mov    %rax,%r13
    3af6:	b8 03 00 00 00       	mov    $0x3,%eax
    3afb:	4d 85 ed             	test   %r13,%r13
    3afe:	0f 84 71 ff ff ff    	je     3a75 <sgx_process_input+0x35>
    3b04:	48 89 e9             	mov    %rbp,%rcx
    3b07:	4c 89 e2             	mov    %r12,%rdx
    3b0a:	48 89 ee             	mov    %rbp,%rsi
    3b0d:	4c 89 ef             	mov    %r13,%rdi
    3b10:	bb 01 00 00 00       	mov    $0x1,%ebx
    3b15:	e8 e6 c3 00 00       	call   ff00 <memcpy_s>
    3b1a:	85 c0                	test   %eax,%eax
    3b1c:	75 23                	jne    3b41 <sgx_process_input+0x101>
    3b1e:	48 89 ee             	mov    %rbp,%rsi
    3b21:	4c 89 ef             	mov    %r13,%rdi
    3b24:	31 db                	xor    %ebx,%ebx
    3b26:	e8 c5 36 00 00       	call   71f0 <process_input>
    3b2b:	48 89 e9             	mov    %rbp,%rcx
    3b2e:	4c 89 ea             	mov    %r13,%rdx
    3b31:	48 89 ee             	mov    %rbp,%rsi
    3b34:	4c 89 e7             	mov    %r12,%rdi
    3b37:	e8 44 c4 00 00       	call   ff80 <memcpy_verw_s>
    3b3c:	85 c0                	test   %eax,%eax
    3b3e:	0f 95 c3             	setne  %bl
    3b41:	4c 89 ef             	mov    %r13,%rdi
    3b44:	e8 97 a4 00 00       	call   dfe0 <dlfree>
    3b49:	89 d8                	mov    %ebx,%eax
    3b4b:	e9 25 ff ff ff       	jmp    3a75 <sgx_process_input+0x35>
    3b50:	0f ae e8             	lfence 
    3b53:	48 89 ee             	mov    %rbp,%rsi
    3b56:	31 ff                	xor    %edi,%edi
    3b58:	e8 93 36 00 00       	call   71f0 <process_input>
    3b5d:	31 c0                	xor    %eax,%eax
    3b5f:	e9 11 ff ff ff       	jmp    3a75 <sgx_process_input+0x35>
    3b64:	e8 57 be 00 00       	call   f9c0 <__stack_chk_fail>
    3b69:	0f 1f 80 00 00 00 00 	nopl   0x0(%rax)

0000000000003b70 <ocall_print_string>:
    3b70:	41 54                	push   %r12
    3b72:	55                   	push   %rbp
    3b73:	53                   	push   %rbx
    3b74:	48 83 ec 10          	sub    $0x10,%rsp
    3b78:	64 48 8b 04 25 28 00 	mov    %fs:0x28,%rax
    3b7f:	00 00 
    3b81:	48 89 44 24 08       	mov    %rax,0x8(%rsp)
    3b86:	31 c0                	xor    %eax,%eax
    3b88:	48 85 ff             	test   %rdi,%rdi
    3b8b:	0f 84 a7 00 00 00    	je     3c38 <ocall_print_string+0xc8>
    3b91:	48 89 fb             	mov    %rdi,%rbx
    3b94:	e8 e7 bc 00 00       	call   f880 <strlen>
    3b99:	4c 8d 60 01          	lea    0x1(%rax),%r12
    3b9d:	48 89 df             	mov    %rbx,%rdi
    3ba0:	48 89 c5             	mov    %rax,%rbp
    3ba3:	48 c7 04 24 00 00 00 	movq   $0x0,(%rsp)
    3baa:	00 
    3bab:	4c 89 e6             	mov    %r12,%rsi
    3bae:	e8 8d 51 00 00       	call   8d40 <sgx_is_within_enclave>
    3bb3:	85 c0                	test   %eax,%eax
    3bb5:	ba 02 00 00 00       	mov    $0x2,%edx
    3bba:	75 24                	jne    3be0 <ocall_print_string+0x70>
    3bbc:	48 8b 4c 24 08       	mov    0x8(%rsp),%rcx
    3bc1:	64 48 33 0c 25 28 00 	xor    %fs:0x28,%rcx
    3bc8:	00 00 
    3bca:	89 d0                	mov    %edx,%eax
    3bcc:	0f 85 c6 00 00 00    	jne    3c98 <ocall_print_string+0x128>
    3bd2:	48 83 c4 10          	add    $0x10,%rsp
    3bd6:	5b                   	pop    %rbx
    3bd7:	5d                   	pop    %rbp
    3bd8:	41 5c                	pop    %r12
    3bda:	c3                   	ret    
    3bdb:	0f 1f 44 00 00       	nopl   0x0(%rax,%rax,1)
    3be0:	48 8d 7d 09          	lea    0x9(%rbp),%rdi
    3be4:	49 39 fc             	cmp    %rdi,%r12
    3be7:	77 d3                	ja     3bbc <ocall_print_string+0x4c>
    3be9:	e8 02 52 00 00       	call   8df0 <sgx_ocalloc>
    3bee:	48 85 c0             	test   %rax,%rax
    3bf1:	48 89 c5             	mov    %rax,%rbp
    3bf4:	74 5c                	je     3c52 <ocall_print_string+0xe2>
    3bf6:	48 8d 45 08          	lea    0x8(%rbp),%rax
    3bfa:	48 89 e2             	mov    %rsp,%rdx
    3bfd:	b9 08 00 00 00       	mov    $0x8,%ecx
    3c02:	be 08 00 00 00       	mov    $0x8,%esi
    3c07:	48 89 ef             	mov    %rbp,%rdi
    3c0a:	48 89 04 24          	mov    %rax,(%rsp)
    3c0e:	e8 6d c3 00 00       	call   ff80 <memcpy_verw_s>
    3c13:	85 c0                	test   %eax,%eax
    3c15:	75 43                	jne    3c5a <ocall_print_string+0xea>
    3c17:	48 8b 3c 24          	mov    (%rsp),%rdi
    3c1b:	4c 89 e1             	mov    %r12,%rcx
    3c1e:	48 89 da             	mov    %rbx,%rdx
    3c21:	4c 89 e6             	mov    %r12,%rsi
    3c24:	e8 57 c3 00 00       	call   ff80 <memcpy_verw_s>
    3c29:	85 c0                	test   %eax,%eax
    3c2b:	75 2d                	jne    3c5a <ocall_print_string+0xea>
    3c2d:	4c 01 24 24          	add    %r12,(%rsp)
    3c31:	eb 4d                	jmp    3c80 <ocall_print_string+0x110>
    3c33:	0f 1f 44 00 00       	nopl   0x0(%rax,%rax,1)
    3c38:	bf 08 00 00 00       	mov    $0x8,%edi
    3c3d:	48 c7 04 24 00 00 00 	movq   $0x0,(%rsp)
    3c44:	00 
    3c45:	e8 a6 51 00 00       	call   8df0 <sgx_ocalloc>
    3c4a:	48 85 c0             	test   %rax,%rax
    3c4d:	48 89 c5             	mov    %rax,%rbp
    3c50:	75 1e                	jne    3c70 <ocall_print_string+0x100>
    3c52:	48 c7 04 24 00 00 00 	movq   $0x0,(%rsp)
    3c59:	00 
    3c5a:	e8 81 52 00 00       	call   8ee0 <sgx_ocfree>
    3c5f:	ba 01 00 00 00       	mov    $0x1,%edx
    3c64:	e9 53 ff ff ff       	jmp    3bbc <ocall_print_string+0x4c>
    3c69:	0f 1f 80 00 00 00 00 	nopl   0x0(%rax)
    3c70:	48 8d 40 08          	lea    0x8(%rax),%rax
    3c74:	48 89 04 24          	mov    %rax,(%rsp)
    3c78:	48 c7 45 00 00 00 00 	movq   $0x0,0x0(%rbp)
    3c7f:	00 
    3c80:	48 89 ee             	mov    %rbp,%rsi
    3c83:	31 ff                	xor    %edi,%edi
    3c85:	e8 d6 69 00 00       	call   a660 <sgx_ocall>
    3c8a:	89 c3                	mov    %eax,%ebx
    3c8c:	e8 4f 52 00 00       	call   8ee0 <sgx_ocfree>
    3c91:	89 da                	mov    %ebx,%edx
    3c93:	e9 24 ff ff ff       	jmp    3bbc <ocall_print_string+0x4c>
    3c98:	e8 23 bd 00 00       	call   f9c0 <__stack_chk_fail>
    3c9d:	0f 1f 00             	nopl   (%rax)

0000000000003ca0 <init_time>:
    3ca0:	31 f6                	xor    %esi,%esi
    3ca2:	bf 01 00 00 00       	mov    $0x1,%edi
    3ca7:	e9 b4 69 00 00       	jmp    a660 <sgx_ocall>
    3cac:	0f 1f 40 00          	nopl   0x0(%rax)

0000000000003cb0 <ocall_pointer_user_check>:
    3cb0:	53                   	push   %rbx
    3cb1:	48 83 ec 10          	sub    $0x10,%rsp
    3cb5:	48 89 7c 24 08       	mov    %rdi,0x8(%rsp)
    3cba:	bf 08 00 00 00       	mov    $0x8,%edi
    3cbf:	e8 2c 51 00 00       	call   8df0 <sgx_ocalloc>
    3cc4:	48 85 c0             	test   %rax,%rax
    3cc7:	74 3f                	je     3d08 <ocall_pointer_user_check+0x58>
    3cc9:	48 8d 54 24 08       	lea    0x8(%rsp),%rdx
    3cce:	b9 08 00 00 00       	mov    $0x8,%ecx
    3cd3:	be 08 00 00 00       	mov    $0x8,%esi
    3cd8:	48 89 c7             	mov    %rax,%rdi
    3cdb:	48 89 c3             	mov    %rax,%rbx
    3cde:	e8 9d c2 00 00       	call   ff80 <memcpy_verw_s>
    3ce3:	85 c0                	test   %eax,%eax
    3ce5:	75 21                	jne    3d08 <ocall_pointer_user_check+0x58>
    3ce7:	48 89 de             	mov    %rbx,%rsi
    3cea:	bf 03 00 00 00       	mov    $0x3,%edi
    3cef:	e8 6c 69 00 00       	call   a660 <sgx_ocall>
    3cf4:	89 c3                	mov    %eax,%ebx
    3cf6:	e8 e5 51 00 00       	call   8ee0 <sgx_ocfree>
    3cfb:	48 83 c4 10          	add    $0x10,%rsp
    3cff:	89 d8                	mov    %ebx,%eax
    3d01:	5b                   	pop    %rbx
    3d02:	c3                   	ret    
    3d03:	0f 1f 44 00 00       	nopl   0x0(%rax,%rax,1)
    3d08:	e8 d3 51 00 00       	call   8ee0 <sgx_ocfree>
    3d0d:	48 83 c4 10          	add    $0x10,%rsp
    3d11:	b8 01 00 00 00       	mov    $0x1,%eax
    3d16:	5b                   	pop    %rbx
    3d17:	c3                   	ret    
    3d18:	0f 1f 84 00 00 00 00 	nopl   0x0(%rax,%rax,1)
    3d1f:	00 

0000000000003d20 <ocall_pointer_in>:
    3d20:	55                   	push   %rbp
    3d21:	53                   	push   %rbx
    3d22:	48 83 ec 18          	sub    $0x18,%rsp
    3d26:	64 48 8b 04 25 28 00 	mov    %fs:0x28,%rax
    3d2d:	00 00 
    3d2f:	48 89 44 24 08       	mov    %rax,0x8(%rsp)
    3d34:	31 c0                	xor    %eax,%eax
    3d36:	48 85 ff             	test   %rdi,%rdi
    3d39:	48 c7 04 24 00 00 00 	movq   $0x0,(%rsp)
    3d40:	00 
    3d41:	0f 84 a9 00 00 00    	je     3df0 <ocall_pointer_in+0xd0>
    3d47:	be 04 00 00 00       	mov    $0x4,%esi
    3d4c:	48 89 fb             	mov    %rdi,%rbx
    3d4f:	e8 ec 4f 00 00       	call   8d40 <sgx_is_within_enclave>
    3d54:	85 c0                	test   %eax,%eax
    3d56:	ba 02 00 00 00       	mov    $0x2,%edx
    3d5b:	75 23                	jne    3d80 <ocall_pointer_in+0x60>
    3d5d:	48 8b 4c 24 08       	mov    0x8(%rsp),%rcx
    3d62:	64 48 33 0c 25 28 00 	xor    %fs:0x28,%rcx
    3d69:	00 00 
    3d6b:	89 d0                	mov    %edx,%eax
    3d6d:	0f 85 bf 00 00 00    	jne    3e32 <ocall_pointer_in+0x112>
    3d73:	48 83 c4 18          	add    $0x18,%rsp
    3d77:	5b                   	pop    %rbx
    3d78:	5d                   	pop    %rbp
    3d79:	c3                   	ret    
    3d7a:	66 0f 1f 44 00 00    	nopw   0x0(%rax,%rax,1)
    3d80:	bf 0c 00 00 00       	mov    $0xc,%edi
    3d85:	e8 66 50 00 00       	call   8df0 <sgx_ocalloc>
    3d8a:	48 85 c0             	test   %rax,%rax
    3d8d:	48 89 c5             	mov    %rax,%rbp
    3d90:	74 70                	je     3e02 <ocall_pointer_in+0xe2>
    3d92:	48 8d 45 08          	lea    0x8(%rbp),%rax
    3d96:	48 89 e2             	mov    %rsp,%rdx
    3d99:	b9 08 00 00 00       	mov    $0x8,%ecx
    3d9e:	be 08 00 00 00       	mov    $0x8,%esi
    3da3:	48 89 ef             	mov    %rbp,%rdi
    3da6:	48 89 04 24          	mov    %rax,(%rsp)
    3daa:	e8 d1 c1 00 00       	call   ff80 <memcpy_verw_s>
    3daf:	85 c0                	test   %eax,%eax
    3db1:	75 57                	jne    3e0a <ocall_pointer_in+0xea>
    3db3:	48 8b 3c 24          	mov    (%rsp),%rdi
    3db7:	b9 04 00 00 00       	mov    $0x4,%ecx
    3dbc:	48 89 da             	mov    %rbx,%rdx
    3dbf:	be 04 00 00 00       	mov    $0x4,%esi
    3dc4:	e8 b7 c1 00 00       	call   ff80 <memcpy_verw_s>
    3dc9:	85 c0                	test   %eax,%eax
    3dcb:	75 3d                	jne    3e0a <ocall_pointer_in+0xea>
    3dcd:	48 83 04 24 04       	addq   $0x4,(%rsp)
    3dd2:	48 89 ee             	mov    %rbp,%rsi
    3dd5:	bf 04 00 00 00       	mov    $0x4,%edi
    3dda:	e8 81 68 00 00       	call   a660 <sgx_ocall>
    3ddf:	89 c3                	mov    %eax,%ebx
    3de1:	e8 fa 50 00 00       	call   8ee0 <sgx_ocfree>
    3de6:	89 da                	mov    %ebx,%edx
    3de8:	e9 70 ff ff ff       	jmp    3d5d <ocall_pointer_in+0x3d>
    3ded:	0f 1f 00             	nopl   (%rax)
    3df0:	bf 08 00 00 00       	mov    $0x8,%edi
    3df5:	e8 f6 4f 00 00       	call   8df0 <sgx_ocalloc>
    3dfa:	48 85 c0             	test   %rax,%rax
    3dfd:	48 89 c5             	mov    %rax,%rbp
    3e00:	75 1e                	jne    3e20 <ocall_pointer_in+0x100>
    3e02:	48 c7 04 24 00 00 00 	movq   $0x0,(%rsp)
    3e09:	00 
    3e0a:	e8 d1 50 00 00       	call   8ee0 <sgx_ocfree>
    3e0f:	ba 01 00 00 00       	mov    $0x1,%edx
    3e14:	e9 44 ff ff ff       	jmp    3d5d <ocall_pointer_in+0x3d>
    3e19:	0f 1f 80 00 00 00 00 	nopl   0x0(%rax)
    3e20:	48 8d 45 08          	lea    0x8(%rbp),%rax
    3e24:	48 89 04 24          	mov    %rax,(%rsp)
    3e28:	48 c7 45 00 00 00 00 	movq   $0x0,0x0(%rbp)
    3e2f:	00 
    3e30:	eb a0                	jmp    3dd2 <ocall_pointer_in+0xb2>
    3e32:	e8 89 bb 00 00       	call   f9c0 <__stack_chk_fail>
    3e37:	66 0f 1f 84 00 00 00 	nopw   0x0(%rax,%rax,1)
    3e3e:	00 00 

0000000000003e40 <ocall_pointer_out>:
    3e40:	41 54                	push   %r12
    3e42:	55                   	push   %rbp
    3e43:	53                   	push   %rbx
    3e44:	48 83 ec 10          	sub    $0x10,%rsp
    3e48:	64 48 8b 04 25 28 00 	mov    %fs:0x28,%rax
    3e4f:	00 00 
    3e51:	48 89 44 24 08       	mov    %rax,0x8(%rsp)
    3e56:	31 c0                	xor    %eax,%eax
    3e58:	48 85 ff             	test   %rdi,%rdi
    3e5b:	48 c7 04 24 00 00 00 	movq   $0x0,(%rsp)
    3e62:	00 
    3e63:	0f 84 c7 00 00 00    	je     3f30 <ocall_pointer_out+0xf0>
    3e69:	be 04 00 00 00       	mov    $0x4,%esi
    3e6e:	48 89 fd             	mov    %rdi,%rbp
    3e71:	e8 ca 4e 00 00       	call   8d40 <sgx_is_within_enclave>
    3e76:	85 c0                	test   %eax,%eax
    3e78:	ba 02 00 00 00       	mov    $0x2,%edx
    3e7d:	75 21                	jne    3ea0 <ocall_pointer_out+0x60>
    3e7f:	48 8b 4c 24 08       	mov    0x8(%rsp),%rcx
    3e84:	64 48 33 0c 25 28 00 	xor    %fs:0x28,%rcx
    3e8b:	00 00 
    3e8d:	89 d0                	mov    %edx,%eax
    3e8f:	0f 85 f5 00 00 00    	jne    3f8a <ocall_pointer_out+0x14a>
    3e95:	48 83 c4 10          	add    $0x10,%rsp
    3e99:	5b                   	pop    %rbx
    3e9a:	5d                   	pop    %rbp
    3e9b:	41 5c                	pop    %r12
    3e9d:	c3                   	ret    
    3e9e:	66 90                	xchg   %ax,%ax
    3ea0:	bf 0c 00 00 00       	mov    $0xc,%edi
    3ea5:	e8 46 4f 00 00       	call   8df0 <sgx_ocalloc>
    3eaa:	48 85 c0             	test   %rax,%rax
    3ead:	48 89 c3             	mov    %rax,%rbx
    3eb0:	0f 84 89 00 00 00    	je     3f3f <ocall_pointer_out+0xff>
    3eb6:	48 8d 43 08          	lea    0x8(%rbx),%rax
    3eba:	48 89 e2             	mov    %rsp,%rdx
    3ebd:	b9 08 00 00 00       	mov    $0x8,%ecx
    3ec2:	be 08 00 00 00       	mov    $0x8,%esi
    3ec7:	48 89 df             	mov    %rbx,%rdi
    3eca:	48 89 04 24          	mov    %rax,(%rsp)
    3ece:	e8 ad c0 00 00       	call   ff80 <memcpy_verw_s>
    3ed3:	85 c0                	test   %eax,%eax
    3ed5:	75 70                	jne    3f47 <ocall_pointer_out+0x107>
    3ed7:	4c 8b 24 24          	mov    (%rsp),%r12
    3edb:	31 f6                	xor    %esi,%esi
    3edd:	ba 04 00 00 00       	mov    $0x4,%edx
    3ee2:	4c 89 e7             	mov    %r12,%rdi
    3ee5:	e8 16 b8 00 00       	call   f700 <memset_verw>
    3eea:	48 89 de             	mov    %rbx,%rsi
    3eed:	bf 05 00 00 00       	mov    $0x5,%edi
    3ef2:	48 83 04 24 04       	addq   $0x4,(%rsp)
    3ef7:	e8 64 67 00 00       	call   a660 <sgx_ocall>
    3efc:	85 c0                	test   %eax,%eax
    3efe:	89 c3                	mov    %eax,%ebx
    3f00:	75 19                	jne    3f1b <ocall_pointer_out+0xdb>
    3f02:	b9 04 00 00 00       	mov    $0x4,%ecx
    3f07:	4c 89 e2             	mov    %r12,%rdx
    3f0a:	be 04 00 00 00       	mov    $0x4,%esi
    3f0f:	48 89 ef             	mov    %rbp,%rdi
    3f12:	e8 e9 bf 00 00       	call   ff00 <memcpy_s>
    3f17:	85 c0                	test   %eax,%eax
    3f19:	75 2c                	jne    3f47 <ocall_pointer_out+0x107>
    3f1b:	e8 c0 4f 00 00       	call   8ee0 <sgx_ocfree>
    3f20:	89 da                	mov    %ebx,%edx
    3f22:	e9 58 ff ff ff       	jmp    3e7f <ocall_pointer_out+0x3f>
    3f27:	66 0f 1f 84 00 00 00 	nopw   0x0(%rax,%rax,1)
    3f2e:	00 00 
    3f30:	bf 08 00 00 00       	mov    $0x8,%edi
    3f35:	e8 b6 4e 00 00       	call   8df0 <sgx_ocalloc>
    3f3a:	48 85 c0             	test   %rax,%rax
    3f3d:	75 21                	jne    3f60 <ocall_pointer_out+0x120>
    3f3f:	48 c7 04 24 00 00 00 	movq   $0x0,(%rsp)
    3f46:	00 
    3f47:	e8 94 4f 00 00       	call   8ee0 <sgx_ocfree>
    3f4c:	ba 01 00 00 00       	mov    $0x1,%edx
    3f51:	e9 29 ff ff ff       	jmp    3e7f <ocall_pointer_out+0x3f>
    3f56:	66 2e 0f 1f 84 00 00 	cs nopw 0x0(%rax,%rax,1)
    3f5d:	00 00 00 
    3f60:	48 8d 50 08          	lea    0x8(%rax),%rdx
    3f64:	48 89 c6             	mov    %rax,%rsi
    3f67:	bf 05 00 00 00       	mov    $0x5,%edi
    3f6c:	48 89 14 24          	mov    %rdx,(%rsp)
    3f70:	48 c7 00 00 00 00 00 	movq   $0x0,(%rax)
    3f77:	e8 e4 66 00 00       	call   a660 <sgx_ocall>
    3f7c:	89 c3                	mov    %eax,%ebx
    3f7e:	e8 5d 4f 00 00       	call   8ee0 <sgx_ocfree>
    3f83:	89 da                	mov    %ebx,%edx
    3f85:	e9 f5 fe ff ff       	jmp    3e7f <ocall_pointer_out+0x3f>
    3f8a:	e8 31 ba 00 00       	call   f9c0 <__stack_chk_fail>
    3f8f:	90                   	nop

0000000000003f90 <ocall_pointer_in_out>:
    3f90:	41 54                	push   %r12
    3f92:	55                   	push   %rbp
    3f93:	53                   	push   %rbx
    3f94:	48 83 ec 10          	sub    $0x10,%rsp
    3f98:	64 48 8b 04 25 28 00 	mov    %fs:0x28,%rax
    3f9f:	00 00 
    3fa1:	48 89 44 24 08       	mov    %rax,0x8(%rsp)
    3fa6:	31 c0                	xor    %eax,%eax
    3fa8:	48 85 ff             	test   %rdi,%rdi
    3fab:	48 c7 04 24 00 00 00 	movq   $0x0,(%rsp)
    3fb2:	00 
    3fb3:	0f 84 cf 00 00 00    	je     4088 <ocall_pointer_in_out+0xf8>
    3fb9:	be 04 00 00 00       	mov    $0x4,%esi
    3fbe:	48 89 fb             	mov    %rdi,%rbx
    3fc1:	e8 7a 4d 00 00       	call   8d40 <sgx_is_within_enclave>
    3fc6:	85 c0                	test   %eax,%eax
    3fc8:	ba 02 00 00 00       	mov    $0x2,%edx
    3fcd:	75 21                	jne    3ff0 <ocall_pointer_in_out+0x60>
    3fcf:	48 8b 4c 24 08       	mov    0x8(%rsp),%rcx
    3fd4:	64 48 33 0c 25 28 00 	xor    %fs:0x28,%rcx
    3fdb:	00 00 
    3fdd:	89 d0                	mov    %edx,%eax
    3fdf:	0f 85 eb 00 00 00    	jne    40d0 <ocall_pointer_in_out+0x140>
    3fe5:	48 83 c4 10          	add    $0x10,%rsp
    3fe9:	5b                   	pop    %rbx
    3fea:	5d                   	pop    %rbp
    3feb:	41 5c                	pop    %r12
    3fed:	c3                   	ret    
    3fee:	66 90                	xchg   %ax,%ax
    3ff0:	bf 0c 00 00 00       	mov    $0xc,%edi
    3ff5:	e8 f6 4d 00 00       	call   8df0 <sgx_ocalloc>
    3ffa:	48 85 c0             	test   %rax,%rax
    3ffd:	48 89 c5             	mov    %rax,%rbp
    4000:	0f 84 91 00 00 00    	je     4097 <ocall_pointer_in_out+0x107>
    4006:	48 8d 45 08          	lea    0x8(%rbp),%rax
    400a:	48 89 e2             	mov    %rsp,%rdx
    400d:	b9 08 00 00 00       	mov    $0x8,%ecx
    4012:	be 08 00 00 00       	mov    $0x8,%esi
    4017:	48 89 ef             	mov    %rbp,%rdi
    401a:	48 89 04 24          	mov    %rax,(%rsp)
    401e:	e8 5d bf 00 00       	call   ff80 <memcpy_verw_s>
    4023:	85 c0                	test   %eax,%eax
    4025:	75 78                	jne    409f <ocall_pointer_in_out+0x10f>
    4027:	4c 8b 24 24          	mov    (%rsp),%r12
    402b:	b9 04 00 00 00       	mov    $0x4,%ecx
    4030:	48 89 da             	mov    %rbx,%rdx
    4033:	be 04 00 00 00       	mov    $0x4,%esi
    4038:	4c 89 e7             	mov    %r12,%rdi
    403b:	e8 40 bf 00 00       	call   ff80 <memcpy_verw_s>
    4040:	85 c0                	test   %eax,%eax
    4042:	75 5b                	jne    409f <ocall_pointer_in_out+0x10f>
    4044:	48 89 ee             	mov    %rbp,%rsi
    4047:	bf 06 00 00 00       	mov    $0x6,%edi
    404c:	48 83 04 24 04       	addq   $0x4,(%rsp)
    4051:	e8 0a 66 00 00       	call   a660 <sgx_ocall>
    4056:	85 c0                	test   %eax,%eax
    4058:	89 c5                	mov    %eax,%ebp
    405a:	75 19                	jne    4075 <ocall_pointer_in_out+0xe5>
    405c:	b9 04 00 00 00       	mov    $0x4,%ecx
    4061:	4c 89 e2             	mov    %r12,%rdx
    4064:	be 04 00 00 00       	mov    $0x4,%esi
    4069:	48 89 df             	mov    %rbx,%rdi
    406c:	e8 8f be 00 00       	call   ff00 <memcpy_s>
    4071:	85 c0                	test   %eax,%eax
    4073:	75 2a                	jne    409f <ocall_pointer_in_out+0x10f>
    4075:	e8 66 4e 00 00       	call   8ee0 <sgx_ocfree>
    407a:	89 ea                	mov    %ebp,%edx
    407c:	e9 4e ff ff ff       	jmp    3fcf <ocall_pointer_in_out+0x3f>
    4081:	0f 1f 80 00 00 00 00 	nopl   0x0(%rax)
    4088:	bf 08 00 00 00       	mov    $0x8,%edi
    408d:	e8 5e 4d 00 00       	call   8df0 <sgx_ocalloc>
    4092:	48 85 c0             	test   %rax,%rax
    4095:	75 19                	jne    40b0 <ocall_pointer_in_out+0x120>
    4097:	48 c7 04 24 00 00 00 	movq   $0x0,(%rsp)
    409e:	00 
    409f:	e8 3c 4e 00 00       	call   8ee0 <sgx_ocfree>
    40a4:	ba 01 00 00 00       	mov    $0x1,%edx
    40a9:	e9 21 ff ff ff       	jmp    3fcf <ocall_pointer_in_out+0x3f>
    40ae:	66 90                	xchg   %ax,%ax
    40b0:	48 8d 50 08          	lea    0x8(%rax),%rdx
    40b4:	48 89 c6             	mov    %rax,%rsi
    40b7:	bf 06 00 00 00       	mov    $0x6,%edi
    40bc:	48 89 14 24          	mov    %rdx,(%rsp)
    40c0:	48 c7 00 00 00 00 00 	movq   $0x0,(%rax)
    40c7:	e8 94 65 00 00       	call   a660 <sgx_ocall>
    40cc:	89 c5                	mov    %eax,%ebp
    40ce:	eb a5                	jmp    4075 <ocall_pointer_in_out+0xe5>
    40d0:	e8 eb b8 00 00       	call   f9c0 <__stack_chk_fail>
    40d5:	66 2e 0f 1f 84 00 00 	cs nopw 0x0(%rax,%rax,1)
    40dc:	00 00 00 
    40df:	90                   	nop

00000000000040e0 <memccpy>:
    40e0:	41 57                	push   %r15
    40e2:	41 56                	push   %r14
    40e4:	41 55                	push   %r13
    40e6:	41 54                	push   %r12
    40e8:	49 89 fd             	mov    %rdi,%r13
    40eb:	55                   	push   %rbp
    40ec:	53                   	push   %rbx
    40ed:	48 89 f5             	mov    %rsi,%rbp
    40f0:	49 89 d4             	mov    %rdx,%r12
    40f3:	4c 89 c3             	mov    %r8,%rbx
    40f6:	48 83 ec 38          	sub    $0x38,%rsp
    40fa:	64 48 8b 04 25 28 00 	mov    %fs:0x28,%rax
    4101:	00 00 
    4103:	48 89 44 24 28       	mov    %rax,0x28(%rsp)
    4108:	31 c0                	xor    %eax,%eax
    410a:	48 85 f6             	test   %rsi,%rsi
    410d:	89 4c 24 1c          	mov    %ecx,0x1c(%rsp)
    4111:	4c 89 44 24 10       	mov    %r8,0x10(%rsp)
    4116:	48 c7 44 24 20 00 00 	movq   $0x0,0x20(%rsp)
    411d:	00 00 
    411f:	0f 84 b3 01 00 00    	je     42d8 <memccpy+0x1f8>
    4125:	4c 89 c6             	mov    %r8,%rsi
    4128:	48 89 ef             	mov    %rbp,%rdi
    412b:	e8 10 4c 00 00       	call   8d40 <sgx_is_within_enclave>
    4130:	85 c0                	test   %eax,%eax
    4132:	75 2c                	jne    4160 <memccpy+0x80>
    4134:	b8 02 00 00 00       	mov    $0x2,%eax
    4139:	48 8b 4c 24 28       	mov    0x28(%rsp),%rcx
    413e:	64 48 33 0c 25 28 00 	xor    %fs:0x28,%rcx
    4145:	00 00 
    4147:	0f 85 2d 02 00 00    	jne    437a <memccpy+0x29a>
    414d:	48 83 c4 38          	add    $0x38,%rsp
    4151:	5b                   	pop    %rbx
    4152:	5d                   	pop    %rbp
    4153:	41 5c                	pop    %r12
    4155:	41 5d                	pop    %r13
    4157:	41 5e                	pop    %r14
    4159:	41 5f                	pop    %r15
    415b:	c3                   	ret    
    415c:	0f 1f 40 00          	nopl   0x0(%rax)
    4160:	4d 85 e4             	test   %r12,%r12
    4163:	0f 85 af 01 00 00    	jne    4318 <memccpy+0x238>
    4169:	4c 8d 73 28          	lea    0x28(%rbx),%r14
    416d:	4c 39 f3             	cmp    %r14,%rbx
    4170:	77 c2                	ja     4134 <memccpy+0x54>
    4172:	4c 89 f7             	mov    %r14,%rdi
    4175:	e8 76 4c 00 00       	call   8df0 <sgx_ocalloc>
    417a:	48 85 c0             	test   %rax,%rax
    417d:	49 89 c7             	mov    %rax,%r15
    4180:	0f 84 b4 01 00 00    	je     433a <memccpy+0x25a>
    4186:	48 8d 40 28          	lea    0x28(%rax),%rax
    418a:	49 83 ee 28          	sub    $0x28,%r14
    418e:	48 85 ed             	test   %rbp,%rbp
    4191:	48 89 44 24 20       	mov    %rax,0x20(%rsp)
    4196:	0f 84 bb 01 00 00    	je     4357 <memccpy+0x277>
    419c:	48 8d 54 24 20       	lea    0x20(%rsp),%rdx
    41a1:	49 8d 7f 08          	lea    0x8(%r15),%rdi
    41a5:	b9 08 00 00 00       	mov    $0x8,%ecx
    41aa:	be 08 00 00 00       	mov    $0x8,%esi
    41af:	e8 cc bd 00 00       	call   ff80 <memcpy_verw_s>
    41b4:	85 c0                	test   %eax,%eax
    41b6:	0f 85 8c 01 00 00    	jne    4348 <memccpy+0x268>
    41bc:	48 8b 44 24 20       	mov    0x20(%rsp),%rax
    41c1:	48 89 d9             	mov    %rbx,%rcx
    41c4:	48 89 ea             	mov    %rbp,%rdx
    41c7:	4c 89 f6             	mov    %r14,%rsi
    41ca:	48 89 c7             	mov    %rax,%rdi
    41cd:	48 89 44 24 08       	mov    %rax,0x8(%rsp)
    41d2:	e8 a9 bd 00 00       	call   ff80 <memcpy_verw_s>
    41d7:	85 c0                	test   %eax,%eax
    41d9:	0f 85 69 01 00 00    	jne    4348 <memccpy+0x268>
    41df:	48 01 5c 24 20       	add    %rbx,0x20(%rsp)
    41e4:	49 29 de             	sub    %rbx,%r14
    41e7:	4d 85 e4             	test   %r12,%r12
    41ea:	0f 84 7d 01 00 00    	je     436d <memccpy+0x28d>
    41f0:	48 8d 54 24 20       	lea    0x20(%rsp),%rdx
    41f5:	49 8d 7f 10          	lea    0x10(%r15),%rdi
    41f9:	b9 08 00 00 00       	mov    $0x8,%ecx
    41fe:	be 08 00 00 00       	mov    $0x8,%esi
    4203:	e8 78 bd 00 00       	call   ff80 <memcpy_verw_s>
    4208:	85 c0                	test   %eax,%eax
    420a:	0f 85 38 01 00 00    	jne    4348 <memccpy+0x268>
    4210:	48 8b 7c 24 20       	mov    0x20(%rsp),%rdi
    4215:	48 89 d9             	mov    %rbx,%rcx
    4218:	4c 89 e2             	mov    %r12,%rdx
    421b:	4c 89 f6             	mov    %r14,%rsi
    421e:	e8 5d bd 00 00       	call   ff80 <memcpy_verw_s>
    4223:	85 c0                	test   %eax,%eax
    4225:	0f 85 1d 01 00 00    	jne    4348 <memccpy+0x268>
    422b:	48 01 5c 24 20       	add    %rbx,0x20(%rsp)
    4230:	48 8d 54 24 1c       	lea    0x1c(%rsp),%rdx
    4235:	49 8d 7f 18          	lea    0x18(%r15),%rdi
    4239:	b9 04 00 00 00       	mov    $0x4,%ecx
    423e:	be 04 00 00 00       	mov    $0x4,%esi
    4243:	e8 38 bd 00 00       	call   ff80 <memcpy_verw_s>
    4248:	85 c0                	test   %eax,%eax
    424a:	0f 85 f8 00 00 00    	jne    4348 <memccpy+0x268>
    4250:	48 8d 54 24 10       	lea    0x10(%rsp),%rdx
    4255:	49 8d 7f 20          	lea    0x20(%r15),%rdi
    4259:	b9 08 00 00 00       	mov    $0x8,%ecx
    425e:	be 08 00 00 00       	mov    $0x8,%esi
    4263:	e8 18 bd 00 00       	call   ff80 <memcpy_verw_s>
    4268:	85 c0                	test   %eax,%eax
    426a:	0f 85 d8 00 00 00    	jne    4348 <memccpy+0x268>
    4270:	4c 89 fe             	mov    %r15,%rsi
    4273:	bf 07 00 00 00       	mov    $0x7,%edi
    4278:	e8 e3 63 00 00       	call   a660 <sgx_ocall>
    427d:	85 c0                	test   %eax,%eax
    427f:	41 89 c4             	mov    %eax,%r12d
    4282:	75 42                	jne    42c6 <memccpy+0x1e6>
    4284:	4d 85 ed             	test   %r13,%r13
    4287:	74 1d                	je     42a6 <memccpy+0x1c6>
    4289:	b9 08 00 00 00       	mov    $0x8,%ecx
    428e:	4c 89 fa             	mov    %r15,%rdx
    4291:	be 08 00 00 00       	mov    $0x8,%esi
    4296:	4c 89 ef             	mov    %r13,%rdi
    4299:	e8 62 bc 00 00       	call   ff00 <memcpy_s>
    429e:	85 c0                	test   %eax,%eax
    42a0:	0f 85 a2 00 00 00    	jne    4348 <memccpy+0x268>
    42a6:	48 85 ed             	test   %rbp,%rbp
    42a9:	74 1b                	je     42c6 <memccpy+0x1e6>
    42ab:	48 8b 54 24 08       	mov    0x8(%rsp),%rdx
    42b0:	48 89 d9             	mov    %rbx,%rcx
    42b3:	48 89 de             	mov    %rbx,%rsi
    42b6:	48 89 ef             	mov    %rbp,%rdi
    42b9:	e8 42 bc 00 00       	call   ff00 <memcpy_s>
    42be:	85 c0                	test   %eax,%eax
    42c0:	0f 85 82 00 00 00    	jne    4348 <memccpy+0x268>
    42c6:	e8 15 4c 00 00       	call   8ee0 <sgx_ocfree>
    42cb:	44 89 e0             	mov    %r12d,%eax
    42ce:	e9 66 fe ff ff       	jmp    4139 <memccpy+0x59>
    42d3:	0f 1f 44 00 00       	nopl   0x0(%rax,%rax,1)
    42d8:	48 85 d2             	test   %rdx,%rdx
    42db:	41 be 28 00 00 00    	mov    $0x28,%r14d
    42e1:	0f 84 8b fe ff ff    	je     4172 <memccpy+0x92>
    42e7:	4c 89 c6             	mov    %r8,%rsi
    42ea:	48 89 d7             	mov    %rdx,%rdi
    42ed:	e8 4e 4a 00 00       	call   8d40 <sgx_is_within_enclave>
    42f2:	85 c0                	test   %eax,%eax
    42f4:	0f 84 3a fe ff ff    	je     4134 <memccpy+0x54>
    42fa:	bf 28 00 00 00       	mov    $0x28,%edi
    42ff:	90                   	nop
    4300:	48 01 df             	add    %rbx,%rdi
    4303:	49 89 fe             	mov    %rdi,%r14
    4306:	0f 82 28 fe ff ff    	jb     4134 <memccpy+0x54>
    430c:	e9 61 fe ff ff       	jmp    4172 <memccpy+0x92>
    4311:	0f 1f 80 00 00 00 00 	nopl   0x0(%rax)
    4318:	48 89 de             	mov    %rbx,%rsi
    431b:	4c 89 e7             	mov    %r12,%rdi
    431e:	e8 1d 4a 00 00       	call   8d40 <sgx_is_within_enclave>
    4323:	85 c0                	test   %eax,%eax
    4325:	0f 84 09 fe ff ff    	je     4134 <memccpy+0x54>
    432b:	48 8d 7b 28          	lea    0x28(%rbx),%rdi
    432f:	48 39 fb             	cmp    %rdi,%rbx
    4332:	0f 87 fc fd ff ff    	ja     4134 <memccpy+0x54>
    4338:	eb c6                	jmp    4300 <memccpy+0x220>
    433a:	48 c7 44 24 20 00 00 	movq   $0x0,0x20(%rsp)
    4341:	00 00 
    4343:	0f 1f 44 00 00       	nopl   0x0(%rax,%rax,1)
    4348:	e8 93 4b 00 00       	call   8ee0 <sgx_ocfree>
    434d:	b8 01 00 00 00       	mov    $0x1,%eax
    4352:	e9 e2 fd ff ff       	jmp    4139 <memccpy+0x59>
    4357:	49 c7 47 08 00 00 00 	movq   $0x0,0x8(%r15)
    435e:	00 
    435f:	48 c7 44 24 08 00 00 	movq   $0x0,0x8(%rsp)
    4366:	00 00 
    4368:	e9 7a fe ff ff       	jmp    41e7 <memccpy+0x107>
    436d:	49 c7 47 10 00 00 00 	movq   $0x0,0x10(%r15)
    4374:	00 
    4375:	e9 b6 fe ff ff       	jmp    4230 <memccpy+0x150>
    437a:	e8 41 b6 00 00       	call   f9c0 <__stack_chk_fail>
    437f:	90                   	nop

0000000000004380 <ocall_function_allow>:
    4380:	31 f6                	xor    %esi,%esi
    4382:	bf 08 00 00 00       	mov    $0x8,%edi
    4387:	e9 d4 62 00 00       	jmp    a660 <sgx_ocall>
    438c:	0f 1f 40 00          	nopl   0x0(%rax)

0000000000004390 <sgx_oc_cpuidex>:
    4390:	41 54                	push   %r12
    4392:	55                   	push   %rbp
    4393:	53                   	push   %rbx
    4394:	48 89 fb             	mov    %rdi,%rbx
    4397:	48 83 ec 20          	sub    $0x20,%rsp
    439b:	64 48 8b 04 25 28 00 	mov    %fs:0x28,%rax
    43a2:	00 00 
    43a4:	48 89 44 24 18       	mov    %rax,0x18(%rsp)
    43a9:	31 c0                	xor    %eax,%eax
    43ab:	48 85 ff             	test   %rdi,%rdi
    43ae:	89 74 24 0c          	mov    %esi,0xc(%rsp)
    43b2:	89 54 24 08          	mov    %edx,0x8(%rsp)
    43b6:	48 c7 44 24 10 00 00 	movq   $0x0,0x10(%rsp)
    43bd:	00 00 
    43bf:	74 5f                	je     4420 <sgx_oc_cpuidex+0x90>
    43c1:	be 10 00 00 00       	mov    $0x10,%esi
    43c6:	e8 75 49 00 00       	call   8d40 <sgx_is_within_enclave>
    43cb:	85 c0                	test   %eax,%eax
    43cd:	ba 02 00 00 00       	mov    $0x2,%edx
    43d2:	75 24                	jne    43f8 <sgx_oc_cpuidex+0x68>
    43d4:	48 8b 4c 24 18       	mov    0x18(%rsp),%rcx
    43d9:	64 48 33 0c 25 28 00 	xor    %fs:0x28,%rcx
    43e0:	00 00 
    43e2:	89 d0                	mov    %edx,%eax
    43e4:	0f 85 3f 01 00 00    	jne    4529 <sgx_oc_cpuidex+0x199>
    43ea:	48 83 c4 20          	add    $0x20,%rsp
    43ee:	5b                   	pop    %rbx
    43ef:	5d                   	pop    %rbp
    43f0:	41 5c                	pop    %r12
    43f2:	c3                   	ret    
    43f3:	0f 1f 44 00 00       	nopl   0x0(%rax,%rax,1)
    43f8:	bf 20 00 00 00       	mov    $0x20,%edi
    43fd:	e8 ee 49 00 00       	call   8df0 <sgx_ocalloc>
    4402:	48 85 c0             	test   %rax,%rax
    4405:	48 89 c5             	mov    %rax,%rbp
    4408:	48 89 44 24 10       	mov    %rax,0x10(%rsp)
    440d:	75 39                	jne    4448 <sgx_oc_cpuidex+0xb8>
    440f:	e8 cc 4a 00 00       	call   8ee0 <sgx_ocfree>
    4414:	ba 01 00 00 00       	mov    $0x1,%edx
    4419:	eb b9                	jmp    43d4 <sgx_oc_cpuidex+0x44>
    441b:	0f 1f 44 00 00       	nopl   0x0(%rax,%rax,1)
    4420:	bf 10 00 00 00       	mov    $0x10,%edi
    4425:	e8 c6 49 00 00       	call   8df0 <sgx_ocalloc>
    442a:	48 85 c0             	test   %rax,%rax
    442d:	48 89 c5             	mov    %rax,%rbp
    4430:	0f 85 da 00 00 00    	jne    4510 <sgx_oc_cpuidex+0x180>
    4436:	48 c7 44 24 10 00 00 	movq   $0x0,0x10(%rsp)
    443d:	00 00 
    443f:	eb ce                	jmp    440f <sgx_oc_cpuidex+0x7f>
    4441:	0f 1f 80 00 00 00 00 	nopl   0x0(%rax)
    4448:	48 8d 40 10          	lea    0x10(%rax),%rax
    444c:	48 8d 54 24 10       	lea    0x10(%rsp),%rdx
    4451:	b9 08 00 00 00       	mov    $0x8,%ecx
    4456:	be 08 00 00 00       	mov    $0x8,%esi
    445b:	48 89 ef             	mov    %rbp,%rdi
    445e:	48 89 44 24 10       	mov    %rax,0x10(%rsp)
    4463:	e8 18 bb 00 00       	call   ff80 <memcpy_verw_s>
    4468:	85 c0                	test   %eax,%eax
    446a:	75 a3                	jne    440f <sgx_oc_cpuidex+0x7f>
    446c:	4c 8b 64 24 10       	mov    0x10(%rsp),%r12
    4471:	ba 10 00 00 00       	mov    $0x10,%edx
    4476:	31 f6                	xor    %esi,%esi
    4478:	4c 89 e7             	mov    %r12,%rdi
    447b:	e8 80 b2 00 00       	call   f700 <memset_verw>
    4480:	48 83 44 24 10 10    	addq   $0x10,0x10(%rsp)
    4486:	48 8d 54 24 0c       	lea    0xc(%rsp),%rdx
    448b:	48 8d 7d 08          	lea    0x8(%rbp),%rdi
    448f:	b9 04 00 00 00       	mov    $0x4,%ecx
    4494:	be 04 00 00 00       	mov    $0x4,%esi
    4499:	e8 e2 ba 00 00       	call   ff80 <memcpy_verw_s>
    449e:	85 c0                	test   %eax,%eax
    44a0:	0f 85 69 ff ff ff    	jne    440f <sgx_oc_cpuidex+0x7f>
    44a6:	48 8d 54 24 08       	lea    0x8(%rsp),%rdx
    44ab:	48 8d 7d 0c          	lea    0xc(%rbp),%rdi
    44af:	b9 04 00 00 00       	mov    $0x4,%ecx
    44b4:	be 04 00 00 00       	mov    $0x4,%esi
    44b9:	e8 c2 ba 00 00       	call   ff80 <memcpy_verw_s>
    44be:	85 c0                	test   %eax,%eax
    44c0:	0f 85 49 ff ff ff    	jne    440f <sgx_oc_cpuidex+0x7f>
    44c6:	48 89 ee             	mov    %rbp,%rsi
    44c9:	bf 09 00 00 00       	mov    $0x9,%edi
    44ce:	e8 8d 61 00 00       	call   a660 <sgx_ocall>
    44d3:	85 c0                	test   %eax,%eax
    44d5:	89 c5                	mov    %eax,%ebp
    44d7:	75 22                	jne    44fb <sgx_oc_cpuidex+0x16b>
    44d9:	48 85 db             	test   %rbx,%rbx
    44dc:	74 1d                	je     44fb <sgx_oc_cpuidex+0x16b>
    44de:	b9 10 00 00 00       	mov    $0x10,%ecx
    44e3:	4c 89 e2             	mov    %r12,%rdx
    44e6:	be 10 00 00 00       	mov    $0x10,%esi
    44eb:	48 89 df             	mov    %rbx,%rdi
    44ee:	e8 0d ba 00 00       	call   ff00 <memcpy_s>
    44f3:	85 c0                	test   %eax,%eax
    44f5:	0f 85 14 ff ff ff    	jne    440f <sgx_oc_cpuidex+0x7f>
    44fb:	e8 e0 49 00 00       	call   8ee0 <sgx_ocfree>
    4500:	89 ea                	mov    %ebp,%edx
    4502:	e9 cd fe ff ff       	jmp    43d4 <sgx_oc_cpuidex+0x44>
    4507:	66 0f 1f 84 00 00 00 	nopw   0x0(%rax,%rax,1)
    450e:	00 00 
    4510:	48 8d 40 10          	lea    0x10(%rax),%rax
    4514:	45 31 e4             	xor    %r12d,%r12d
    4517:	48 89 44 24 10       	mov    %rax,0x10(%rsp)
    451c:	48 c7 45 00 00 00 00 	movq   $0x0,0x0(%rbp)
    4523:	00 
    4524:	e9 5d ff ff ff       	jmp    4486 <sgx_oc_cpuidex+0xf6>
    4529:	e8 92 b4 00 00       	call   f9c0 <__stack_chk_fail>
    452e:	66 90                	xchg   %ax,%ax

0000000000004530 <sgx_thread_wait_untrusted_event_ocall>:
    4530:	41 54                	push   %r12
    4532:	55                   	push   %rbp
    4533:	49 89 fc             	mov    %rdi,%r12
    4536:	53                   	push   %rbx
    4537:	bf 10 00 00 00       	mov    $0x10,%edi
    453c:	48 83 ec 10          	sub    $0x10,%rsp
    4540:	48 89 74 24 08       	mov    %rsi,0x8(%rsp)
    4545:	e8 a6 48 00 00       	call   8df0 <sgx_ocalloc>
    454a:	48 85 c0             	test   %rax,%rax
    454d:	74 61                	je     45b0 <sgx_thread_wait_untrusted_event_ocall+0x80>
    454f:	48 8d 54 24 08       	lea    0x8(%rsp),%rdx
    4554:	48 8d 78 08          	lea    0x8(%rax),%rdi
    4558:	b9 08 00 00 00       	mov    $0x8,%ecx
    455d:	be 08 00 00 00       	mov    $0x8,%esi
    4562:	48 89 c3             	mov    %rax,%rbx
    4565:	e8 16 ba 00 00       	call   ff80 <memcpy_verw_s>
    456a:	85 c0                	test   %eax,%eax
    456c:	75 42                	jne    45b0 <sgx_thread_wait_untrusted_event_ocall+0x80>
    456e:	48 89 de             	mov    %rbx,%rsi
    4571:	bf 0a 00 00 00       	mov    $0xa,%edi
    4576:	e8 e5 60 00 00       	call   a660 <sgx_ocall>
    457b:	4d 85 e4             	test   %r12,%r12
    457e:	89 c5                	mov    %eax,%ebp
    4580:	74 1d                	je     459f <sgx_thread_wait_untrusted_event_ocall+0x6f>
    4582:	85 c0                	test   %eax,%eax
    4584:	75 19                	jne    459f <sgx_thread_wait_untrusted_event_ocall+0x6f>
    4586:	b9 04 00 00 00       	mov    $0x4,%ecx
    458b:	48 89 da             	mov    %rbx,%rdx
    458e:	be 04 00 00 00       	mov    $0x4,%esi
    4593:	4c 89 e7             	mov    %r12,%rdi
    4596:	e8 65 b9 00 00       	call   ff00 <memcpy_s>
    459b:	85 c0                	test   %eax,%eax
    459d:	75 11                	jne    45b0 <sgx_thread_wait_untrusted_event_ocall+0x80>
    459f:	e8 3c 49 00 00       	call   8ee0 <sgx_ocfree>
    45a4:	48 83 c4 10          	add    $0x10,%rsp
    45a8:	89 e8                	mov    %ebp,%eax
    45aa:	5b                   	pop    %rbx
    45ab:	5d                   	pop    %rbp
    45ac:	41 5c                	pop    %r12
    45ae:	c3                   	ret    
    45af:	90                   	nop
    45b0:	e8 2b 49 00 00       	call   8ee0 <sgx_ocfree>
    45b5:	48 83 c4 10          	add    $0x10,%rsp
    45b9:	b8 01 00 00 00       	mov    $0x1,%eax
    45be:	5b                   	pop    %rbx
    45bf:	5d                   	pop    %rbp
    45c0:	41 5c                	pop    %r12
    45c2:	c3                   	ret    
    45c3:	66 2e 0f 1f 84 00 00 	cs nopw 0x0(%rax,%rax,1)
    45ca:	00 00 00 
    45cd:	0f 1f 00             	nopl   (%rax)

00000000000045d0 <sgx_thread_set_untrusted_event_ocall>:
    45d0:	41 54                	push   %r12
    45d2:	55                   	push   %rbp
    45d3:	49 89 fc             	mov    %rdi,%r12
    45d6:	53                   	push   %rbx
    45d7:	bf 10 00 00 00       	mov    $0x10,%edi
    45dc:	48 83 ec 10          	sub    $0x10,%rsp
    45e0:	48 89 74 24 08       	mov    %rsi,0x8(%rsp)
    45e5:	e8 06 48 00 00       	call   8df0 <sgx_ocalloc>
    45ea:	48 85 c0             	test   %rax,%rax
    45ed:	74 61                	je     4650 <sgx_thread_set_untrusted_event_ocall+0x80>
    45ef:	48 8d 54 24 08       	lea    0x8(%rsp),%rdx
    45f4:	48 8d 78 08          	lea    0x8(%rax),%rdi
    45f8:	b9 08 00 00 00       	mov    $0x8,%ecx
    45fd:	be 08 00 00 00       	mov    $0x8,%esi
    4602:	48 89 c3             	mov    %rax,%rbx
    4605:	e8 76 b9 00 00       	call   ff80 <memcpy_verw_s>
    460a:	85 c0                	test   %eax,%eax
    460c:	75 42                	jne    4650 <sgx_thread_set_untrusted_event_ocall+0x80>
    460e:	48 89 de             	mov    %rbx,%rsi
    4611:	bf 0b 00 00 00       	mov    $0xb,%edi
    4616:	e8 45 60 00 00       	call   a660 <sgx_ocall>
    461b:	4d 85 e4             	test   %r12,%r12
    461e:	89 c5                	mov    %eax,%ebp
    4620:	74 1d                	je     463f <sgx_thread_set_untrusted_event_ocall+0x6f>
    4622:	85 c0                	test   %eax,%eax
    4624:	75 19                	jne    463f <sgx_thread_set_untrusted_event_ocall+0x6f>
    4626:	b9 04 00 00 00       	mov    $0x4,%ecx
    462b:	48 89 da             	mov    %rbx,%rdx
    462e:	be 04 00 00 00       	mov    $0x4,%esi
    4633:	4c 89 e7             	mov    %r12,%rdi
    4636:	e8 c5 b8 00 00       	call   ff00 <memcpy_s>
    463b:	85 c0                	test   %eax,%eax
    463d:	75 11                	jne    4650 <sgx_thread_set_untrusted_event_ocall+0x80>
    463f:	e8 9c 48 00 00       	call   8ee0 <sgx_ocfree>
    4644:	48 83 c4 10          	add    $0x10,%rsp
    4648:	89 e8                	mov    %ebp,%eax
    464a:	5b                   	pop    %rbx
    464b:	5d                   	pop    %rbp
    464c:	41 5c                	pop    %r12
    464e:	c3                   	ret    
    464f:	90                   	nop
    4650:	e8 8b 48 00 00       	call   8ee0 <sgx_ocfree>
    4655:	48 83 c4 10          	add    $0x10,%rsp
    4659:	b8 01 00 00 00       	mov    $0x1,%eax
    465e:	5b                   	pop    %rbx
    465f:	5d                   	pop    %rbp
    4660:	41 5c                	pop    %r12
    4662:	c3                   	ret    
    4663:	66 2e 0f 1f 84 00 00 	cs nopw 0x0(%rax,%rax,1)
    466a:	00 00 00 
    466d:	0f 1f 00             	nopl   (%rax)

0000000000004670 <sgx_thread_setwait_untrusted_events_ocall>:
    4670:	41 54                	push   %r12
    4672:	55                   	push   %rbp
    4673:	49 89 fc             	mov    %rdi,%r12
    4676:	53                   	push   %rbx
    4677:	bf 18 00 00 00       	mov    $0x18,%edi
    467c:	48 83 ec 10          	sub    $0x10,%rsp
    4680:	48 89 74 24 08       	mov    %rsi,0x8(%rsp)
    4685:	48 89 14 24          	mov    %rdx,(%rsp)
    4689:	e8 62 47 00 00       	call   8df0 <sgx_ocalloc>
    468e:	48 85 c0             	test   %rax,%rax
    4691:	74 7d                	je     4710 <sgx_thread_setwait_untrusted_events_ocall+0xa0>
    4693:	48 8d 54 24 08       	lea    0x8(%rsp),%rdx
    4698:	48 8d 78 08          	lea    0x8(%rax),%rdi
    469c:	b9 08 00 00 00       	mov    $0x8,%ecx
    46a1:	be 08 00 00 00       	mov    $0x8,%esi
    46a6:	48 89 c3             	mov    %rax,%rbx
    46a9:	e8 d2 b8 00 00       	call   ff80 <memcpy_verw_s>
    46ae:	85 c0                	test   %eax,%eax
    46b0:	75 5e                	jne    4710 <sgx_thread_setwait_untrusted_events_ocall+0xa0>
    46b2:	48 8d 7b 10          	lea    0x10(%rbx),%rdi
    46b6:	48 89 e2             	mov    %rsp,%rdx
    46b9:	b9 08 00 00 00       	mov    $0x8,%ecx
    46be:	be 08 00 00 00       	mov    $0x8,%esi
    46c3:	e8 b8 b8 00 00       	call   ff80 <memcpy_verw_s>
    46c8:	85 c0                	test   %eax,%eax
    46ca:	75 44                	jne    4710 <sgx_thread_setwait_untrusted_events_ocall+0xa0>
    46cc:	48 89 de             	mov    %rbx,%rsi
    46cf:	bf 0c 00 00 00       	mov    $0xc,%edi
    46d4:	e8 87 5f 00 00       	call   a660 <sgx_ocall>
    46d9:	4d 85 e4             	test   %r12,%r12
    46dc:	89 c5                	mov    %eax,%ebp
    46de:	74 1d                	je     46fd <sgx_thread_setwait_untrusted_events_ocall+0x8d>
    46e0:	85 c0                	test   %eax,%eax
    46e2:	75 19                	jne    46fd <sgx_thread_setwait_untrusted_events_ocall+0x8d>
    46e4:	b9 04 00 00 00       	mov    $0x4,%ecx
    46e9:	48 89 da             	mov    %rbx,%rdx
    46ec:	be 04 00 00 00       	mov    $0x4,%esi
    46f1:	4c 89 e7             	mov    %r12,%rdi
    46f4:	e8 07 b8 00 00       	call   ff00 <memcpy_s>
    46f9:	85 c0                	test   %eax,%eax
    46fb:	75 13                	jne    4710 <sgx_thread_setwait_untrusted_events_ocall+0xa0>
    46fd:	e8 de 47 00 00       	call   8ee0 <sgx_ocfree>
    4702:	48 83 c4 10          	add    $0x10,%rsp
    4706:	89 e8                	mov    %ebp,%eax
    4708:	5b                   	pop    %rbx
    4709:	5d                   	pop    %rbp
    470a:	41 5c                	pop    %r12
    470c:	c3                   	ret    
    470d:	0f 1f 00             	nopl   (%rax)
    4710:	e8 cb 47 00 00       	call   8ee0 <sgx_ocfree>
    4715:	48 83 c4 10          	add    $0x10,%rsp
    4719:	b8 01 00 00 00       	mov    $0x1,%eax
    471e:	5b                   	pop    %rbx
    471f:	5d                   	pop    %rbp
    4720:	41 5c                	pop    %r12
    4722:	c3                   	ret    
    4723:	66 2e 0f 1f 84 00 00 	cs nopw 0x0(%rax,%rax,1)
    472a:	00 00 00 
    472d:	0f 1f 00             	nopl   (%rax)

0000000000004730 <_Z17write_block_sizesiR5Table>:
    4730:	41 57                	push   %r15
    4732:	41 56                	push   %r14
    4734:	41 55                	push   %r13
    4736:	41 54                	push   %r12
    4738:	55                   	push   %rbp
    4739:	53                   	push   %rbx
    473a:	48 83 ec 48          	sub    $0x48,%rsp
    473e:	85 ff                	test   %edi,%edi
    4740:	0f 8e 7a 04 00 00    	jle    4bc0 <_Z17write_block_sizesiR5Table+0x490>
    4746:	89 f8                	mov    %edi,%eax
    4748:	49 89 f7             	mov    %rsi,%r15
    474b:	89 7c 24 3c          	mov    %edi,0x3c(%rsp)
    474f:	83 e8 01             	sub    $0x1,%eax
    4752:	31 db                	xor    %ebx,%ebx
    4754:	c7 44 24 18 00 00 00 	movl   $0x80000000,0x18(%rsp)
    475b:	80 
    475c:	89 44 24 38          	mov    %eax,0x38(%rsp)
    4760:	48 83 c0 01          	add    $0x1,%rax
    4764:	c7 44 24 10 00 00 00 	movl   $0x0,0x10(%rsp)
    476b:	00 
    476c:	48 89 44 24 30       	mov    %rax,0x30(%rsp)
    4771:	e9 be 00 00 00       	jmp    4834 <_Z17write_block_sizesiR5Table+0x104>
    4776:	66 2e 0f 1f 84 00 00 	cs nopw 0x0(%rax,%rax,1)
    477d:	00 00 00 
    4780:	41 83 fc 01          	cmp    $0x1,%r12d
    4784:	75 1a                	jne    47a0 <_Z17write_block_sizesiR5Table+0x70>
    4786:	8b 74 24 18          	mov    0x18(%rsp),%esi
    478a:	8b 7c 24 10          	mov    0x10(%rsp),%edi
    478e:	b8 00 00 00 00       	mov    $0x0,%eax
    4793:	39 f5                	cmp    %esi,%ebp
    4795:	0f 44 c7             	cmove  %edi,%eax
    4798:	89 44 24 10          	mov    %eax,0x10(%rsp)
    479c:	0f 1f 40 00          	nopl   0x0(%rax)
    47a0:	45 85 ed             	test   %r13d,%r13d
    47a3:	78 06                	js     47ab <_Z17write_block_sizesiR5Table+0x7b>
    47a5:	45 39 6f 2c          	cmp    %r13d,0x2c(%r15)
    47a9:	7f 56                	jg     4801 <_Z17write_block_sizesiR5Table+0xd1>
    47ab:	48 8d 0d 36 da 01 00 	lea    0x1da36(%rip),%rcx        # 221e8 <g_dyn_entry_table+0x1e8>
    47b2:	48 8d 15 41 db 01 00 	lea    0x1db41(%rip),%rdx        # 222fa <_ZZN8TraceMemIN5Table10TableEntryEE5writeEiS1_E8__func__>
    47b9:	48 8d 3d 3b da 01 00 	lea    0x1da3b(%rip),%rdi        # 221fb <g_dyn_entry_table+0x1fb>
    47c0:	be 48 00 00 00       	mov    $0x48,%esi
    47c5:	44 89 5c 24 28       	mov    %r11d,0x28(%rsp)
    47ca:	89 44 24 24          	mov    %eax,0x24(%rsp)
    47ce:	44 89 4c 24 20       	mov    %r9d,0x20(%rsp)
    47d3:	44 89 44 24 1c       	mov    %r8d,0x1c(%rsp)
    47d8:	44 89 54 24 18       	mov    %r10d,0x18(%rsp)
    47dd:	e8 fe 71 00 00       	call   b9e0 <__assert>
    47e2:	49 8b 0f             	mov    (%r15),%rcx
    47e5:	44 8b 5c 24 28       	mov    0x28(%rsp),%r11d
    47ea:	8b 44 24 24          	mov    0x24(%rsp),%eax
    47ee:	44 8b 4c 24 20       	mov    0x20(%rsp),%r9d
    47f3:	44 8b 44 24 1c       	mov    0x1c(%rsp),%r8d
    47f8:	44 8b 54 24 18       	mov    0x18(%rsp),%r10d
    47fd:	4a 8d 14 31          	lea    (%rcx,%r14,1),%rdx
    4801:	48 83 c3 01          	add    $0x1,%rbx
    4805:	48 3b 5c 24 30       	cmp    0x30(%rsp),%rbx
    480a:	8b 7c 24 08          	mov    0x8(%rsp),%edi
    480e:	44 89 62 04          	mov    %r12d,0x4(%rdx)
    4812:	89 6a 08             	mov    %ebp,0x8(%rdx)
    4815:	44 89 5a 0c          	mov    %r11d,0xc(%rdx)
    4819:	89 42 10             	mov    %eax,0x10(%rdx)
    481c:	89 3a                	mov    %edi,(%rdx)
    481e:	44 89 52 14          	mov    %r10d,0x14(%rdx)
    4822:	44 89 4a 18          	mov    %r9d,0x18(%rdx)
    4826:	44 89 42 1c          	mov    %r8d,0x1c(%rdx)
    482a:	89 6c 24 18          	mov    %ebp,0x18(%rsp)
    482e:	0f 84 84 00 00 00    	je     48b8 <_Z17write_block_sizesiR5Table+0x188>
    4834:	85 db                	test   %ebx,%ebx
    4836:	41 89 dd             	mov    %ebx,%r13d
    4839:	78 06                	js     4841 <_Z17write_block_sizesiR5Table+0x111>
    483b:	41 39 5f 2c          	cmp    %ebx,0x2c(%r15)
    483f:	7f 1f                	jg     4860 <_Z17write_block_sizesiR5Table+0x130>
    4841:	48 8d 0d a0 d9 01 00 	lea    0x1d9a0(%rip),%rcx        # 221e8 <g_dyn_entry_table+0x1e8>
    4848:	48 8d 15 b1 da 01 00 	lea    0x1dab1(%rip),%rdx        # 22300 <_ZZN8TraceMemIN5Table10TableEntryEE4readEiE8__func__>
    484f:	48 8d 3d a5 d9 01 00 	lea    0x1d9a5(%rip),%rdi        # 221fb <g_dyn_entry_table+0x1fb>
    4856:	be 3b 00 00 00       	mov    $0x3b,%esi
    485b:	e8 80 71 00 00       	call   b9e0 <__assert>
    4860:	49 8b 0f             	mov    (%r15),%rcx
    4863:	49 89 de             	mov    %rbx,%r14
    4866:	49 c1 e6 05          	shl    $0x5,%r14
    486a:	4a 8d 14 31          	lea    (%rcx,%r14,1),%rdx
    486e:	44 8b 62 04          	mov    0x4(%rdx),%r12d
    4872:	8b 02                	mov    (%rdx),%eax
    4874:	8b 6a 08             	mov    0x8(%rdx),%ebp
    4877:	44 8b 5a 0c          	mov    0xc(%rdx),%r11d
    487b:	44 8b 52 14          	mov    0x14(%rdx),%r10d
    487f:	44 8b 4a 18          	mov    0x18(%rdx),%r9d
    4883:	45 85 e4             	test   %r12d,%r12d
    4886:	89 44 24 08          	mov    %eax,0x8(%rsp)
    488a:	44 8b 42 1c          	mov    0x1c(%rdx),%r8d
    488e:	8b 42 10             	mov    0x10(%rdx),%eax
    4891:	0f 85 e9 fe ff ff    	jne    4780 <_Z17write_block_sizesiR5Table+0x50>
    4897:	8b 7c 24 10          	mov    0x10(%rsp),%edi
    489b:	be 01 00 00 00       	mov    $0x1,%esi
    48a0:	83 c7 01             	add    $0x1,%edi
    48a3:	3b 6c 24 18          	cmp    0x18(%rsp),%ebp
    48a7:	0f 44 f7             	cmove  %edi,%esi
    48aa:	89 74 24 10          	mov    %esi,0x10(%rsp)
    48ae:	e9 ed fe ff ff       	jmp    47a0 <_Z17write_block_sizesiR5Table+0x70>
    48b3:	0f 1f 44 00 00       	nopl   0x0(%rax,%rax,1)
    48b8:	4c 63 5c 24 38       	movslq 0x38(%rsp),%r11
    48bd:	41 be 00 00 00 80    	mov    $0x80000000,%r14d
    48c3:	4c 89 7c 24 10       	mov    %r15,0x10(%rsp)
    48c8:	45 31 e4             	xor    %r12d,%r12d
    48cb:	c7 44 24 18 00 00 00 	movl   $0x0,0x18(%rsp)
    48d2:	00 
    48d3:	45 89 f7             	mov    %r14d,%r15d
    48d6:	44 89 dd             	mov    %r11d,%ebp
    48d9:	49 c1 e3 05          	shl    $0x5,%r11
    48dd:	4c 89 5c 24 08       	mov    %r11,0x8(%rsp)
    48e2:	e9 bf 00 00 00       	jmp    49a6 <_Z17write_block_sizesiR5Table+0x276>
    48e7:	66 0f 1f 84 00 00 00 	nopw   0x0(%rax,%rax,1)
    48ee:	00 00 
    48f0:	41 83 fe 01          	cmp    $0x1,%r14d
    48f4:	75 1a                	jne    4910 <_Z17write_block_sizesiR5Table+0x1e0>
    48f6:	44 39 fb             	cmp    %r15d,%ebx
    48f9:	0f 84 e1 02 00 00    	je     4be0 <_Z17write_block_sizesiR5Table+0x4b0>
    48ff:	44 89 6c 24 18       	mov    %r13d,0x18(%rsp)
    4904:	41 bc 01 00 00 00    	mov    $0x1,%r12d
    490a:	66 0f 1f 44 00 00    	nopw   0x0(%rax,%rax,1)
    4910:	39 f5                	cmp    %esi,%ebp
    4912:	7c 60                	jl     4974 <_Z17write_block_sizesiR5Table+0x244>
    4914:	48 8d 0d cd d8 01 00 	lea    0x1d8cd(%rip),%rcx        # 221e8 <g_dyn_entry_table+0x1e8>
    491b:	48 8d 15 d8 d9 01 00 	lea    0x1d9d8(%rip),%rdx        # 222fa <_ZZN8TraceMemIN5Table10TableEntryEE5writeEiS1_E8__func__>
    4922:	48 8d 3d d2 d8 01 00 	lea    0x1d8d2(%rip),%rdi        # 221fb <g_dyn_entry_table+0x1fb>
    4929:	be 48 00 00 00       	mov    $0x48,%esi
    492e:	89 44 24 30          	mov    %eax,0x30(%rsp)
    4932:	44 89 54 24 28       	mov    %r10d,0x28(%rsp)
    4937:	44 89 4c 24 24       	mov    %r9d,0x24(%rsp)
    493c:	44 89 44 24 20       	mov    %r8d,0x20(%rsp)
    4941:	44 89 5c 24 1c       	mov    %r11d,0x1c(%rsp)
    4946:	e8 95 70 00 00       	call   b9e0 <__assert>
    494b:	48 8b 44 24 10       	mov    0x10(%rsp),%rax
    4950:	44 8b 54 24 28       	mov    0x28(%rsp),%r10d
    4955:	44 8b 4c 24 24       	mov    0x24(%rsp),%r9d
    495a:	44 8b 44 24 20       	mov    0x20(%rsp),%r8d
    495f:	44 8b 5c 24 1c       	mov    0x1c(%rsp),%r11d
    4964:	48 8b 08             	mov    (%rax),%rcx
    4967:	48 8b 44 24 08       	mov    0x8(%rsp),%rax
    496c:	48 8d 14 01          	lea    (%rcx,%rax,1),%rdx
    4970:	8b 44 24 30          	mov    0x30(%rsp),%eax
    4974:	83 ed 01             	sub    $0x1,%ebp
    4977:	48 83 6c 24 08 20    	subq   $0x20,0x8(%rsp)
    497d:	44 89 1a             	mov    %r11d,(%rdx)
    4980:	83 fd ff             	cmp    $0xffffffff,%ebp
    4983:	44 89 72 04          	mov    %r14d,0x4(%rdx)
    4987:	89 5a 08             	mov    %ebx,0x8(%rdx)
    498a:	89 42 0c             	mov    %eax,0xc(%rdx)
    498d:	44 89 6a 10          	mov    %r13d,0x10(%rdx)
    4991:	41 89 df             	mov    %ebx,%r15d
    4994:	44 89 42 14          	mov    %r8d,0x14(%rdx)
    4998:	44 89 52 18          	mov    %r10d,0x18(%rdx)
    499c:	44 89 4a 1c          	mov    %r9d,0x1c(%rdx)
    49a0:	0f 84 8a 00 00 00    	je     4a30 <_Z17write_block_sizesiR5Table+0x300>
    49a6:	48 8b 5c 24 10       	mov    0x10(%rsp),%rbx
    49ab:	8b 73 2c             	mov    0x2c(%rbx),%esi
    49ae:	39 ee                	cmp    %ebp,%esi
    49b0:	7f 25                	jg     49d7 <_Z17write_block_sizesiR5Table+0x2a7>
    49b2:	48 8d 0d 2f d8 01 00 	lea    0x1d82f(%rip),%rcx        # 221e8 <g_dyn_entry_table+0x1e8>
    49b9:	48 8d 15 40 d9 01 00 	lea    0x1d940(%rip),%rdx        # 22300 <_ZZN8TraceMemIN5Table10TableEntryEE4readEiE8__func__>
    49c0:	48 8d 3d 34 d8 01 00 	lea    0x1d834(%rip),%rdi        # 221fb <g_dyn_entry_table+0x1fb>
    49c7:	be 3b 00 00 00       	mov    $0x3b,%esi
    49cc:	e8 0f 70 00 00       	call   b9e0 <__assert>
    49d1:	8b 73 2c             	mov    0x2c(%rbx),%esi
    49d4:	48 8b 0b             	mov    (%rbx),%rcx
    49d7:	48 8b 44 24 08       	mov    0x8(%rsp),%rax
    49dc:	48 8d 14 01          	lea    (%rcx,%rax,1),%rdx
    49e0:	44 8b 72 04          	mov    0x4(%rdx),%r14d
    49e4:	44 8b 1a             	mov    (%rdx),%r11d
    49e7:	8b 5a 08             	mov    0x8(%rdx),%ebx
    49ea:	8b 42 0c             	mov    0xc(%rdx),%eax
    49ed:	44 8b 6a 10          	mov    0x10(%rdx),%r13d
    49f1:	44 8b 42 14          	mov    0x14(%rdx),%r8d
    49f5:	45 85 f6             	test   %r14d,%r14d
    49f8:	44 8b 52 18          	mov    0x18(%rdx),%r10d
    49fc:	44 8b 4a 1c          	mov    0x1c(%rdx),%r9d
    4a00:	0f 85 ea fe ff ff    	jne    48f0 <_Z17write_block_sizesiR5Table+0x1c0>
    4a06:	44 39 fb             	cmp    %r15d,%ebx
    4a09:	41 bd 00 00 00 00    	mov    $0x0,%r13d
    4a0f:	44 0f 44 6c 24 18    	cmove  0x18(%rsp),%r13d
    4a15:	41 b8 00 00 00 00    	mov    $0x0,%r8d
    4a1b:	45 0f 44 c4          	cmove  %r12d,%r8d
    4a1f:	45 89 c4             	mov    %r8d,%r12d
    4a22:	44 89 6c 24 18       	mov    %r13d,0x18(%rsp)
    4a27:	e9 e4 fe ff ff       	jmp    4910 <_Z17write_block_sizesiR5Table+0x1e0>
    4a2c:	0f 1f 40 00          	nopl   0x0(%rax)
    4a30:	8b 44 24 3c          	mov    0x3c(%rsp),%eax
    4a34:	4c 8b 7c 24 10       	mov    0x10(%rsp),%r15
    4a39:	85 c0                	test   %eax,%eax
    4a3b:	0f 8e 7f 01 00 00    	jle    4bc0 <_Z17write_block_sizesiR5Table+0x490>
    4a41:	8b 44 24 38          	mov    0x38(%rsp),%eax
    4a45:	31 db                	xor    %ebx,%ebx
    4a47:	c7 44 24 18 00 00 00 	movl   $0x80000000,0x18(%rsp)
    4a4e:	80 
    4a4f:	c7 44 24 30 00 00 00 	movl   $0x0,0x30(%rsp)
    4a56:	00 
    4a57:	c7 44 24 38 00 00 00 	movl   $0x0,0x38(%rsp)
    4a5e:	00 
    4a5f:	48 83 c0 01          	add    $0x1,%rax
    4a63:	48 89 44 24 28       	mov    %rax,0x28(%rsp)
    4a68:	e9 bb 00 00 00       	jmp    4b28 <_Z17write_block_sizesiR5Table+0x3f8>
    4a6d:	0f 1f 00             	nopl   (%rax)
    4a70:	41 83 fd 01          	cmp    $0x1,%r13d
    4a74:	75 1a                	jne    4a90 <_Z17write_block_sizesiR5Table+0x360>
    4a76:	8b 74 24 18          	mov    0x18(%rsp),%esi
    4a7a:	8b 7c 24 30          	mov    0x30(%rsp),%edi
    4a7e:	bd 00 00 00 00       	mov    $0x0,%ebp
    4a83:	41 39 f4             	cmp    %esi,%r12d
    4a86:	0f 44 ef             	cmove  %edi,%ebp
    4a89:	89 6c 24 30          	mov    %ebp,0x30(%rsp)
    4a8d:	0f 1f 00             	nopl   (%rax)
    4a90:	45 85 f6             	test   %r14d,%r14d
    4a93:	78 06                	js     4a9b <_Z17write_block_sizesiR5Table+0x36b>
    4a95:	45 39 77 2c          	cmp    %r14d,0x2c(%r15)
    4a99:	7f 58                	jg     4af3 <_Z17write_block_sizesiR5Table+0x3c3>
    4a9b:	48 8d 0d 46 d7 01 00 	lea    0x1d746(%rip),%rcx        # 221e8 <g_dyn_entry_table+0x1e8>
    4aa2:	48 8d 15 51 d8 01 00 	lea    0x1d851(%rip),%rdx        # 222fa <_ZZN8TraceMemIN5Table10TableEntryEE5writeEiS1_E8__func__>
    4aa9:	48 8d 3d 4b d7 01 00 	lea    0x1d74b(%rip),%rdi        # 221fb <g_dyn_entry_table+0x1fb>
    4ab0:	be 48 00 00 00       	mov    $0x48,%esi
    4ab5:	44 89 4c 24 24       	mov    %r9d,0x24(%rsp)
    4aba:	44 89 54 24 20       	mov    %r10d,0x20(%rsp)
    4abf:	44 89 44 24 1c       	mov    %r8d,0x1c(%rsp)
    4ac4:	48 89 44 24 10       	mov    %rax,0x10(%rsp)
    4ac9:	44 89 5c 24 18       	mov    %r11d,0x18(%rsp)
    4ace:	e8 0d 6f 00 00       	call   b9e0 <__assert>
    4ad3:	49 8b 0f             	mov    (%r15),%rcx
    4ad6:	48 8b 44 24 10       	mov    0x10(%rsp),%rax
    4adb:	44 8b 4c 24 24       	mov    0x24(%rsp),%r9d
    4ae0:	44 8b 54 24 20       	mov    0x20(%rsp),%r10d
    4ae5:	44 8b 44 24 1c       	mov    0x1c(%rsp),%r8d
    4aea:	44 8b 5c 24 18       	mov    0x18(%rsp),%r11d
    4aef:	48 8d 14 01          	lea    (%rcx,%rax,1),%rdx
    4af3:	48 83 c3 01          	add    $0x1,%rbx
    4af7:	48 3b 5c 24 28       	cmp    0x28(%rsp),%rbx
    4afc:	8b 44 24 08          	mov    0x8(%rsp),%eax
    4b00:	44 89 6a 04          	mov    %r13d,0x4(%rdx)
    4b04:	44 89 62 08          	mov    %r12d,0x8(%rdx)
    4b08:	44 89 5a 0c          	mov    %r11d,0xc(%rdx)
    4b0c:	44 89 42 10          	mov    %r8d,0x10(%rdx)
    4b10:	89 02                	mov    %eax,(%rdx)
    4b12:	89 6a 14             	mov    %ebp,0x14(%rdx)
    4b15:	44 89 52 18          	mov    %r10d,0x18(%rdx)
    4b19:	44 89 4a 1c          	mov    %r9d,0x1c(%rdx)
    4b1d:	44 89 64 24 18       	mov    %r12d,0x18(%rsp)
    4b22:	0f 84 a0 00 00 00    	je     4bc8 <_Z17write_block_sizesiR5Table+0x498>
    4b28:	85 db                	test   %ebx,%ebx
    4b2a:	41 89 de             	mov    %ebx,%r14d
    4b2d:	78 06                	js     4b35 <_Z17write_block_sizesiR5Table+0x405>
    4b2f:	41 39 5f 2c          	cmp    %ebx,0x2c(%r15)
    4b33:	7f 22                	jg     4b57 <_Z17write_block_sizesiR5Table+0x427>
    4b35:	48 8d 0d ac d6 01 00 	lea    0x1d6ac(%rip),%rcx        # 221e8 <g_dyn_entry_table+0x1e8>
    4b3c:	48 8d 15 bd d7 01 00 	lea    0x1d7bd(%rip),%rdx        # 22300 <_ZZN8TraceMemIN5Table10TableEntryEE4readEiE8__func__>
    4b43:	48 8d 3d b1 d6 01 00 	lea    0x1d6b1(%rip),%rdi        # 221fb <g_dyn_entry_table+0x1fb>
    4b4a:	be 3b 00 00 00       	mov    $0x3b,%esi
    4b4f:	e8 8c 6e 00 00       	call   b9e0 <__assert>
    4b54:	49 8b 0f             	mov    (%r15),%rcx
    4b57:	48 89 d8             	mov    %rbx,%rax
    4b5a:	48 c1 e0 05          	shl    $0x5,%rax
    4b5e:	48 8d 14 01          	lea    (%rcx,%rax,1),%rdx
    4b62:	44 8b 6a 04          	mov    0x4(%rdx),%r13d
    4b66:	8b 3a                	mov    (%rdx),%edi
    4b68:	44 8b 62 08          	mov    0x8(%rdx),%r12d
    4b6c:	44 8b 5a 0c          	mov    0xc(%rdx),%r11d
    4b70:	44 8b 42 10          	mov    0x10(%rdx),%r8d
    4b74:	8b 6a 14             	mov    0x14(%rdx),%ebp
    4b77:	45 85 ed             	test   %r13d,%r13d
    4b7a:	89 7c 24 08          	mov    %edi,0x8(%rsp)
    4b7e:	44 8b 52 18          	mov    0x18(%rdx),%r10d
    4b82:	44 8b 4a 1c          	mov    0x1c(%rdx),%r9d
    4b86:	0f 85 e4 fe ff ff    	jne    4a70 <_Z17write_block_sizesiR5Table+0x340>
    4b8c:	44 3b 64 24 18       	cmp    0x18(%rsp),%r12d
    4b91:	74 1d                	je     4bb0 <_Z17write_block_sizesiR5Table+0x480>
    4b93:	89 ee                	mov    %ebp,%esi
    4b95:	89 6c 24 30          	mov    %ebp,0x30(%rsp)
    4b99:	41 0f af f0          	imul   %r8d,%esi
    4b9d:	01 74 24 38          	add    %esi,0x38(%rsp)
    4ba1:	e9 ea fe ff ff       	jmp    4a90 <_Z17write_block_sizesiR5Table+0x360>
    4ba6:	66 2e 0f 1f 84 00 00 	cs nopw 0x0(%rax,%rax,1)
    4bad:	00 00 00 
    4bb0:	89 6c 24 30          	mov    %ebp,0x30(%rsp)
    4bb4:	e9 d7 fe ff ff       	jmp    4a90 <_Z17write_block_sizesiR5Table+0x360>
    4bb9:	0f 1f 80 00 00 00 00 	nopl   0x0(%rax)
    4bc0:	c7 44 24 38 00 00 00 	movl   $0x0,0x38(%rsp)
    4bc7:	00 
    4bc8:	8b 44 24 38          	mov    0x38(%rsp),%eax
    4bcc:	48 83 c4 48          	add    $0x48,%rsp
    4bd0:	5b                   	pop    %rbx
    4bd1:	5d                   	pop    %rbp
    4bd2:	41 5c                	pop    %r12
    4bd4:	41 5d                	pop    %r13
    4bd6:	41 5e                	pop    %r14
    4bd8:	41 5f                	pop    %r15
    4bda:	c3                   	ret    
    4bdb:	0f 1f 44 00 00       	nopl   0x0(%rax,%rax,1)
    4be0:	44 89 e7             	mov    %r12d,%edi
    4be3:	44 89 6c 24 18       	mov    %r13d,0x18(%rsp)
    4be8:	83 c7 01             	add    $0x1,%edi
    4beb:	41 89 fc             	mov    %edi,%r12d
    4bee:	e9 1d fd ff ff       	jmp    4910 <_Z17write_block_sizesiR5Table+0x1e0>
    4bf3:	66 2e 0f 1f 84 00 00 	cs nopw 0x0(%rax,%rax,1)
    4bfa:	00 00 00 
    4bfd:	0f 1f 00             	nopl   (%rax)

0000000000004c00 <_Z7reversePc>:
    4c00:	53                   	push   %rbx
    4c01:	48 89 fb             	mov    %rdi,%rbx
    4c04:	e8 77 ac 00 00       	call   f880 <strlen>
    4c09:	41 89 c0             	mov    %eax,%r8d
    4c0c:	83 e8 01             	sub    $0x1,%eax
    4c0f:	85 c0                	test   %eax,%eax
    4c11:	7e 30                	jle    4c43 <_Z7reversePc+0x43>
    4c13:	48 98                	cltq   
    4c15:	48 89 df             	mov    %rbx,%rdi
    4c18:	31 d2                	xor    %edx,%edx
    4c1a:	48 01 d8             	add    %rbx,%rax
    4c1d:	0f 1f 00             	nopl   (%rax)
    4c20:	0f b6 0f             	movzbl (%rdi),%ecx
    4c23:	0f b6 30             	movzbl (%rax),%esi
    4c26:	83 c2 01             	add    $0x1,%edx
    4c29:	48 83 c7 01          	add    $0x1,%rdi
    4c2d:	48 83 e8 01          	sub    $0x1,%rax
    4c31:	40 88 77 ff          	mov    %sil,-0x1(%rdi)
    4c35:	88 48 01             	mov    %cl,0x1(%rax)
    4c38:	89 d1                	mov    %edx,%ecx
    4c3a:	f7 d1                	not    %ecx
    4c3c:	44 01 c1             	add    %r8d,%ecx
    4c3f:	39 ca                	cmp    %ecx,%edx
    4c41:	7c dd                	jl     4c20 <_Z7reversePc+0x20>
    4c43:	5b                   	pop    %rbx
    4c44:	c3                   	ret    
    4c45:	66 2e 0f 1f 84 00 00 	cs nopw 0x0(%rax,%rax,1)
    4c4c:	00 00 00 
    4c4f:	90                   	nop

0000000000004c50 <_Z4itoaiPcPi>:
    4c50:	89 f8                	mov    %edi,%eax
    4c52:	53                   	push   %rbx
    4c53:	49 89 f0             	mov    %rsi,%r8
    4c56:	c1 f8 1f             	sar    $0x1f,%eax
    4c59:	48 89 d3             	mov    %rdx,%rbx
    4c5c:	45 31 d2             	xor    %r10d,%r10d
    4c5f:	89 c1                	mov    %eax,%ecx
    4c61:	41 bb 67 66 66 66    	mov    $0x66666667,%r11d
    4c67:	31 f9                	xor    %edi,%ecx
    4c69:	29 c1                	sub    %eax,%ecx
    4c6b:	eb 06                	jmp    4c73 <_Z4itoaiPcPi+0x23>
    4c6d:	0f 1f 00             	nopl   (%rax)
    4c70:	45 89 ca             	mov    %r9d,%r10d
    4c73:	89 c8                	mov    %ecx,%eax
    4c75:	49 83 c0 01          	add    $0x1,%r8
    4c79:	45 8d 4a 01          	lea    0x1(%r10),%r9d
    4c7d:	41 f7 eb             	imul   %r11d
    4c80:	89 c8                	mov    %ecx,%eax
    4c82:	c1 f8 1f             	sar    $0x1f,%eax
    4c85:	c1 fa 02             	sar    $0x2,%edx
    4c88:	29 c2                	sub    %eax,%edx
    4c8a:	8d 04 92             	lea    (%rdx,%rdx,4),%eax
    4c8d:	01 c0                	add    %eax,%eax
    4c8f:	29 c1                	sub    %eax,%ecx
    4c91:	83 c1 30             	add    $0x30,%ecx
    4c94:	41 88 48 ff          	mov    %cl,-0x1(%r8)
    4c98:	85 d2                	test   %edx,%edx
    4c9a:	89 d1                	mov    %edx,%ecx
    4c9c:	75 d2                	jne    4c70 <_Z4itoaiPcPi+0x20>
    4c9e:	85 ff                	test   %edi,%edi
    4ca0:	79 0c                	jns    4cae <_Z4itoaiPcPi+0x5e>
    4ca2:	4d 63 c9             	movslq %r9d,%r9
    4ca5:	42 c6 04 0e 2d       	movb   $0x2d,(%rsi,%r9,1)
    4caa:	45 8d 4a 02          	lea    0x2(%r10),%r9d
    4cae:	49 63 c1             	movslq %r9d,%rax
    4cb1:	48 89 f7             	mov    %rsi,%rdi
    4cb4:	c6 04 06 00          	movb   $0x0,(%rsi,%rax,1)
    4cb8:	44 89 0b             	mov    %r9d,(%rbx)
    4cbb:	5b                   	pop    %rbx
    4cbc:	e9 3f ff ff ff       	jmp    4c00 <_Z7reversePc>
    4cc1:	66 2e 0f 1f 84 00 00 	cs nopw 0x0(%rax,%rax,1)
    4cc8:	00 00 00 
    4ccb:	0f 1f 44 00 00       	nopl   0x0(%rax,%rax,1)

0000000000004cd0 <_Z11parseTablesPcRiS0_>:
    4cd0:	41 57                	push   %r15
    4cd2:	41 56                	push   %r14
    4cd4:	49 89 cf             	mov    %rcx,%r15
    4cd7:	41 55                	push   %r13
    4cd9:	41 54                	push   %r12
    4cdb:	49 89 fc             	mov    %rdi,%r12
    4cde:	55                   	push   %rbp
    4cdf:	53                   	push   %rbx
    4ce0:	48 89 f7             	mov    %rsi,%rdi
    4ce3:	48 8d 35 25 d5 01 00 	lea    0x1d525(%rip),%rsi        # 2220f <g_dyn_entry_table+0x20f>
    4cea:	49 89 d5             	mov    %rdx,%r13
    4ced:	48 83 ec 28          	sub    $0x28,%rsp
    4cf1:	e8 ba ac 00 00       	call   f9b0 <strtok>
    4cf6:	48 89 c7             	mov    %rax,%rdi
    4cf9:	e8 22 70 00 00       	call   bd20 <atoi>
    4cfe:	48 8d 35 b9 d5 01 00 	lea    0x1d5b9(%rip),%rsi        # 222be <g_dyn_entry_table+0x2be>
    4d05:	31 ff                	xor    %edi,%edi
    4d07:	41 89 45 00          	mov    %eax,0x0(%r13)
    4d0b:	e8 a0 ac 00 00       	call   f9b0 <strtok>
    4d10:	48 89 c7             	mov    %rax,%rdi
    4d13:	e8 08 70 00 00       	call   bd20 <atoi>
    4d18:	41 89 07             	mov    %eax,(%r15)
    4d1b:	41 03 45 00          	add    0x0(%r13),%eax
    4d1f:	be 20 00 00 00       	mov    $0x20,%esi
    4d24:	8b 15 d6 75 02 00    	mov    0x275d6(%rip),%edx        # 2c300 <_ZN8TraceMemIN5Table10TableEntryEE5countE>
    4d2a:	49 c7 44 24 08 00 00 	movq   $0x0,0x8(%r12)
    4d31:	00 00 
    4d33:	49 c7 44 24 10 00 00 	movq   $0x0,0x10(%r12)
    4d3a:	00 00 
    4d3c:	49 c7 44 24 18 00 00 	movq   $0x0,0x18(%r12)
    4d43:	00 00 
    4d45:	49 c7 44 24 20 00 00 	movq   $0x0,0x20(%r12)
    4d4c:	00 00 
    4d4e:	8d 4a 01             	lea    0x1(%rdx),%ecx
    4d51:	41 89 54 24 28       	mov    %edx,0x28(%r12)
    4d56:	41 89 44 24 2c       	mov    %eax,0x2c(%r12)
    4d5b:	48 63 f8             	movslq %eax,%rdi
    4d5e:	89 0d 9c 75 02 00    	mov    %ecx,0x2759c(%rip)        # 2c300 <_ZN8TraceMemIN5Table10TableEntryEE5countE>
    4d64:	e8 87 9c 00 00       	call   e9f0 <calloc>
    4d69:	49 89 04 24          	mov    %rax,(%r12)
    4d6d:	41 8b 07             	mov    (%r15),%eax
    4d70:	41 03 45 00          	add    0x0(%r13),%eax
    4d74:	85 c0                	test   %eax,%eax
    4d76:	0f 8e 54 01 00 00    	jle    4ed0 <_Z11parseTablesPcRiS0_+0x200>
    4d7c:	31 ed                	xor    %ebp,%ebp
    4d7e:	31 db                	xor    %ebx,%ebx
    4d80:	e9 cd 00 00 00       	jmp    4e52 <_Z11parseTablesPcRiS0_+0x182>
    4d85:	0f 1f 00             	nopl   (%rax)
    4d88:	48 8d 0d 59 d4 01 00 	lea    0x1d459(%rip),%rcx        # 221e8 <g_dyn_entry_table+0x1e8>
    4d8f:	48 8d 15 6a d5 01 00 	lea    0x1d56a(%rip),%rdx        # 22300 <_ZZN8TraceMemIN5Table10TableEntryEE4readEiE8__func__>
    4d96:	48 8d 3d 5e d4 01 00 	lea    0x1d45e(%rip),%rdi        # 221fb <g_dyn_entry_table+0x1fb>
    4d9d:	be 3b 00 00 00       	mov    $0x3b,%esi
    4da2:	e8 39 6c 00 00       	call   b9e0 <__assert>
    4da7:	48 89 e8             	mov    %rbp,%rax
    4daa:	49 03 04 24          	add    (%r12),%rax
    4dae:	8b 50 14             	mov    0x14(%rax),%edx
    4db1:	8b 70 10             	mov    0x10(%rax),%esi
    4db4:	8b 78 18             	mov    0x18(%rax),%edi
    4db7:	89 54 24 14          	mov    %edx,0x14(%rsp)
    4dbb:	31 d2                	xor    %edx,%edx
    4dbd:	41 39 5d 00          	cmp    %ebx,0x0(%r13)
    4dc1:	89 74 24 0c          	mov    %esi,0xc(%rsp)
    4dc5:	8b 70 1c             	mov    0x1c(%rax),%esi
    4dc8:	89 7c 24 18          	mov    %edi,0x18(%rsp)
    4dcc:	0f 9e c2             	setle  %dl
    4dcf:	85 db                	test   %ebx,%ebx
    4dd1:	89 74 24 1c          	mov    %esi,0x1c(%rsp)
    4dd5:	89 54 24 10          	mov    %edx,0x10(%rsp)
    4dd9:	78 07                	js     4de2 <_Z11parseTablesPcRiS0_+0x112>
    4ddb:	41 39 5c 24 2c       	cmp    %ebx,0x2c(%r12)
    4de0:	7f 26                	jg     4e08 <_Z11parseTablesPcRiS0_+0x138>
    4de2:	48 8d 0d ff d3 01 00 	lea    0x1d3ff(%rip),%rcx        # 221e8 <g_dyn_entry_table+0x1e8>
    4de9:	48 8d 15 0a d5 01 00 	lea    0x1d50a(%rip),%rdx        # 222fa <_ZZN8TraceMemIN5Table10TableEntryEE5writeEiS1_E8__func__>
    4df0:	48 8d 3d 04 d4 01 00 	lea    0x1d404(%rip),%rdi        # 221fb <g_dyn_entry_table+0x1fb>
    4df7:	be 48 00 00 00       	mov    $0x48,%esi
    4dfc:	e8 df 6b 00 00       	call   b9e0 <__assert>
    4e01:	48 89 e8             	mov    %rbp,%rax
    4e04:	49 03 04 24          	add    (%r12),%rax
    4e08:	8b 4c 24 10          	mov    0x10(%rsp),%ecx
    4e0c:	8b 54 24 08          	mov    0x8(%rsp),%edx
    4e10:	83 c3 01             	add    $0x1,%ebx
    4e13:	8b 74 24 14          	mov    0x14(%rsp),%esi
    4e17:	c7 00 01 00 00 00    	movl   $0x1,(%rax)
    4e1d:	48 83 c5 20          	add    $0x20,%rbp
    4e21:	44 89 70 0c          	mov    %r14d,0xc(%rax)
    4e25:	89 48 04             	mov    %ecx,0x4(%rax)
    4e28:	8b 4c 24 0c          	mov    0xc(%rsp),%ecx
    4e2c:	89 50 08             	mov    %edx,0x8(%rax)
    4e2f:	8b 54 24 18          	mov    0x18(%rsp),%edx
    4e33:	89 70 14             	mov    %esi,0x14(%rax)
    4e36:	89 48 10             	mov    %ecx,0x10(%rax)
    4e39:	8b 4c 24 1c          	mov    0x1c(%rsp),%ecx
    4e3d:	89 50 18             	mov    %edx,0x18(%rax)
    4e40:	89 48 1c             	mov    %ecx,0x1c(%rax)
    4e43:	41 8b 07             	mov    (%r15),%eax
    4e46:	41 03 45 00          	add    0x0(%r13),%eax
    4e4a:	39 d8                	cmp    %ebx,%eax
    4e4c:	0f 8e 7e 00 00 00    	jle    4ed0 <_Z11parseTablesPcRiS0_+0x200>
    4e52:	48 8d 35 b6 d3 01 00 	lea    0x1d3b6(%rip),%rsi        # 2220f <g_dyn_entry_table+0x20f>
    4e59:	31 ff                	xor    %edi,%edi
    4e5b:	e8 50 ab 00 00       	call   f9b0 <strtok>
    4e60:	48 89 c7             	mov    %rax,%rdi
    4e63:	e8 b8 6e 00 00       	call   bd20 <atoi>
    4e68:	48 8d 35 4f d4 01 00 	lea    0x1d44f(%rip),%rsi        # 222be <g_dyn_entry_table+0x2be>
    4e6f:	31 ff                	xor    %edi,%edi
    4e71:	89 44 24 08          	mov    %eax,0x8(%rsp)
    4e75:	e8 36 ab 00 00       	call   f9b0 <strtok>
    4e7a:	48 89 c7             	mov    %rax,%rdi
    4e7d:	e8 9e 6e 00 00       	call   bd20 <atoi>
    4e82:	85 db                	test   %ebx,%ebx
    4e84:	41 89 c6             	mov    %eax,%r14d
    4e87:	0f 88 fb fe ff ff    	js     4d88 <_Z11parseTablesPcRiS0_+0xb8>
    4e8d:	41 39 5c 24 2c       	cmp    %ebx,0x2c(%r12)
    4e92:	0f 8e f0 fe ff ff    	jle    4d88 <_Z11parseTablesPcRiS0_+0xb8>
    4e98:	48 89 e8             	mov    %rbp,%rax
    4e9b:	49 03 04 24          	add    (%r12),%rax
    4e9f:	8b 48 14             	mov    0x14(%rax),%ecx
    4ea2:	8b 78 10             	mov    0x10(%rax),%edi
    4ea5:	8b 70 1c             	mov    0x1c(%rax),%esi
    4ea8:	89 4c 24 14          	mov    %ecx,0x14(%rsp)
    4eac:	31 c9                	xor    %ecx,%ecx
    4eae:	41 39 5d 00          	cmp    %ebx,0x0(%r13)
    4eb2:	89 7c 24 0c          	mov    %edi,0xc(%rsp)
    4eb6:	8b 78 18             	mov    0x18(%rax),%edi
    4eb9:	89 74 24 1c          	mov    %esi,0x1c(%rsp)
    4ebd:	0f 9e c1             	setle  %cl
    4ec0:	89 7c 24 18          	mov    %edi,0x18(%rsp)
    4ec4:	89 4c 24 10          	mov    %ecx,0x10(%rsp)
    4ec8:	e9 3b ff ff ff       	jmp    4e08 <_Z11parseTablesPcRiS0_+0x138>
    4ecd:	0f 1f 00             	nopl   (%rax)
    4ed0:	48 83 c4 28          	add    $0x28,%rsp
    4ed4:	4c 89 e0             	mov    %r12,%rax
    4ed7:	5b                   	pop    %rbx
    4ed8:	5d                   	pop    %rbp
    4ed9:	41 5c                	pop    %r12
    4edb:	41 5d                	pop    %r13
    4edd:	41 5e                	pop    %r14
    4edf:	41 5f                	pop    %r15
    4ee1:	c3                   	ret    
    4ee2:	49 8b 7c 24 10       	mov    0x10(%r12),%rdi
    4ee7:	48 89 c3             	mov    %rax,%rbx
    4eea:	48 85 ff             	test   %rdi,%rdi
    4eed:	74 25                	je     4f14 <_Z11parseTablesPcRiS0_+0x244>
    4eef:	49 8b 44 24 18       	mov    0x18(%r12),%rax
    4ef4:	48 39 c7             	cmp    %rax,%rdi
    4ef7:	74 16                	je     4f0f <_Z11parseTablesPcRiS0_+0x23f>
    4ef9:	48 8d 50 f8          	lea    -0x8(%rax),%rdx
    4efd:	48 29 fa             	sub    %rdi,%rdx
    4f00:	48 f7 d2             	not    %rdx
    4f03:	48 83 e2 f8          	and    $0xfffffffffffffff8,%rdx
    4f07:	48 01 c2             	add    %rax,%rdx
    4f0a:	49 89 54 24 18       	mov    %rdx,0x18(%r12)
    4f0f:	e8 0c 81 01 00       	call   1d020 <_ZdlPv>
    4f14:	48 89 df             	mov    %rbx,%rdi
    4f17:	e8 e4 44 01 00       	call   19400 <_Unwind_Resume>
    4f1c:	0f 1f 40 00          	nopl   0x0(%rax)

0000000000004f20 <_Z8toStringPc5TableS0_>:
    4f20:	41 57                	push   %r15
    4f22:	41 56                	push   %r14
    4f24:	41 55                	push   %r13
    4f26:	41 54                	push   %r12
    4f28:	55                   	push   %rbp
    4f29:	53                   	push   %rbx
    4f2a:	48 89 fb             	mov    %rdi,%rbx
    4f2d:	48 83 ec 68          	sub    $0x68,%rsp
    4f31:	64 48 8b 04 25 28 00 	mov    %fs:0x28,%rax
    4f38:	00 00 
    4f3a:	48 89 44 24 58       	mov    %rax,0x58(%rsp)
    4f3f:	31 c0                	xor    %eax,%eax
    4f41:	8b 46 2c             	mov    0x2c(%rsi),%eax
    4f44:	85 c0                	test   %eax,%eax
    4f46:	89 44 24 0c          	mov    %eax,0xc(%rsp)
    4f4a:	0f 8e 30 01 00 00    	jle    5080 <_Z8toStringPc5TableS0_+0x160>
    4f50:	48 8d 44 24 28       	lea    0x28(%rsp),%rax
    4f55:	49 89 f5             	mov    %rsi,%r13
    4f58:	49 89 d7             	mov    %rdx,%r15
    4f5b:	31 ed                	xor    %ebp,%ebp
    4f5d:	4c 8d 64 24 30       	lea    0x30(%rsp),%r12
    4f62:	48 89 44 24 10       	mov    %rax,0x10(%rsp)
    4f67:	48 8d 44 24 2c       	lea    0x2c(%rsp),%rax
    4f6c:	48 89 44 24 18       	mov    %rax,0x18(%rsp)
    4f71:	48 8d 44 24 40       	lea    0x40(%rsp),%rax
    4f76:	48 89 04 24          	mov    %rax,(%rsp)
    4f7a:	e9 d7 00 00 00       	jmp    5056 <_Z8toStringPc5TableS0_+0x136>
    4f7f:	90                   	nop
    4f80:	48 8d 15 79 d3 01 00 	lea    0x1d379(%rip),%rdx        # 22300 <_ZZN8TraceMemIN5Table10TableEntryEE4readEiE8__func__>
    4f87:	48 8d 0d 5a d2 01 00 	lea    0x1d25a(%rip),%rcx        # 221e8 <g_dyn_entry_table+0x1e8>
    4f8e:	48 8d 3d 66 d2 01 00 	lea    0x1d266(%rip),%rdi        # 221fb <g_dyn_entry_table+0x1fb>
    4f95:	be 3b 00 00 00       	mov    $0x3b,%esi
    4f9a:	89 6c 24 08          	mov    %ebp,0x8(%rsp)
    4f9e:	49 89 ee             	mov    %rbp,%r14
    4fa1:	e8 3a 6a 00 00       	call   b9e0 <__assert>
    4fa6:	49 8b 55 00          	mov    0x0(%r13),%rdx
    4faa:	49 c1 e6 05          	shl    $0x5,%r14
    4fae:	8b 44 24 08          	mov    0x8(%rsp),%eax
    4fb2:	46 8b 4c 32 0c       	mov    0xc(%rdx,%r14,1),%r9d
    4fb7:	41 39 47 2c          	cmp    %eax,0x2c(%r15)
    4fbb:	7f 29                	jg     4fe6 <_Z8toStringPc5TableS0_+0xc6>
    4fbd:	48 8d 0d 24 d2 01 00 	lea    0x1d224(%rip),%rcx        # 221e8 <g_dyn_entry_table+0x1e8>
    4fc4:	48 8d 15 35 d3 01 00 	lea    0x1d335(%rip),%rdx        # 22300 <_ZZN8TraceMemIN5Table10TableEntryEE4readEiE8__func__>
    4fcb:	48 8d 3d 29 d2 01 00 	lea    0x1d229(%rip),%rdi        # 221fb <g_dyn_entry_table+0x1fb>
    4fd2:	be 3b 00 00 00       	mov    $0x3b,%esi
    4fd7:	44 89 4c 24 08       	mov    %r9d,0x8(%rsp)
    4fdc:	e8 ff 69 00 00       	call   b9e0 <__assert>
    4fe1:	44 8b 4c 24 08       	mov    0x8(%rsp),%r9d
    4fe6:	49 8b 07             	mov    (%r15),%rax
    4fe9:	48 8b 54 24 10       	mov    0x10(%rsp),%rdx
    4fee:	44 89 cf             	mov    %r9d,%edi
    4ff1:	4c 89 e6             	mov    %r12,%rsi
    4ff4:	48 83 c5 01          	add    $0x1,%rbp
    4ff8:	46 8b 74 30 0c       	mov    0xc(%rax,%r14,1),%r14d
    4ffd:	e8 4e fc ff ff       	call   4c50 <_Z4itoaiPcPi>
    5002:	48 8b 54 24 18       	mov    0x18(%rsp),%rdx
    5007:	48 8b 34 24          	mov    (%rsp),%rsi
    500b:	44 89 f7             	mov    %r14d,%edi
    500e:	e8 3d fc ff ff       	call   4c50 <_Z4itoaiPcPi>
    5013:	4c 63 74 24 28       	movslq 0x28(%rsp),%r14
    5018:	48 89 df             	mov    %rbx,%rdi
    501b:	4c 89 e6             	mov    %r12,%rsi
    501e:	4c 89 f2             	mov    %r14,%rdx
    5021:	4c 01 f3             	add    %r14,%rbx
    5024:	e8 67 a8 00 00       	call   f890 <strncpy>
    5029:	4c 63 74 24 2c       	movslq 0x2c(%rsp),%r14
    502e:	48 8b 34 24          	mov    (%rsp),%rsi
    5032:	48 83 c3 01          	add    $0x1,%rbx
    5036:	c6 43 ff 20          	movb   $0x20,-0x1(%rbx)
    503a:	48 89 df             	mov    %rbx,%rdi
    503d:	4c 89 f2             	mov    %r14,%rdx
    5040:	4c 01 f3             	add    %r14,%rbx
    5043:	e8 48 a8 00 00       	call   f890 <strncpy>
    5048:	48 83 c3 01          	add    $0x1,%rbx
    504c:	c6 43 ff 0a          	movb   $0xa,-0x1(%rbx)
    5050:	39 6c 24 0c          	cmp    %ebp,0xc(%rsp)
    5054:	7e 2a                	jle    5080 <_Z8toStringPc5TableS0_+0x160>
    5056:	41 39 6d 2c          	cmp    %ebp,0x2c(%r13)
    505a:	89 e8                	mov    %ebp,%eax
    505c:	0f 8e 1e ff ff ff    	jle    4f80 <_Z8toStringPc5TableS0_+0x60>
    5062:	49 8b 55 00          	mov    0x0(%r13),%rdx
    5066:	49 89 ee             	mov    %rbp,%r14
    5069:	49 c1 e6 05          	shl    $0x5,%r14
    506d:	46 8b 4c 32 0c       	mov    0xc(%rdx,%r14,1),%r9d
    5072:	e9 40 ff ff ff       	jmp    4fb7 <_Z8toStringPc5TableS0_+0x97>
    5077:	66 0f 1f 84 00 00 00 	nopw   0x0(%rax,%rax,1)
    507e:	00 00 
    5080:	48 8b 44 24 58       	mov    0x58(%rsp),%rax
    5085:	64 48 33 04 25 28 00 	xor    %fs:0x28,%rax
    508c:	00 00 
    508e:	c6 03 00             	movb   $0x0,(%rbx)
    5091:	75 0f                	jne    50a2 <_Z8toStringPc5TableS0_+0x182>
    5093:	48 83 c4 68          	add    $0x68,%rsp
    5097:	5b                   	pop    %rbx
    5098:	5d                   	pop    %rbp
    5099:	41 5c                	pop    %r12
    509b:	41 5d                	pop    %r13
    509d:	41 5e                	pop    %r14
    509f:	41 5f                	pop    %r15
    50a1:	c3                   	ret    
    50a2:	e8 19 a9 00 00       	call   f9c0 <__stack_chk_fail>
    50a7:	66 0f 1f 84 00 00 00 	nopw   0x0(%rax,%rax,1)
    50ae:	00 00 

00000000000050b0 <printf>:
    50b0:	53                   	push   %rbx
    50b1:	49 89 fa             	mov    %rdi,%r10
    50b4:	48 81 ec e0 20 00 00 	sub    $0x20e0,%rsp
    50bb:	84 c0                	test   %al,%al
    50bd:	48 89 b4 24 38 20 00 	mov    %rsi,0x2038(%rsp)
    50c4:	00 
    50c5:	48 89 94 24 40 20 00 	mov    %rdx,0x2040(%rsp)
    50cc:	00 
    50cd:	48 89 8c 24 48 20 00 	mov    %rcx,0x2048(%rsp)
    50d4:	00 
    50d5:	4c 89 84 24 50 20 00 	mov    %r8,0x2050(%rsp)
    50dc:	00 
    50dd:	4c 89 8c 24 58 20 00 	mov    %r9,0x2058(%rsp)
    50e4:	00 
    50e5:	74 40                	je     5127 <printf+0x77>
    50e7:	0f 29 84 24 60 20 00 	movaps %xmm0,0x2060(%rsp)
    50ee:	00 
    50ef:	0f 29 8c 24 70 20 00 	movaps %xmm1,0x2070(%rsp)
    50f6:	00 
    50f7:	0f 29 94 24 80 20 00 	movaps %xmm2,0x2080(%rsp)
    50fe:	00 
    50ff:	0f 29 9c 24 90 20 00 	movaps %xmm3,0x2090(%rsp)
    5106:	00 
    5107:	0f 29 a4 24 a0 20 00 	movaps %xmm4,0x20a0(%rsp)
    510e:	00 
    510f:	0f 29 ac 24 b0 20 00 	movaps %xmm5,0x20b0(%rsp)
    5116:	00 
    5117:	0f 29 b4 24 c0 20 00 	movaps %xmm6,0x20c0(%rsp)
    511e:	00 
    511f:	0f 29 bc 24 d0 20 00 	movaps %xmm7,0x20d0(%rsp)
    5126:	00 
    5127:	64 48 8b 04 25 28 00 	mov    %fs:0x28,%rax
    512e:	00 00 
    5130:	48 89 84 24 28 20 00 	mov    %rax,0x2028(%rsp)
    5137:	00 
    5138:	31 c0                	xor    %eax,%eax
    513a:	48 8d 7c 24 20       	lea    0x20(%rsp),%rdi
    513f:	b9 00 04 00 00       	mov    $0x400,%ecx
    5144:	48 8d 5c 24 20       	lea    0x20(%rsp),%rbx
    5149:	4c 89 d2             	mov    %r10,%rdx
    514c:	be 00 20 00 00       	mov    $0x2000,%esi
    5151:	f3 48 ab             	rep stos %rax,%es:(%rdi)
    5154:	48 8d 84 24 f0 20 00 	lea    0x20f0(%rsp),%rax
    515b:	00 
    515c:	48 8d 4c 24 08       	lea    0x8(%rsp),%rcx
    5161:	48 89 df             	mov    %rbx,%rdi
    5164:	c7 44 24 08 08 00 00 	movl   $0x8,0x8(%rsp)
    516b:	00 
    516c:	c7 44 24 0c 30 00 00 	movl   $0x30,0xc(%rsp)
    5173:	00 
    5174:	48 89 44 24 10       	mov    %rax,0x10(%rsp)
    5179:	48 8d 84 24 30 20 00 	lea    0x2030(%rsp),%rax
    5180:	00 
    5181:	48 89 44 24 18       	mov    %rax,0x18(%rsp)
    5186:	e8 b5 6a 00 00       	call   bc40 <vsnprintf>
    518b:	48 89 df             	mov    %rbx,%rdi
    518e:	e8 dd e9 ff ff       	call   3b70 <ocall_print_string>
    5193:	48 8b 84 24 28 20 00 	mov    0x2028(%rsp),%rax
    519a:	00 
    519b:	64 48 33 04 25 28 00 	xor    %fs:0x28,%rax
    51a2:	00 00 
    51a4:	75 09                	jne    51af <printf+0xff>
    51a6:	48 81 c4 e0 20 00 00 	add    $0x20e0,%rsp
    51ad:	5b                   	pop    %rbx
    51ae:	c3                   	ret    
    51af:	e8 0c a8 00 00       	call   f9c0 <__stack_chk_fail>
    51b4:	66 2e 0f 1f 84 00 00 	cs nopw 0x0(%rax,%rax,1)
    51bb:	00 00 00 
    51be:	66 90                	xchg   %ax,%ax

00000000000051c0 <_ZNSt3__16vectorIN8TraceMemIN5Table10TableEntryEE8LogEntryENS_9allocatorIS5_EEEC1ERKS8_>:
    51c0:	41 54                	push   %r12
    51c2:	55                   	push   %rbp
    51c3:	53                   	push   %rbx
    51c4:	48 c7 07 00 00 00 00 	movq   $0x0,(%rdi)
    51cb:	48 c7 47 08 00 00 00 	movq   $0x0,0x8(%rdi)
    51d2:	00 
    51d3:	48 8b 5e 08          	mov    0x8(%rsi),%rbx
    51d7:	48 2b 1e             	sub    (%rsi),%rbx
    51da:	48 c7 47 10 00 00 00 	movq   $0x0,0x10(%rdi)
    51e1:	00 
    51e2:	48 89 d8             	mov    %rbx,%rax
    51e5:	48 c1 f8 03          	sar    $0x3,%rax
    51e9:	48 85 c0             	test   %rax,%rax
    51ec:	75 0a                	jne    51f8 <_ZNSt3__16vectorIN8TraceMemIN5Table10TableEntryEE8LogEntryENS_9allocatorIS5_EEEC1ERKS8_+0x38>
    51ee:	5b                   	pop    %rbx
    51ef:	5d                   	pop    %rbp
    51f0:	41 5c                	pop    %r12
    51f2:	c3                   	ret    
    51f3:	0f 1f 44 00 00       	nopl   0x0(%rax,%rax,1)
    51f8:	48 ba ff ff ff ff ff 	movabs $0x1fffffffffffffff,%rdx
    51ff:	ff ff 1f 
    5202:	49 89 f4             	mov    %rsi,%r12
    5205:	48 89 fd             	mov    %rdi,%rbp
    5208:	48 39 d0             	cmp    %rdx,%rax
    520b:	77 43                	ja     5250 <_ZNSt3__16vectorIN8TraceMemIN5Table10TableEntryEE8LogEntryENS_9allocatorIS5_EEEC1ERKS8_+0x90>
    520d:	48 89 df             	mov    %rbx,%rdi
    5210:	e8 3b 7e 01 00       	call   1d050 <_Znwm>
    5215:	48 01 c3             	add    %rax,%rbx
    5218:	48 89 45 08          	mov    %rax,0x8(%rbp)
    521c:	48 89 45 00          	mov    %rax,0x0(%rbp)
    5220:	48 89 5d 10          	mov    %rbx,0x10(%rbp)
    5224:	49 8b 34 24          	mov    (%r12),%rsi
    5228:	48 89 c1             	mov    %rax,%rcx
    522b:	49 8b 5c 24 08       	mov    0x8(%r12),%rbx
    5230:	48 29 f3             	sub    %rsi,%rbx
    5233:	48 83 fb 07          	cmp    $0x7,%rbx
    5237:	7e b5                	jle    51ee <_ZNSt3__16vectorIN8TraceMemIN5Table10TableEntryEE8LogEntryENS_9allocatorIS5_EEEC1ERKS8_+0x2e>
    5239:	48 89 da             	mov    %rbx,%rdx
    523c:	48 89 cf             	mov    %rcx,%rdi
    523f:	e8 ec a3 00 00       	call   f630 <memcpy>
    5244:	48 01 c3             	add    %rax,%rbx
    5247:	48 89 5d 08          	mov    %rbx,0x8(%rbp)
    524b:	5b                   	pop    %rbx
    524c:	5d                   	pop    %rbp
    524d:	41 5c                	pop    %r12
    524f:	c3                   	ret    
    5250:	e8 b9 ce ff ff       	call   210e <_ZNKSt3__120__vector_base_commonILb1EE20__throw_length_errorEv>
    5255:	bf 08 00 00 00       	mov    $0x8,%edi
    525a:	e8 91 75 01 00       	call   1c7f0 <__cxa_allocate_exception>
    525f:	48 89 c7             	mov    %rax,%rdi
    5262:	48 89 c3             	mov    %rax,%rbx
    5265:	e8 26 7d 01 00       	call   1cf90 <_ZNSt9bad_allocC1Ev>
    526a:	48 8d 15 cf 7c 01 00 	lea    0x17ccf(%rip),%rdx        # 1cf40 <_ZNSt9bad_allocD1Ev>
    5271:	48 8d 35 f8 6a 02 00 	lea    0x26af8(%rip),%rsi        # 2bd70 <_ZTISt9bad_alloc>
    5278:	48 89 df             	mov    %rbx,%rdi
    527b:	e8 70 76 01 00       	call   1c8f0 <__cxa_throw>
    5280:	48 89 c3             	mov    %rax,%rbx
    5283:	48 8b 7d 00          	mov    0x0(%rbp),%rdi
    5287:	48 85 ff             	test   %rdi,%rdi
    528a:	74 18                	je     52a4 <_ZNSt3__16vectorIN8TraceMemIN5Table10TableEntryEE8LogEntryENS_9allocatorIS5_EEEC1ERKS8_+0xe4>
    528c:	48 8b 55 08          	mov    0x8(%rbp),%rdx
    5290:	48 39 d7             	cmp    %rdx,%rdi
    5293:	74 0a                	je     529f <_ZNSt3__16vectorIN8TraceMemIN5Table10TableEntryEE8LogEntryENS_9allocatorIS5_EEEC1ERKS8_+0xdf>
    5295:	48 83 ea 08          	sub    $0x8,%rdx
    5299:	48 89 55 08          	mov    %rdx,0x8(%rbp)
    529d:	eb ed                	jmp    528c <_ZNSt3__16vectorIN8TraceMemIN5Table10TableEntryEE8LogEntryENS_9allocatorIS5_EEEC1ERKS8_+0xcc>
    529f:	e8 7c 7d 01 00       	call   1d020 <_ZdlPv>
    52a4:	48 89 df             	mov    %rbx,%rdi
    52a7:	e8 54 41 01 00       	call   19400 <_Unwind_Resume>
    52ac:	0f 1f 40 00          	nopl   0x0(%rax)

00000000000052b0 <_Z15bitonic_compareIN5Table10TableEntryEXadL_ZNS0_9attr_compES1_S1_EEEvP8TraceMemIT_Ebii>:
    52b0:	41 57                	push   %r15
    52b2:	41 56                	push   %r14
    52b4:	49 89 ff             	mov    %rdi,%r15
    52b7:	41 55                	push   %r13
    52b9:	41 54                	push   %r12
    52bb:	41 89 d3             	mov    %edx,%r11d
    52be:	55                   	push   %rbp
    52bf:	53                   	push   %rbx
    52c0:	41 89 cc             	mov    %ecx,%r12d
    52c3:	48 83 ec 48          	sub    $0x48,%rsp
    52c7:	85 d2                	test   %edx,%edx
    52c9:	89 74 24 0c          	mov    %esi,0xc(%rsp)
    52cd:	78 05                	js     52d4 <_Z15bitonic_compareIN5Table10TableEntryEXadL_ZNS0_9attr_compES1_S1_EEEvP8TraceMemIT_Ebii+0x24>
    52cf:	3b 57 2c             	cmp    0x2c(%rdi),%edx
    52d2:	7c 29                	jl     52fd <_Z15bitonic_compareIN5Table10TableEntryEXadL_ZNS0_9attr_compES1_S1_EEEvP8TraceMemIT_Ebii+0x4d>
    52d4:	48 8d 0d 0d cf 01 00 	lea    0x1cf0d(%rip),%rcx        # 221e8 <g_dyn_entry_table+0x1e8>
    52db:	48 8d 15 1e d0 01 00 	lea    0x1d01e(%rip),%rdx        # 22300 <_ZZN8TraceMemIN5Table10TableEntryEE4readEiE8__func__>
    52e2:	48 8d 3d 12 cf 01 00 	lea    0x1cf12(%rip),%rdi        # 221fb <g_dyn_entry_table+0x1fb>
    52e9:	be 3b 00 00 00       	mov    $0x3b,%esi
    52ee:	44 89 5c 24 04       	mov    %r11d,0x4(%rsp)
    52f3:	e8 e8 66 00 00       	call   b9e0 <__assert>
    52f8:	44 8b 5c 24 04       	mov    0x4(%rsp),%r11d
    52fd:	49 8b 0f             	mov    (%r15),%rcx
    5300:	49 63 db             	movslq %r11d,%rbx
    5303:	48 c1 e3 05          	shl    $0x5,%rbx
    5307:	45 85 e4             	test   %r12d,%r12d
    530a:	48 8d 14 19          	lea    (%rcx,%rbx,1),%rdx
    530e:	8b 02                	mov    (%rdx),%eax
    5310:	44 8b 6a 08          	mov    0x8(%rdx),%r13d
    5314:	89 44 24 10          	mov    %eax,0x10(%rsp)
    5318:	8b 42 04             	mov    0x4(%rdx),%eax
    531b:	89 44 24 04          	mov    %eax,0x4(%rsp)
    531f:	8b 42 0c             	mov    0xc(%rdx),%eax
    5322:	89 44 24 38          	mov    %eax,0x38(%rsp)
    5326:	8b 42 10             	mov    0x10(%rdx),%eax
    5329:	89 44 24 34          	mov    %eax,0x34(%rsp)
    532d:	8b 42 14             	mov    0x14(%rdx),%eax
    5330:	89 44 24 30          	mov    %eax,0x30(%rsp)
    5334:	8b 42 18             	mov    0x18(%rdx),%eax
    5337:	89 44 24 2c          	mov    %eax,0x2c(%rsp)
    533b:	8b 42 1c             	mov    0x1c(%rdx),%eax
    533e:	89 44 24 28          	mov    %eax,0x28(%rsp)
    5342:	78 06                	js     534a <_Z15bitonic_compareIN5Table10TableEntryEXadL_ZNS0_9attr_compES1_S1_EEEvP8TraceMemIT_Ebii+0x9a>
    5344:	45 3b 67 2c          	cmp    0x2c(%r15),%r12d
    5348:	7c 2c                	jl     5376 <_Z15bitonic_compareIN5Table10TableEntryEXadL_ZNS0_9attr_compES1_S1_EEEvP8TraceMemIT_Ebii+0xc6>
    534a:	48 8d 0d 97 ce 01 00 	lea    0x1ce97(%rip),%rcx        # 221e8 <g_dyn_entry_table+0x1e8>
    5351:	48 8d 15 a8 cf 01 00 	lea    0x1cfa8(%rip),%rdx        # 22300 <_ZZN8TraceMemIN5Table10TableEntryEE4readEiE8__func__>
    5358:	48 8d 3d 9c ce 01 00 	lea    0x1ce9c(%rip),%rdi        # 221fb <g_dyn_entry_table+0x1fb>
    535f:	be 3b 00 00 00       	mov    $0x3b,%esi
    5364:	44 89 5c 24 08       	mov    %r11d,0x8(%rsp)
    5369:	e8 72 66 00 00       	call   b9e0 <__assert>
    536e:	49 8b 0f             	mov    (%r15),%rcx
    5371:	44 8b 5c 24 08       	mov    0x8(%rsp),%r11d
    5376:	49 63 ec             	movslq %r12d,%rbp
    5379:	48 c1 e5 05          	shl    $0x5,%rbp
    537d:	48 8d 14 29          	lea    (%rcx,%rbp,1),%rdx
    5381:	8b 02                	mov    (%rdx),%eax
    5383:	44 8b 72 08          	mov    0x8(%rdx),%r14d
    5387:	89 44 24 24          	mov    %eax,0x24(%rsp)
    538b:	8b 42 04             	mov    0x4(%rdx),%eax
    538e:	45 39 f5             	cmp    %r14d,%r13d
    5391:	89 44 24 08          	mov    %eax,0x8(%rsp)
    5395:	8b 42 0c             	mov    0xc(%rdx),%eax
    5398:	89 44 24 14          	mov    %eax,0x14(%rsp)
    539c:	8b 42 10             	mov    0x10(%rdx),%eax
    539f:	89 44 24 18          	mov    %eax,0x18(%rsp)
    53a3:	8b 42 14             	mov    0x14(%rdx),%eax
    53a6:	89 44 24 20          	mov    %eax,0x20(%rsp)
    53aa:	8b 42 18             	mov    0x18(%rdx),%eax
    53ad:	89 44 24 3c          	mov    %eax,0x3c(%rsp)
    53b1:	8b 42 1c             	mov    0x1c(%rdx),%eax
    53b4:	0f 9c c2             	setl   %dl
    53b7:	45 39 f5             	cmp    %r14d,%r13d
    53ba:	89 44 24 1c          	mov    %eax,0x1c(%rsp)
    53be:	0f 84 ec 00 00 00    	je     54b0 <_Z15bitonic_compareIN5Table10TableEntryEXadL_ZNS0_9attr_compES1_S1_EEEvP8TraceMemIT_Ebii+0x200>
    53c4:	83 f2 01             	xor    $0x1,%edx
    53c7:	3a 54 24 0c          	cmp    0xc(%rsp),%dl
    53cb:	0f 84 f7 00 00 00    	je     54c8 <_Z15bitonic_compareIN5Table10TableEntryEXadL_ZNS0_9attr_compES1_S1_EEEvP8TraceMemIT_Ebii+0x218>
    53d1:	45 85 db             	test   %r11d,%r11d
    53d4:	78 06                	js     53dc <_Z15bitonic_compareIN5Table10TableEntryEXadL_ZNS0_9attr_compES1_S1_EEEvP8TraceMemIT_Ebii+0x12c>
    53d6:	45 3b 5f 2c          	cmp    0x2c(%r15),%r11d
    53da:	7c 22                	jl     53fe <_Z15bitonic_compareIN5Table10TableEntryEXadL_ZNS0_9attr_compES1_S1_EEEvP8TraceMemIT_Ebii+0x14e>
    53dc:	48 8d 0d 05 ce 01 00 	lea    0x1ce05(%rip),%rcx        # 221e8 <g_dyn_entry_table+0x1e8>
    53e3:	48 8d 15 10 cf 01 00 	lea    0x1cf10(%rip),%rdx        # 222fa <_ZZN8TraceMemIN5Table10TableEntryEE5writeEiS1_E8__func__>
    53ea:	48 8d 3d 0a ce 01 00 	lea    0x1ce0a(%rip),%rdi        # 221fb <g_dyn_entry_table+0x1fb>
    53f1:	be 48 00 00 00       	mov    $0x48,%esi
    53f6:	e8 e5 65 00 00       	call   b9e0 <__assert>
    53fb:	49 8b 0f             	mov    (%r15),%rcx
    53fe:	8b 44 24 10          	mov    0x10(%rsp),%eax
    5402:	48 01 cb             	add    %rcx,%rbx
    5405:	45 85 e4             	test   %r12d,%r12d
    5408:	44 89 6b 08          	mov    %r13d,0x8(%rbx)
    540c:	89 03                	mov    %eax,(%rbx)
    540e:	8b 44 24 04          	mov    0x4(%rsp),%eax
    5412:	89 43 04             	mov    %eax,0x4(%rbx)
    5415:	8b 44 24 38          	mov    0x38(%rsp),%eax
    5419:	89 43 0c             	mov    %eax,0xc(%rbx)
    541c:	8b 44 24 34          	mov    0x34(%rsp),%eax
    5420:	89 43 10             	mov    %eax,0x10(%rbx)
    5423:	8b 44 24 30          	mov    0x30(%rsp),%eax
    5427:	89 43 14             	mov    %eax,0x14(%rbx)
    542a:	8b 44 24 2c          	mov    0x2c(%rsp),%eax
    542e:	89 43 18             	mov    %eax,0x18(%rbx)
    5431:	8b 44 24 28          	mov    0x28(%rsp),%eax
    5435:	89 43 1c             	mov    %eax,0x1c(%rbx)
    5438:	78 06                	js     5440 <_Z15bitonic_compareIN5Table10TableEntryEXadL_ZNS0_9attr_compES1_S1_EEEvP8TraceMemIT_Ebii+0x190>
    543a:	45 3b 67 2c          	cmp    0x2c(%r15),%r12d
    543e:	7c 22                	jl     5462 <_Z15bitonic_compareIN5Table10TableEntryEXadL_ZNS0_9attr_compES1_S1_EEEvP8TraceMemIT_Ebii+0x1b2>
    5440:	48 8d 0d a1 cd 01 00 	lea    0x1cda1(%rip),%rcx        # 221e8 <g_dyn_entry_table+0x1e8>
    5447:	48 8d 15 ac ce 01 00 	lea    0x1ceac(%rip),%rdx        # 222fa <_ZZN8TraceMemIN5Table10TableEntryEE5writeEiS1_E8__func__>
    544e:	48 8d 3d a6 cd 01 00 	lea    0x1cda6(%rip),%rdi        # 221fb <g_dyn_entry_table+0x1fb>
    5455:	be 48 00 00 00       	mov    $0x48,%esi
    545a:	e8 81 65 00 00       	call   b9e0 <__assert>
    545f:	49 8b 0f             	mov    (%r15),%rcx
    5462:	8b 44 24 24          	mov    0x24(%rsp),%eax
    5466:	48 01 cd             	add    %rcx,%rbp
    5469:	44 89 75 08          	mov    %r14d,0x8(%rbp)
    546d:	89 45 00             	mov    %eax,0x0(%rbp)
    5470:	8b 44 24 08          	mov    0x8(%rsp),%eax
    5474:	89 45 04             	mov    %eax,0x4(%rbp)
    5477:	8b 44 24 14          	mov    0x14(%rsp),%eax
    547b:	89 45 0c             	mov    %eax,0xc(%rbp)
    547e:	8b 44 24 18          	mov    0x18(%rsp),%eax
    5482:	89 45 10             	mov    %eax,0x10(%rbp)
    5485:	8b 44 24 20          	mov    0x20(%rsp),%eax
    5489:	89 45 14             	mov    %eax,0x14(%rbp)
    548c:	8b 44 24 3c          	mov    0x3c(%rsp),%eax
    5490:	89 45 18             	mov    %eax,0x18(%rbp)
    5493:	8b 44 24 1c          	mov    0x1c(%rsp),%eax
    5497:	89 45 1c             	mov    %eax,0x1c(%rbp)
    549a:	48 83 c4 48          	add    $0x48,%rsp
    549e:	5b                   	pop    %rbx
    549f:	5d                   	pop    %rbp
    54a0:	41 5c                	pop    %r12
    54a2:	41 5d                	pop    %r13
    54a4:	41 5e                	pop    %r14
    54a6:	41 5f                	pop    %r15
    54a8:	c3                   	ret    
    54a9:	0f 1f 80 00 00 00 00 	nopl   0x0(%rax)
    54b0:	8b 74 24 08          	mov    0x8(%rsp),%esi
    54b4:	39 74 24 04          	cmp    %esi,0x4(%rsp)
    54b8:	0f 9c c2             	setl   %dl
    54bb:	83 f2 01             	xor    $0x1,%edx
    54be:	3a 54 24 0c          	cmp    0xc(%rsp),%dl
    54c2:	0f 85 09 ff ff ff    	jne    53d1 <_Z15bitonic_compareIN5Table10TableEntryEXadL_ZNS0_9attr_compES1_S1_EEEvP8TraceMemIT_Ebii+0x121>
    54c8:	45 85 db             	test   %r11d,%r11d
    54cb:	78 06                	js     54d3 <_Z15bitonic_compareIN5Table10TableEntryEXadL_ZNS0_9attr_compES1_S1_EEEvP8TraceMemIT_Ebii+0x223>
    54cd:	45 3b 5f 2c          	cmp    0x2c(%r15),%r11d
    54d1:	7c 22                	jl     54f5 <_Z15bitonic_compareIN5Table10TableEntryEXadL_ZNS0_9attr_compES1_S1_EEEvP8TraceMemIT_Ebii+0x245>
    54d3:	48 8d 0d 0e cd 01 00 	lea    0x1cd0e(%rip),%rcx        # 221e8 <g_dyn_entry_table+0x1e8>
    54da:	48 8d 15 19 ce 01 00 	lea    0x1ce19(%rip),%rdx        # 222fa <_ZZN8TraceMemIN5Table10TableEntryEE5writeEiS1_E8__func__>
    54e1:	48 8d 3d 13 cd 01 00 	lea    0x1cd13(%rip),%rdi        # 221fb <g_dyn_entry_table+0x1fb>
    54e8:	be 48 00 00 00       	mov    $0x48,%esi
    54ed:	e8 ee 64 00 00       	call   b9e0 <__assert>
    54f2:	49 8b 0f             	mov    (%r15),%rcx
    54f5:	8b 44 24 24          	mov    0x24(%rsp),%eax
    54f9:	48 01 cb             	add    %rcx,%rbx
    54fc:	45 85 e4             	test   %r12d,%r12d
    54ff:	44 89 73 08          	mov    %r14d,0x8(%rbx)
    5503:	89 03                	mov    %eax,(%rbx)
    5505:	8b 44 24 08          	mov    0x8(%rsp),%eax
    5509:	89 43 04             	mov    %eax,0x4(%rbx)
    550c:	8b 44 24 14          	mov    0x14(%rsp),%eax
    5510:	89 43 0c             	mov    %eax,0xc(%rbx)
    5513:	8b 44 24 18          	mov    0x18(%rsp),%eax
    5517:	89 43 10             	mov    %eax,0x10(%rbx)
    551a:	8b 44 24 20          	mov    0x20(%rsp),%eax
    551e:	89 43 14             	mov    %eax,0x14(%rbx)
    5521:	8b 44 24 3c          	mov    0x3c(%rsp),%eax
    5525:	89 43 18             	mov    %eax,0x18(%rbx)
    5528:	8b 44 24 1c          	mov    0x1c(%rsp),%eax
    552c:	89 43 1c             	mov    %eax,0x1c(%rbx)
    552f:	78 06                	js     5537 <_Z15bitonic_compareIN5Table10TableEntryEXadL_ZNS0_9attr_compES1_S1_EEEvP8TraceMemIT_Ebii+0x287>
    5531:	45 39 67 2c          	cmp    %r12d,0x2c(%r15)
    5535:	7f 22                	jg     5559 <_Z15bitonic_compareIN5Table10TableEntryEXadL_ZNS0_9attr_compES1_S1_EEEvP8TraceMemIT_Ebii+0x2a9>
    5537:	48 8d 0d aa cc 01 00 	lea    0x1ccaa(%rip),%rcx        # 221e8 <g_dyn_entry_table+0x1e8>
    553e:	48 8d 15 b5 cd 01 00 	lea    0x1cdb5(%rip),%rdx        # 222fa <_ZZN8TraceMemIN5Table10TableEntryEE5writeEiS1_E8__func__>
    5545:	48 8d 3d af cc 01 00 	lea    0x1ccaf(%rip),%rdi        # 221fb <g_dyn_entry_table+0x1fb>
    554c:	be 48 00 00 00       	mov    $0x48,%esi
    5551:	e8 8a 64 00 00       	call   b9e0 <__assert>
    5556:	49 8b 0f             	mov    (%r15),%rcx
    5559:	8b 44 24 10          	mov    0x10(%rsp),%eax
    555d:	48 01 cd             	add    %rcx,%rbp
    5560:	44 89 6d 08          	mov    %r13d,0x8(%rbp)
    5564:	89 45 00             	mov    %eax,0x0(%rbp)
    5567:	8b 44 24 04          	mov    0x4(%rsp),%eax
    556b:	89 45 04             	mov    %eax,0x4(%rbp)
    556e:	8b 44 24 38          	mov    0x38(%rsp),%eax
    5572:	89 45 0c             	mov    %eax,0xc(%rbp)
    5575:	8b 44 24 34          	mov    0x34(%rsp),%eax
    5579:	89 45 10             	mov    %eax,0x10(%rbp)
    557c:	8b 44 24 30          	mov    0x30(%rsp),%eax
    5580:	89 45 14             	mov    %eax,0x14(%rbp)
    5583:	8b 44 24 2c          	mov    0x2c(%rsp),%eax
    5587:	89 45 18             	mov    %eax,0x18(%rbp)
    558a:	8b 44 24 28          	mov    0x28(%rsp),%eax
    558e:	89 45 1c             	mov    %eax,0x1c(%rbp)
    5591:	48 83 c4 48          	add    $0x48,%rsp
    5595:	5b                   	pop    %rbx
    5596:	5d                   	pop    %rbp
    5597:	41 5c                	pop    %r12
    5599:	41 5d                	pop    %r13
    559b:	41 5e                	pop    %r14
    559d:	41 5f                	pop    %r15
    559f:	c3                   	ret    

00000000000055a0 <_Z13bitonic_mergeIN5Table10TableEntryEXadL_ZNS0_9attr_compES1_S1_EEEvP8TraceMemIT_Ebii.part.9>:
    55a0:	41 57                	push   %r15
    55a2:	89 c8                	mov    %ecx,%eax
    55a4:	41 56                	push   %r14
    55a6:	41 55                	push   %r13
    55a8:	41 54                	push   %r12
    55aa:	29 d0                	sub    %edx,%eax
    55ac:	55                   	push   %rbp
    55ad:	53                   	push   %rbx
    55ae:	48 89 fd             	mov    %rdi,%rbp
    55b1:	41 89 d6             	mov    %edx,%r14d
    55b4:	48 83 ec 18          	sub    $0x18,%rsp
    55b8:	83 f8 01             	cmp    $0x1,%eax
    55bb:	89 74 24 08          	mov    %esi,0x8(%rsp)
    55bf:	89 4c 24 0c          	mov    %ecx,0xc(%rsp)
    55c3:	0f 8e 9e 00 00 00    	jle    5667 <_Z13bitonic_mergeIN5Table10TableEntryEXadL_ZNS0_9attr_compES1_S1_EEEvP8TraceMemIT_Ebii.part.9+0xc7>
    55c9:	bb 01 00 00 00       	mov    $0x1,%ebx
    55ce:	66 90                	xchg   %ax,%ax
    55d0:	01 db                	add    %ebx,%ebx
    55d2:	39 d8                	cmp    %ebx,%eax
    55d4:	7f fa                	jg     55d0 <_Z13bitonic_mergeIN5Table10TableEntryEXadL_ZNS0_9attr_compES1_S1_EEEvP8TraceMemIT_Ebii.part.9+0x30>
    55d6:	d1 fb                	sar    %ebx
    55d8:	44 8b 64 24 0c       	mov    0xc(%rsp),%r12d
    55dd:	44 0f b6 6c 24 08    	movzbl 0x8(%rsp),%r13d
    55e3:	45 89 f7             	mov    %r14d,%r15d
    55e6:	41 29 dc             	sub    %ebx,%r12d
    55e9:	45 39 e6             	cmp    %r12d,%r14d
    55ec:	7d 1d                	jge    560b <_Z13bitonic_mergeIN5Table10TableEntryEXadL_ZNS0_9attr_compES1_S1_EEEvP8TraceMemIT_Ebii.part.9+0x6b>
    55ee:	66 90                	xchg   %ax,%ax
    55f0:	42 8d 0c 3b          	lea    (%rbx,%r15,1),%ecx
    55f4:	44 89 fa             	mov    %r15d,%edx
    55f7:	44 89 ee             	mov    %r13d,%esi
    55fa:	48 89 ef             	mov    %rbp,%rdi
    55fd:	41 83 c7 01          	add    $0x1,%r15d
    5601:	e8 aa fc ff ff       	call   52b0 <_Z15bitonic_compareIN5Table10TableEntryEXadL_ZNS0_9attr_compES1_S1_EEEvP8TraceMemIT_Ebii>
    5606:	45 39 e7             	cmp    %r12d,%r15d
    5609:	75 e5                	jne    55f0 <_Z13bitonic_mergeIN5Table10TableEntryEXadL_ZNS0_9attr_compES1_S1_EEEvP8TraceMemIT_Ebii.part.9+0x50>
    560b:	41 8d 46 01          	lea    0x1(%r14),%eax
    560f:	44 01 f3             	add    %r14d,%ebx
    5612:	39 c3                	cmp    %eax,%ebx
    5614:	7e 12                	jle    5628 <_Z13bitonic_mergeIN5Table10TableEntryEXadL_ZNS0_9attr_compES1_S1_EEEvP8TraceMemIT_Ebii.part.9+0x88>
    5616:	0f b6 74 24 08       	movzbl 0x8(%rsp),%esi
    561b:	89 d9                	mov    %ebx,%ecx
    561d:	44 89 f2             	mov    %r14d,%edx
    5620:	48 89 ef             	mov    %rbp,%rdi
    5623:	e8 78 ff ff ff       	call   55a0 <_Z13bitonic_mergeIN5Table10TableEntryEXadL_ZNS0_9attr_compES1_S1_EEEvP8TraceMemIT_Ebii.part.9>
    5628:	8b 54 24 0c          	mov    0xc(%rsp),%edx
    562c:	8d 43 01             	lea    0x1(%rbx),%eax
    562f:	39 c2                	cmp    %eax,%edx
    5631:	7e 25                	jle    5658 <_Z13bitonic_mergeIN5Table10TableEntryEXadL_ZNS0_9attr_compES1_S1_EEEvP8TraceMemIT_Ebii.part.9+0xb8>
    5633:	0f b6 74 24 08       	movzbl 0x8(%rsp),%esi
    5638:	48 83 c4 18          	add    $0x18,%rsp
    563c:	89 d1                	mov    %edx,%ecx
    563e:	48 89 ef             	mov    %rbp,%rdi
    5641:	89 da                	mov    %ebx,%edx
    5643:	5b                   	pop    %rbx
    5644:	5d                   	pop    %rbp
    5645:	41 5c                	pop    %r12
    5647:	41 5d                	pop    %r13
    5649:	41 5e                	pop    %r14
    564b:	41 5f                	pop    %r15
    564d:	e9 4e ff ff ff       	jmp    55a0 <_Z13bitonic_mergeIN5Table10TableEntryEXadL_ZNS0_9attr_compES1_S1_EEEvP8TraceMemIT_Ebii.part.9>
    5652:	66 0f 1f 44 00 00    	nopw   0x0(%rax,%rax,1)
    5658:	48 83 c4 18          	add    $0x18,%rsp
    565c:	5b                   	pop    %rbx
    565d:	5d                   	pop    %rbp
    565e:	41 5c                	pop    %r12
    5660:	41 5d                	pop    %r13
    5662:	41 5e                	pop    %r14
    5664:	41 5f                	pop    %r15
    5666:	c3                   	ret    
    5667:	31 db                	xor    %ebx,%ebx
    5669:	e9 6a ff ff ff       	jmp    55d8 <_Z13bitonic_mergeIN5Table10TableEntryEXadL_ZNS0_9attr_compES1_S1_EEEvP8TraceMemIT_Ebii.part.9+0x38>
    566e:	66 90                	xchg   %ax,%ax

0000000000005670 <_Z12bitonic_sortIN5Table10TableEntryEXadL_ZNS0_9attr_compES1_S1_EEEvP8TraceMemIT_Ebii>:
    5670:	83 f9 ff             	cmp    $0xffffffff,%ecx
    5673:	41 56                	push   %r14
    5675:	41 89 f6             	mov    %esi,%r14d
    5678:	41 55                	push   %r13
    567a:	41 89 cd             	mov    %ecx,%r13d
    567d:	41 54                	push   %r12
    567f:	49 89 fc             	mov    %rdi,%r12
    5682:	55                   	push   %rbp
    5683:	89 d5                	mov    %edx,%ebp
    5685:	53                   	push   %rbx
    5686:	74 78                	je     5700 <_Z12bitonic_sortIN5Table10TableEntryEXadL_ZNS0_9attr_compES1_S1_EEEvP8TraceMemIT_Ebii+0x90>
    5688:	44 89 e8             	mov    %r13d,%eax
    568b:	29 e8                	sub    %ebp,%eax
    568d:	89 c3                	mov    %eax,%ebx
    568f:	c1 eb 1f             	shr    $0x1f,%ebx
    5692:	01 d8                	add    %ebx,%eax
    5694:	d1 f8                	sar    %eax
    5696:	8d 1c 28             	lea    (%rax,%rbp,1),%ebx
    5699:	39 dd                	cmp    %ebx,%ebp
    569b:	74 32                	je     56cf <_Z12bitonic_sortIN5Table10TableEntryEXadL_ZNS0_9attr_compES1_S1_EEEvP8TraceMemIT_Ebii+0x5f>
    569d:	44 89 f6             	mov    %r14d,%esi
    56a0:	89 d9                	mov    %ebx,%ecx
    56a2:	89 ea                	mov    %ebp,%edx
    56a4:	83 f6 01             	xor    $0x1,%esi
    56a7:	4c 89 e7             	mov    %r12,%rdi
    56aa:	45 0f b6 f6          	movzbl %r14b,%r14d
    56ae:	40 0f b6 f6          	movzbl %sil,%esi
    56b2:	e8 b9 ff ff ff       	call   5670 <_Z12bitonic_sortIN5Table10TableEntryEXadL_ZNS0_9attr_compES1_S1_EEEvP8TraceMemIT_Ebii>
    56b7:	44 89 e9             	mov    %r13d,%ecx
    56ba:	89 da                	mov    %ebx,%edx
    56bc:	44 89 f6             	mov    %r14d,%esi
    56bf:	4c 89 e7             	mov    %r12,%rdi
    56c2:	e8 a9 ff ff ff       	call   5670 <_Z12bitonic_sortIN5Table10TableEntryEXadL_ZNS0_9attr_compES1_S1_EEEvP8TraceMemIT_Ebii>
    56c7:	8d 45 01             	lea    0x1(%rbp),%eax
    56ca:	41 39 c5             	cmp    %eax,%r13d
    56cd:	7f 11                	jg     56e0 <_Z12bitonic_sortIN5Table10TableEntryEXadL_ZNS0_9attr_compES1_S1_EEEvP8TraceMemIT_Ebii+0x70>
    56cf:	5b                   	pop    %rbx
    56d0:	5d                   	pop    %rbp
    56d1:	41 5c                	pop    %r12
    56d3:	41 5d                	pop    %r13
    56d5:	41 5e                	pop    %r14
    56d7:	c3                   	ret    
    56d8:	0f 1f 84 00 00 00 00 	nopl   0x0(%rax,%rax,1)
    56df:	00 
    56e0:	5b                   	pop    %rbx
    56e1:	44 89 e9             	mov    %r13d,%ecx
    56e4:	89 ea                	mov    %ebp,%edx
    56e6:	44 89 f6             	mov    %r14d,%esi
    56e9:	5d                   	pop    %rbp
    56ea:	4c 89 e7             	mov    %r12,%rdi
    56ed:	41 5c                	pop    %r12
    56ef:	41 5d                	pop    %r13
    56f1:	41 5e                	pop    %r14
    56f3:	e9 a8 fe ff ff       	jmp    55a0 <_Z13bitonic_mergeIN5Table10TableEntryEXadL_ZNS0_9attr_compES1_S1_EEEvP8TraceMemIT_Ebii.part.9>
    56f8:	0f 1f 84 00 00 00 00 	nopl   0x0(%rax,%rax,1)
    56ff:	00 
    5700:	44 8b 6f 2c          	mov    0x2c(%rdi),%r13d
    5704:	eb 82                	jmp    5688 <_Z12bitonic_sortIN5Table10TableEntryEXadL_ZNS0_9attr_compES1_S1_EEEvP8TraceMemIT_Ebii+0x18>
    5706:	66 2e 0f 1f 84 00 00 	cs nopw 0x0(%rax,%rax,1)
    570d:	00 00 00 

0000000000005710 <_Z15bitonic_compareIN5Table10TableEntryEXadL_ZNS0_8tid_compES1_S1_EEEvP8TraceMemIT_Ebii>:
    5710:	41 57                	push   %r15
    5712:	41 56                	push   %r14
    5714:	41 89 d0             	mov    %edx,%r8d
    5717:	41 55                	push   %r13
    5719:	41 54                	push   %r12
    571b:	41 89 cd             	mov    %ecx,%r13d
    571e:	55                   	push   %rbp
    571f:	53                   	push   %rbx
    5720:	49 89 fc             	mov    %rdi,%r12
    5723:	48 83 ec 48          	sub    $0x48,%rsp
    5727:	85 d2                	test   %edx,%edx
    5729:	89 74 24 14          	mov    %esi,0x14(%rsp)
    572d:	78 05                	js     5734 <_Z15bitonic_compareIN5Table10TableEntryEXadL_ZNS0_8tid_compES1_S1_EEEvP8TraceMemIT_Ebii+0x24>
    572f:	3b 57 2c             	cmp    0x2c(%rdi),%edx
    5732:	7c 29                	jl     575d <_Z15bitonic_compareIN5Table10TableEntryEXadL_ZNS0_8tid_compES1_S1_EEEvP8TraceMemIT_Ebii+0x4d>
    5734:	48 8d 0d ad ca 01 00 	lea    0x1caad(%rip),%rcx        # 221e8 <g_dyn_entry_table+0x1e8>
    573b:	48 8d 15 be cb 01 00 	lea    0x1cbbe(%rip),%rdx        # 22300 <_ZZN8TraceMemIN5Table10TableEntryEE4readEiE8__func__>
    5742:	48 8d 3d b2 ca 01 00 	lea    0x1cab2(%rip),%rdi        # 221fb <g_dyn_entry_table+0x1fb>
    5749:	be 3b 00 00 00       	mov    $0x3b,%esi
    574e:	44 89 44 24 08       	mov    %r8d,0x8(%rsp)
    5753:	e8 88 62 00 00       	call   b9e0 <__assert>
    5758:	44 8b 44 24 08       	mov    0x8(%rsp),%r8d
    575d:	49 8b 0c 24          	mov    (%r12),%rcx
    5761:	49 63 d8             	movslq %r8d,%rbx
    5764:	48 c1 e3 05          	shl    $0x5,%rbx
    5768:	45 85 ed             	test   %r13d,%r13d
    576b:	48 8d 14 19          	lea    (%rcx,%rbx,1),%rdx
    576f:	8b 02                	mov    (%rdx),%eax
    5771:	44 8b 7a 04          	mov    0x4(%rdx),%r15d
    5775:	89 44 24 18          	mov    %eax,0x18(%rsp)
    5779:	8b 42 08             	mov    0x8(%rdx),%eax
    577c:	89 44 24 08          	mov    %eax,0x8(%rsp)
    5780:	8b 42 0c             	mov    0xc(%rdx),%eax
    5783:	89 44 24 10          	mov    %eax,0x10(%rsp)
    5787:	8b 42 10             	mov    0x10(%rdx),%eax
    578a:	89 44 24 38          	mov    %eax,0x38(%rsp)
    578e:	8b 42 14             	mov    0x14(%rdx),%eax
    5791:	89 44 24 34          	mov    %eax,0x34(%rsp)
    5795:	8b 42 18             	mov    0x18(%rdx),%eax
    5798:	89 44 24 30          	mov    %eax,0x30(%rsp)
    579c:	8b 42 1c             	mov    0x1c(%rdx),%eax
    579f:	89 44 24 2c          	mov    %eax,0x2c(%rsp)
    57a3:	78 07                	js     57ac <_Z15bitonic_compareIN5Table10TableEntryEXadL_ZNS0_8tid_compES1_S1_EEEvP8TraceMemIT_Ebii+0x9c>
    57a5:	45 3b 6c 24 2c       	cmp    0x2c(%r12),%r13d
    57aa:	7c 2d                	jl     57d9 <_Z15bitonic_compareIN5Table10TableEntryEXadL_ZNS0_8tid_compES1_S1_EEEvP8TraceMemIT_Ebii+0xc9>
    57ac:	48 8d 0d 35 ca 01 00 	lea    0x1ca35(%rip),%rcx        # 221e8 <g_dyn_entry_table+0x1e8>
    57b3:	48 8d 15 46 cb 01 00 	lea    0x1cb46(%rip),%rdx        # 22300 <_ZZN8TraceMemIN5Table10TableEntryEE4readEiE8__func__>
    57ba:	48 8d 3d 3a ca 01 00 	lea    0x1ca3a(%rip),%rdi        # 221fb <g_dyn_entry_table+0x1fb>
    57c1:	be 3b 00 00 00       	mov    $0x3b,%esi
    57c6:	44 89 44 24 0c       	mov    %r8d,0xc(%rsp)
    57cb:	e8 10 62 00 00       	call   b9e0 <__assert>
    57d0:	49 8b 0c 24          	mov    (%r12),%rcx
    57d4:	44 8b 44 24 0c       	mov    0xc(%rsp),%r8d
    57d9:	49 63 ed             	movslq %r13d,%rbp
    57dc:	48 c1 e5 05          	shl    $0x5,%rbp
    57e0:	48 8d 14 29          	lea    (%rcx,%rbp,1),%rdx
    57e4:	8b 72 0c             	mov    0xc(%rdx),%esi
    57e7:	8b 7a 10             	mov    0x10(%rdx),%edi
    57ea:	44 8b 72 04          	mov    0x4(%rdx),%r14d
    57ee:	8b 02                	mov    (%rdx),%eax
    57f0:	89 74 24 0c          	mov    %esi,0xc(%rsp)
    57f4:	8b 72 14             	mov    0x14(%rdx),%esi
    57f7:	89 7c 24 1c          	mov    %edi,0x1c(%rsp)
    57fb:	8b 7a 18             	mov    0x18(%rdx),%edi
    57fe:	45 39 f7             	cmp    %r14d,%r15d
    5801:	89 44 24 28          	mov    %eax,0x28(%rsp)
    5805:	8b 42 08             	mov    0x8(%rdx),%eax
    5808:	89 74 24 24          	mov    %esi,0x24(%rsp)
    580c:	8b 72 1c             	mov    0x1c(%rdx),%esi
    580f:	0f 9c c2             	setl   %dl
    5812:	45 39 f7             	cmp    %r14d,%r15d
    5815:	89 7c 24 3c          	mov    %edi,0x3c(%rsp)
    5819:	89 74 24 20          	mov    %esi,0x20(%rsp)
    581d:	0f 84 fd 00 00 00    	je     5920 <_Z15bitonic_compareIN5Table10TableEntryEXadL_ZNS0_8tid_compES1_S1_EEEvP8TraceMemIT_Ebii+0x210>
    5823:	83 f2 01             	xor    $0x1,%edx
    5826:	3a 54 24 14          	cmp    0x14(%rsp),%dl
    582a:	0f 84 18 01 00 00    	je     5948 <_Z15bitonic_compareIN5Table10TableEntryEXadL_ZNS0_8tid_compES1_S1_EEEvP8TraceMemIT_Ebii+0x238>
    5830:	45 85 c0             	test   %r8d,%r8d
    5833:	78 07                	js     583c <_Z15bitonic_compareIN5Table10TableEntryEXadL_ZNS0_8tid_compES1_S1_EEEvP8TraceMemIT_Ebii+0x12c>
    5835:	45 3b 44 24 2c       	cmp    0x2c(%r12),%r8d
    583a:	7c 2b                	jl     5867 <_Z15bitonic_compareIN5Table10TableEntryEXadL_ZNS0_8tid_compES1_S1_EEEvP8TraceMemIT_Ebii+0x157>
    583c:	48 8d 0d a5 c9 01 00 	lea    0x1c9a5(%rip),%rcx        # 221e8 <g_dyn_entry_table+0x1e8>
    5843:	48 8d 15 b0 ca 01 00 	lea    0x1cab0(%rip),%rdx        # 222fa <_ZZN8TraceMemIN5Table10TableEntryEE5writeEiS1_E8__func__>
    584a:	48 8d 3d aa c9 01 00 	lea    0x1c9aa(%rip),%rdi        # 221fb <g_dyn_entry_table+0x1fb>
    5851:	be 48 00 00 00       	mov    $0x48,%esi
    5856:	89 44 24 14          	mov    %eax,0x14(%rsp)
    585a:	e8 81 61 00 00       	call   b9e0 <__assert>
    585f:	49 8b 0c 24          	mov    (%r12),%rcx
    5863:	8b 44 24 14          	mov    0x14(%rsp),%eax
    5867:	8b 7c 24 18          	mov    0x18(%rsp),%edi
    586b:	48 01 cb             	add    %rcx,%rbx
    586e:	8b 74 24 10          	mov    0x10(%rsp),%esi
    5872:	45 85 ed             	test   %r13d,%r13d
    5875:	44 89 7b 04          	mov    %r15d,0x4(%rbx)
    5879:	89 3b                	mov    %edi,(%rbx)
    587b:	8b 7c 24 08          	mov    0x8(%rsp),%edi
    587f:	89 73 0c             	mov    %esi,0xc(%rbx)
    5882:	8b 74 24 34          	mov    0x34(%rsp),%esi
    5886:	89 7b 08             	mov    %edi,0x8(%rbx)
    5889:	8b 7c 24 38          	mov    0x38(%rsp),%edi
    588d:	89 73 14             	mov    %esi,0x14(%rbx)
    5890:	8b 74 24 2c          	mov    0x2c(%rsp),%esi
    5894:	89 7b 10             	mov    %edi,0x10(%rbx)
    5897:	8b 7c 24 30          	mov    0x30(%rsp),%edi
    589b:	89 73 1c             	mov    %esi,0x1c(%rbx)
    589e:	89 7b 18             	mov    %edi,0x18(%rbx)
    58a1:	78 07                	js     58aa <_Z15bitonic_compareIN5Table10TableEntryEXadL_ZNS0_8tid_compES1_S1_EEEvP8TraceMemIT_Ebii+0x19a>
    58a3:	45 3b 6c 24 2c       	cmp    0x2c(%r12),%r13d
    58a8:	7c 2b                	jl     58d5 <_Z15bitonic_compareIN5Table10TableEntryEXadL_ZNS0_8tid_compES1_S1_EEEvP8TraceMemIT_Ebii+0x1c5>
    58aa:	48 8d 0d 37 c9 01 00 	lea    0x1c937(%rip),%rcx        # 221e8 <g_dyn_entry_table+0x1e8>
    58b1:	48 8d 15 42 ca 01 00 	lea    0x1ca42(%rip),%rdx        # 222fa <_ZZN8TraceMemIN5Table10TableEntryEE5writeEiS1_E8__func__>
    58b8:	48 8d 3d 3c c9 01 00 	lea    0x1c93c(%rip),%rdi        # 221fb <g_dyn_entry_table+0x1fb>
    58bf:	be 48 00 00 00       	mov    $0x48,%esi
    58c4:	89 44 24 08          	mov    %eax,0x8(%rsp)
    58c8:	e8 13 61 00 00       	call   b9e0 <__assert>
    58cd:	49 8b 0c 24          	mov    (%r12),%rcx
    58d1:	8b 44 24 08          	mov    0x8(%rsp),%eax
    58d5:	48 01 cd             	add    %rcx,%rbp
    58d8:	8b 4c 24 28          	mov    0x28(%rsp),%ecx
    58dc:	89 45 08             	mov    %eax,0x8(%rbp)
    58df:	8b 44 24 0c          	mov    0xc(%rsp),%eax
    58e3:	44 89 75 04          	mov    %r14d,0x4(%rbp)
    58e7:	89 4d 00             	mov    %ecx,0x0(%rbp)
    58ea:	89 45 0c             	mov    %eax,0xc(%rbp)
    58ed:	8b 44 24 1c          	mov    0x1c(%rsp),%eax
    58f1:	89 45 10             	mov    %eax,0x10(%rbp)
    58f4:	8b 44 24 24          	mov    0x24(%rsp),%eax
    58f8:	89 45 14             	mov    %eax,0x14(%rbp)
    58fb:	8b 44 24 3c          	mov    0x3c(%rsp),%eax
    58ff:	89 45 18             	mov    %eax,0x18(%rbp)
    5902:	8b 44 24 20          	mov    0x20(%rsp),%eax
    5906:	89 45 1c             	mov    %eax,0x1c(%rbp)
    5909:	48 83 c4 48          	add    $0x48,%rsp
    590d:	5b                   	pop    %rbx
    590e:	5d                   	pop    %rbp
    590f:	41 5c                	pop    %r12
    5911:	41 5d                	pop    %r13
    5913:	41 5e                	pop    %r14
    5915:	41 5f                	pop    %r15
    5917:	c3                   	ret    
    5918:	0f 1f 84 00 00 00 00 	nopl   0x0(%rax,%rax,1)
    591f:	00 
    5920:	8b 7c 24 08          	mov    0x8(%rsp),%edi
    5924:	39 c7                	cmp    %eax,%edi
    5926:	0f 9c c2             	setl   %dl
    5929:	39 c7                	cmp    %eax,%edi
    592b:	0f 85 f2 fe ff ff    	jne    5823 <_Z15bitonic_compareIN5Table10TableEntryEXadL_ZNS0_8tid_compES1_S1_EEEvP8TraceMemIT_Ebii+0x113>
    5931:	8b 7c 24 10          	mov    0x10(%rsp),%edi
    5935:	39 7c 24 0c          	cmp    %edi,0xc(%rsp)
    5939:	0f 9f c2             	setg   %dl
    593c:	e9 e2 fe ff ff       	jmp    5823 <_Z15bitonic_compareIN5Table10TableEntryEXadL_ZNS0_8tid_compES1_S1_EEEvP8TraceMemIT_Ebii+0x113>
    5941:	0f 1f 80 00 00 00 00 	nopl   0x0(%rax)
    5948:	45 85 c0             	test   %r8d,%r8d
    594b:	78 07                	js     5954 <_Z15bitonic_compareIN5Table10TableEntryEXadL_ZNS0_8tid_compES1_S1_EEEvP8TraceMemIT_Ebii+0x244>
    594d:	45 3b 44 24 2c       	cmp    0x2c(%r12),%r8d
    5952:	7c 2b                	jl     597f <_Z15bitonic_compareIN5Table10TableEntryEXadL_ZNS0_8tid_compES1_S1_EEEvP8TraceMemIT_Ebii+0x26f>
    5954:	48 8d 0d 8d c8 01 00 	lea    0x1c88d(%rip),%rcx        # 221e8 <g_dyn_entry_table+0x1e8>
    595b:	48 8d 15 98 c9 01 00 	lea    0x1c998(%rip),%rdx        # 222fa <_ZZN8TraceMemIN5Table10TableEntryEE5writeEiS1_E8__func__>
    5962:	48 8d 3d 92 c8 01 00 	lea    0x1c892(%rip),%rdi        # 221fb <g_dyn_entry_table+0x1fb>
    5969:	be 48 00 00 00       	mov    $0x48,%esi
    596e:	89 44 24 14          	mov    %eax,0x14(%rsp)
    5972:	e8 69 60 00 00       	call   b9e0 <__assert>
    5977:	49 8b 0c 24          	mov    (%r12),%rcx
    597b:	8b 44 24 14          	mov    0x14(%rsp),%eax
    597f:	48 01 cb             	add    %rcx,%rbx
    5982:	8b 74 24 28          	mov    0x28(%rsp),%esi
    5986:	45 85 ed             	test   %r13d,%r13d
    5989:	89 43 08             	mov    %eax,0x8(%rbx)
    598c:	8b 44 24 0c          	mov    0xc(%rsp),%eax
    5990:	44 89 73 04          	mov    %r14d,0x4(%rbx)
    5994:	89 33                	mov    %esi,(%rbx)
    5996:	89 43 0c             	mov    %eax,0xc(%rbx)
    5999:	8b 44 24 1c          	mov    0x1c(%rsp),%eax
    599d:	89 43 10             	mov    %eax,0x10(%rbx)
    59a0:	8b 44 24 24          	mov    0x24(%rsp),%eax
    59a4:	89 43 14             	mov    %eax,0x14(%rbx)
    59a7:	8b 44 24 3c          	mov    0x3c(%rsp),%eax
    59ab:	89 43 18             	mov    %eax,0x18(%rbx)
    59ae:	8b 44 24 20          	mov    0x20(%rsp),%eax
    59b2:	89 43 1c             	mov    %eax,0x1c(%rbx)
    59b5:	78 07                	js     59be <_Z15bitonic_compareIN5Table10TableEntryEXadL_ZNS0_8tid_compES1_S1_EEEvP8TraceMemIT_Ebii+0x2ae>
    59b7:	45 39 6c 24 2c       	cmp    %r13d,0x2c(%r12)
    59bc:	7f 23                	jg     59e1 <_Z15bitonic_compareIN5Table10TableEntryEXadL_ZNS0_8tid_compES1_S1_EEEvP8TraceMemIT_Ebii+0x2d1>
    59be:	48 8d 0d 23 c8 01 00 	lea    0x1c823(%rip),%rcx        # 221e8 <g_dyn_entry_table+0x1e8>
    59c5:	48 8d 15 2e c9 01 00 	lea    0x1c92e(%rip),%rdx        # 222fa <_ZZN8TraceMemIN5Table10TableEntryEE5writeEiS1_E8__func__>
    59cc:	48 8d 3d 28 c8 01 00 	lea    0x1c828(%rip),%rdi        # 221fb <g_dyn_entry_table+0x1fb>
    59d3:	be 48 00 00 00       	mov    $0x48,%esi
    59d8:	e8 03 60 00 00       	call   b9e0 <__assert>
    59dd:	49 8b 0c 24          	mov    (%r12),%rcx
    59e1:	8b 44 24 18          	mov    0x18(%rsp),%eax
    59e5:	48 01 cd             	add    %rcx,%rbp
    59e8:	44 89 7d 04          	mov    %r15d,0x4(%rbp)
    59ec:	89 45 00             	mov    %eax,0x0(%rbp)
    59ef:	8b 44 24 08          	mov    0x8(%rsp),%eax
    59f3:	89 45 08             	mov    %eax,0x8(%rbp)
    59f6:	8b 44 24 10          	mov    0x10(%rsp),%eax
    59fa:	89 45 0c             	mov    %eax,0xc(%rbp)
    59fd:	8b 44 24 38          	mov    0x38(%rsp),%eax
    5a01:	89 45 10             	mov    %eax,0x10(%rbp)
    5a04:	8b 44 24 34          	mov    0x34(%rsp),%eax
    5a08:	89 45 14             	mov    %eax,0x14(%rbp)
    5a0b:	8b 44 24 30          	mov    0x30(%rsp),%eax
    5a0f:	89 45 18             	mov    %eax,0x18(%rbp)
    5a12:	8b 44 24 2c          	mov    0x2c(%rsp),%eax
    5a16:	89 45 1c             	mov    %eax,0x1c(%rbp)
    5a19:	48 83 c4 48          	add    $0x48,%rsp
    5a1d:	5b                   	pop    %rbx
    5a1e:	5d                   	pop    %rbp
    5a1f:	41 5c                	pop    %r12
    5a21:	41 5d                	pop    %r13
    5a23:	41 5e                	pop    %r14
    5a25:	41 5f                	pop    %r15
    5a27:	c3                   	ret    
    5a28:	0f 1f 84 00 00 00 00 	nopl   0x0(%rax,%rax,1)
    5a2f:	00 

0000000000005a30 <_Z13bitonic_mergeIN5Table10TableEntryEXadL_ZNS0_8tid_compES1_S1_EEEvP8TraceMemIT_Ebii.part.10>:
    5a30:	41 57                	push   %r15
    5a32:	89 c8                	mov    %ecx,%eax
    5a34:	41 56                	push   %r14
    5a36:	41 55                	push   %r13
    5a38:	41 54                	push   %r12
    5a3a:	29 d0                	sub    %edx,%eax
    5a3c:	55                   	push   %rbp
    5a3d:	53                   	push   %rbx
    5a3e:	48 89 fd             	mov    %rdi,%rbp
    5a41:	41 89 d6             	mov    %edx,%r14d
    5a44:	48 83 ec 18          	sub    $0x18,%rsp
    5a48:	83 f8 01             	cmp    $0x1,%eax
    5a4b:	89 74 24 08          	mov    %esi,0x8(%rsp)
    5a4f:	89 4c 24 0c          	mov    %ecx,0xc(%rsp)
    5a53:	0f 8e 9e 00 00 00    	jle    5af7 <_Z13bitonic_mergeIN5Table10TableEntryEXadL_ZNS0_8tid_compES1_S1_EEEvP8TraceMemIT_Ebii.part.10+0xc7>
    5a59:	bb 01 00 00 00       	mov    $0x1,%ebx
    5a5e:	66 90                	xchg   %ax,%ax
    5a60:	01 db                	add    %ebx,%ebx
    5a62:	39 d8                	cmp    %ebx,%eax
    5a64:	7f fa                	jg     5a60 <_Z13bitonic_mergeIN5Table10TableEntryEXadL_ZNS0_8tid_compES1_S1_EEEvP8TraceMemIT_Ebii.part.10+0x30>
    5a66:	d1 fb                	sar    %ebx
    5a68:	44 8b 64 24 0c       	mov    0xc(%rsp),%r12d
    5a6d:	44 0f b6 6c 24 08    	movzbl 0x8(%rsp),%r13d
    5a73:	45 89 f7             	mov    %r14d,%r15d
    5a76:	41 29 dc             	sub    %ebx,%r12d
    5a79:	45 39 e6             	cmp    %r12d,%r14d
    5a7c:	7d 1d                	jge    5a9b <_Z13bitonic_mergeIN5Table10TableEntryEXadL_ZNS0_8tid_compES1_S1_EEEvP8TraceMemIT_Ebii.part.10+0x6b>
    5a7e:	66 90                	xchg   %ax,%ax
    5a80:	42 8d 0c 3b          	lea    (%rbx,%r15,1),%ecx
    5a84:	44 89 fa             	mov    %r15d,%edx
    5a87:	44 89 ee             	mov    %r13d,%esi
    5a8a:	48 89 ef             	mov    %rbp,%rdi
    5a8d:	41 83 c7 01          	add    $0x1,%r15d
    5a91:	e8 7a fc ff ff       	call   5710 <_Z15bitonic_compareIN5Table10TableEntryEXadL_ZNS0_8tid_compES1_S1_EEEvP8TraceMemIT_Ebii>
    5a96:	45 39 e7             	cmp    %r12d,%r15d
    5a99:	75 e5                	jne    5a80 <_Z13bitonic_mergeIN5Table10TableEntryEXadL_ZNS0_8tid_compES1_S1_EEEvP8TraceMemIT_Ebii.part.10+0x50>
    5a9b:	41 8d 46 01          	lea    0x1(%r14),%eax
    5a9f:	44 01 f3             	add    %r14d,%ebx
    5aa2:	39 c3                	cmp    %eax,%ebx
    5aa4:	7e 12                	jle    5ab8 <_Z13bitonic_mergeIN5Table10TableEntryEXadL_ZNS0_8tid_compES1_S1_EEEvP8TraceMemIT_Ebii.part.10+0x88>
    5aa6:	0f b6 74 24 08       	movzbl 0x8(%rsp),%esi
    5aab:	89 d9                	mov    %ebx,%ecx
    5aad:	44 89 f2             	mov    %r14d,%edx
    5ab0:	48 89 ef             	mov    %rbp,%rdi
    5ab3:	e8 78 ff ff ff       	call   5a30 <_Z13bitonic_mergeIN5Table10TableEntryEXadL_ZNS0_8tid_compES1_S1_EEEvP8TraceMemIT_Ebii.part.10>
    5ab8:	8b 54 24 0c          	mov    0xc(%rsp),%edx
    5abc:	8d 43 01             	lea    0x1(%rbx),%eax
    5abf:	39 c2                	cmp    %eax,%edx
    5ac1:	7e 25                	jle    5ae8 <_Z13bitonic_mergeIN5Table10TableEntryEXadL_ZNS0_8tid_compES1_S1_EEEvP8TraceMemIT_Ebii.part.10+0xb8>
    5ac3:	0f b6 74 24 08       	movzbl 0x8(%rsp),%esi
    5ac8:	48 83 c4 18          	add    $0x18,%rsp
    5acc:	89 d1                	mov    %edx,%ecx
    5ace:	48 89 ef             	mov    %rbp,%rdi
    5ad1:	89 da                	mov    %ebx,%edx
    5ad3:	5b                   	pop    %rbx
    5ad4:	5d                   	pop    %rbp
    5ad5:	41 5c                	pop    %r12
    5ad7:	41 5d                	pop    %r13
    5ad9:	41 5e                	pop    %r14
    5adb:	41 5f                	pop    %r15
    5add:	e9 4e ff ff ff       	jmp    5a30 <_Z13bitonic_mergeIN5Table10TableEntryEXadL_ZNS0_8tid_compES1_S1_EEEvP8TraceMemIT_Ebii.part.10>
    5ae2:	66 0f 1f 44 00 00    	nopw   0x0(%rax,%rax,1)
    5ae8:	48 83 c4 18          	add    $0x18,%rsp
    5aec:	5b                   	pop    %rbx
    5aed:	5d                   	pop    %rbp
    5aee:	41 5c                	pop    %r12
    5af0:	41 5d                	pop    %r13
    5af2:	41 5e                	pop    %r14
    5af4:	41 5f                	pop    %r15
    5af6:	c3                   	ret    
    5af7:	31 db                	xor    %ebx,%ebx
    5af9:	e9 6a ff ff ff       	jmp    5a68 <_Z13bitonic_mergeIN5Table10TableEntryEXadL_ZNS0_8tid_compES1_S1_EEEvP8TraceMemIT_Ebii.part.10+0x38>
    5afe:	66 90                	xchg   %ax,%ax

0000000000005b00 <_Z12bitonic_sortIN5Table10TableEntryEXadL_ZNS0_8tid_compES1_S1_EEEvP8TraceMemIT_Ebii>:
    5b00:	83 f9 ff             	cmp    $0xffffffff,%ecx
    5b03:	41 56                	push   %r14
    5b05:	41 89 f6             	mov    %esi,%r14d
    5b08:	41 55                	push   %r13
    5b0a:	41 89 cd             	mov    %ecx,%r13d
    5b0d:	41 54                	push   %r12
    5b0f:	49 89 fc             	mov    %rdi,%r12
    5b12:	55                   	push   %rbp
    5b13:	89 d5                	mov    %edx,%ebp
    5b15:	53                   	push   %rbx
    5b16:	74 78                	je     5b90 <_Z12bitonic_sortIN5Table10TableEntryEXadL_ZNS0_8tid_compES1_S1_EEEvP8TraceMemIT_Ebii+0x90>
    5b18:	44 89 e8             	mov    %r13d,%eax
    5b1b:	29 e8                	sub    %ebp,%eax
    5b1d:	89 c3                	mov    %eax,%ebx
    5b1f:	c1 eb 1f             	shr    $0x1f,%ebx
    5b22:	01 d8                	add    %ebx,%eax
    5b24:	d1 f8                	sar    %eax
    5b26:	8d 1c 28             	lea    (%rax,%rbp,1),%ebx
    5b29:	39 dd                	cmp    %ebx,%ebp
    5b2b:	74 32                	je     5b5f <_Z12bitonic_sortIN5Table10TableEntryEXadL_ZNS0_8tid_compES1_S1_EEEvP8TraceMemIT_Ebii+0x5f>
    5b2d:	44 89 f6             	mov    %r14d,%esi
    5b30:	89 d9                	mov    %ebx,%ecx
    5b32:	89 ea                	mov    %ebp,%edx
    5b34:	83 f6 01             	xor    $0x1,%esi
    5b37:	4c 89 e7             	mov    %r12,%rdi
    5b3a:	45 0f b6 f6          	movzbl %r14b,%r14d
    5b3e:	40 0f b6 f6          	movzbl %sil,%esi
    5b42:	e8 b9 ff ff ff       	call   5b00 <_Z12bitonic_sortIN5Table10TableEntryEXadL_ZNS0_8tid_compES1_S1_EEEvP8TraceMemIT_Ebii>
    5b47:	44 89 e9             	mov    %r13d,%ecx
    5b4a:	89 da                	mov    %ebx,%edx
    5b4c:	44 89 f6             	mov    %r14d,%esi
    5b4f:	4c 89 e7             	mov    %r12,%rdi
    5b52:	e8 a9 ff ff ff       	call   5b00 <_Z12bitonic_sortIN5Table10TableEntryEXadL_ZNS0_8tid_compES1_S1_EEEvP8TraceMemIT_Ebii>
    5b57:	8d 45 01             	lea    0x1(%rbp),%eax
    5b5a:	41 39 c5             	cmp    %eax,%r13d
    5b5d:	7f 11                	jg     5b70 <_Z12bitonic_sortIN5Table10TableEntryEXadL_ZNS0_8tid_compES1_S1_EEEvP8TraceMemIT_Ebii+0x70>
    5b5f:	5b                   	pop    %rbx
    5b60:	5d                   	pop    %rbp
    5b61:	41 5c                	pop    %r12
    5b63:	41 5d                	pop    %r13
    5b65:	41 5e                	pop    %r14
    5b67:	c3                   	ret    
    5b68:	0f 1f 84 00 00 00 00 	nopl   0x0(%rax,%rax,1)
    5b6f:	00 
    5b70:	5b                   	pop    %rbx
    5b71:	44 89 e9             	mov    %r13d,%ecx
    5b74:	89 ea                	mov    %ebp,%edx
    5b76:	44 89 f6             	mov    %r14d,%esi
    5b79:	5d                   	pop    %rbp
    5b7a:	4c 89 e7             	mov    %r12,%rdi
    5b7d:	41 5c                	pop    %r12
    5b7f:	41 5d                	pop    %r13
    5b81:	41 5e                	pop    %r14
    5b83:	e9 a8 fe ff ff       	jmp    5a30 <_Z13bitonic_mergeIN5Table10TableEntryEXadL_ZNS0_8tid_compES1_S1_EEEvP8TraceMemIT_Ebii.part.10>
    5b88:	0f 1f 84 00 00 00 00 	nopl   0x0(%rax,%rax,1)
    5b8f:	00 
    5b90:	44 8b 6f 2c          	mov    0x2c(%rdi),%r13d
    5b94:	eb 82                	jmp    5b18 <_Z12bitonic_sortIN5Table10TableEntryEXadL_ZNS0_8tid_compES1_S1_EEEvP8TraceMemIT_Ebii+0x18>
    5b96:	66 2e 0f 1f 84 00 00 	cs nopw 0x0(%rax,%rax,1)
    5b9d:	00 00 00 

0000000000005ba0 <_Z15bitonic_compareIN5Table10TableEntryEXadL_ZNS0_7t1_compES1_S1_EEEvP8TraceMemIT_Ebii>:
    5ba0:	41 57                	push   %r15
    5ba2:	41 56                	push   %r14
    5ba4:	41 89 d3             	mov    %edx,%r11d
    5ba7:	41 55                	push   %r13
    5ba9:	41 54                	push   %r12
    5bab:	49 89 fe             	mov    %rdi,%r14
    5bae:	55                   	push   %rbp
    5baf:	53                   	push   %rbx
    5bb0:	41 89 cf             	mov    %ecx,%r15d
    5bb3:	48 83 ec 48          	sub    $0x48,%rsp
    5bb7:	85 d2                	test   %edx,%edx
    5bb9:	89 74 24 0c          	mov    %esi,0xc(%rsp)
    5bbd:	78 05                	js     5bc4 <_Z15bitonic_compareIN5Table10TableEntryEXadL_ZNS0_7t1_compES1_S1_EEEvP8TraceMemIT_Ebii+0x24>
    5bbf:	3b 57 2c             	cmp    0x2c(%rdi),%edx
    5bc2:	7c 29                	jl     5bed <_Z15bitonic_compareIN5Table10TableEntryEXadL_ZNS0_7t1_compES1_S1_EEEvP8TraceMemIT_Ebii+0x4d>
    5bc4:	48 8d 0d 1d c6 01 00 	lea    0x1c61d(%rip),%rcx        # 221e8 <g_dyn_entry_table+0x1e8>
    5bcb:	48 8d 15 2e c7 01 00 	lea    0x1c72e(%rip),%rdx        # 22300 <_ZZN8TraceMemIN5Table10TableEntryEE4readEiE8__func__>
    5bd2:	48 8d 3d 22 c6 01 00 	lea    0x1c622(%rip),%rdi        # 221fb <g_dyn_entry_table+0x1fb>
    5bd9:	be 3b 00 00 00       	mov    $0x3b,%esi
    5bde:	44 89 5c 24 04       	mov    %r11d,0x4(%rsp)
    5be3:	e8 f8 5d 00 00       	call   b9e0 <__assert>
    5be8:	44 8b 5c 24 04       	mov    0x4(%rsp),%r11d
    5bed:	49 8b 0e             	mov    (%r14),%rcx
    5bf0:	49 63 db             	movslq %r11d,%rbx
    5bf3:	48 c1 e3 05          	shl    $0x5,%rbx
    5bf7:	45 85 ff             	test   %r15d,%r15d
    5bfa:	48 8d 14 19          	lea    (%rcx,%rbx,1),%rdx
    5bfe:	8b 02                	mov    (%rdx),%eax
    5c00:	44 8b 62 08          	mov    0x8(%rdx),%r12d
    5c04:	89 44 24 14          	mov    %eax,0x14(%rsp)
    5c08:	8b 42 04             	mov    0x4(%rdx),%eax
    5c0b:	89 44 24 10          	mov    %eax,0x10(%rsp)
    5c0f:	8b 42 0c             	mov    0xc(%rdx),%eax
    5c12:	89 44 24 38          	mov    %eax,0x38(%rsp)
    5c16:	8b 42 10             	mov    0x10(%rdx),%eax
    5c19:	89 44 24 34          	mov    %eax,0x34(%rsp)
    5c1d:	8b 42 14             	mov    0x14(%rdx),%eax
    5c20:	89 44 24 30          	mov    %eax,0x30(%rsp)
    5c24:	8b 42 18             	mov    0x18(%rdx),%eax
    5c27:	89 44 24 2c          	mov    %eax,0x2c(%rsp)
    5c2b:	8b 42 1c             	mov    0x1c(%rdx),%eax
    5c2e:	89 44 24 08          	mov    %eax,0x8(%rsp)
    5c32:	78 06                	js     5c3a <_Z15bitonic_compareIN5Table10TableEntryEXadL_ZNS0_7t1_compES1_S1_EEEvP8TraceMemIT_Ebii+0x9a>
    5c34:	45 3b 7e 2c          	cmp    0x2c(%r14),%r15d
    5c38:	7c 2c                	jl     5c66 <_Z15bitonic_compareIN5Table10TableEntryEXadL_ZNS0_7t1_compES1_S1_EEEvP8TraceMemIT_Ebii+0xc6>
    5c3a:	48 8d 0d a7 c5 01 00 	lea    0x1c5a7(%rip),%rcx        # 221e8 <g_dyn_entry_table+0x1e8>
    5c41:	48 8d 15 b8 c6 01 00 	lea    0x1c6b8(%rip),%rdx        # 22300 <_ZZN8TraceMemIN5Table10TableEntryEE4readEiE8__func__>
    5c48:	48 8d 3d ac c5 01 00 	lea    0x1c5ac(%rip),%rdi        # 221fb <g_dyn_entry_table+0x1fb>
    5c4f:	be 3b 00 00 00       	mov    $0x3b,%esi
    5c54:	44 89 5c 24 04       	mov    %r11d,0x4(%rsp)
    5c59:	e8 82 5d 00 00       	call   b9e0 <__assert>
    5c5e:	49 8b 0e             	mov    (%r14),%rcx
    5c61:	44 8b 5c 24 04       	mov    0x4(%rsp),%r11d
    5c66:	49 63 ef             	movslq %r15d,%rbp
    5c69:	48 c1 e5 05          	shl    $0x5,%rbp
    5c6d:	48 8d 14 29          	lea    (%rcx,%rbp,1),%rdx
    5c71:	8b 02                	mov    (%rdx),%eax
    5c73:	44 8b 6a 08          	mov    0x8(%rdx),%r13d
    5c77:	89 44 24 28          	mov    %eax,0x28(%rsp)
    5c7b:	8b 42 04             	mov    0x4(%rdx),%eax
    5c7e:	45 39 ec             	cmp    %r13d,%r12d
    5c81:	89 44 24 24          	mov    %eax,0x24(%rsp)
    5c85:	8b 42 0c             	mov    0xc(%rdx),%eax
    5c88:	89 44 24 18          	mov    %eax,0x18(%rsp)
    5c8c:	8b 42 10             	mov    0x10(%rdx),%eax
    5c8f:	89 44 24 1c          	mov    %eax,0x1c(%rsp)
    5c93:	8b 42 14             	mov    0x14(%rdx),%eax
    5c96:	89 44 24 20          	mov    %eax,0x20(%rsp)
    5c9a:	8b 42 18             	mov    0x18(%rdx),%eax
    5c9d:	89 44 24 3c          	mov    %eax,0x3c(%rsp)
    5ca1:	8b 42 1c             	mov    0x1c(%rdx),%eax
    5ca4:	0f 9c c2             	setl   %dl
    5ca7:	45 39 ec             	cmp    %r13d,%r12d
    5caa:	89 44 24 04          	mov    %eax,0x4(%rsp)
    5cae:	0f 84 ec 00 00 00    	je     5da0 <_Z15bitonic_compareIN5Table10TableEntryEXadL_ZNS0_7t1_compES1_S1_EEEvP8TraceMemIT_Ebii+0x200>
    5cb4:	83 f2 01             	xor    $0x1,%edx
    5cb7:	3a 54 24 0c          	cmp    0xc(%rsp),%dl
    5cbb:	0f 84 f5 00 00 00    	je     5db6 <_Z15bitonic_compareIN5Table10TableEntryEXadL_ZNS0_7t1_compES1_S1_EEEvP8TraceMemIT_Ebii+0x216>
    5cc1:	45 85 db             	test   %r11d,%r11d
    5cc4:	78 06                	js     5ccc <_Z15bitonic_compareIN5Table10TableEntryEXadL_ZNS0_7t1_compES1_S1_EEEvP8TraceMemIT_Ebii+0x12c>
    5cc6:	45 3b 5e 2c          	cmp    0x2c(%r14),%r11d
    5cca:	7c 22                	jl     5cee <_Z15bitonic_compareIN5Table10TableEntryEXadL_ZNS0_7t1_compES1_S1_EEEvP8TraceMemIT_Ebii+0x14e>
    5ccc:	48 8d 0d 15 c5 01 00 	lea    0x1c515(%rip),%rcx        # 221e8 <g_dyn_entry_table+0x1e8>
    5cd3:	48 8d 15 20 c6 01 00 	lea    0x1c620(%rip),%rdx        # 222fa <_ZZN8TraceMemIN5Table10TableEntryEE5writeEiS1_E8__func__>
    5cda:	48 8d 3d 1a c5 01 00 	lea    0x1c51a(%rip),%rdi        # 221fb <g_dyn_entry_table+0x1fb>
    5ce1:	be 48 00 00 00       	mov    $0x48,%esi
    5ce6:	e8 f5 5c 00 00       	call   b9e0 <__assert>
    5ceb:	49 8b 0e             	mov    (%r14),%rcx
    5cee:	8b 44 24 14          	mov    0x14(%rsp),%eax
    5cf2:	48 01 cb             	add    %rcx,%rbx
    5cf5:	45 85 ff             	test   %r15d,%r15d
    5cf8:	44 89 63 08          	mov    %r12d,0x8(%rbx)
    5cfc:	89 03                	mov    %eax,(%rbx)
    5cfe:	8b 44 24 10          	mov    0x10(%rsp),%eax
    5d02:	89 43 04             	mov    %eax,0x4(%rbx)
    5d05:	8b 44 24 38          	mov    0x38(%rsp),%eax
    5d09:	89 43 0c             	mov    %eax,0xc(%rbx)
    5d0c:	8b 44 24 34          	mov    0x34(%rsp),%eax
    5d10:	89 43 10             	mov    %eax,0x10(%rbx)
    5d13:	8b 44 24 30          	mov    0x30(%rsp),%eax
    5d17:	89 43 14             	mov    %eax,0x14(%rbx)
    5d1a:	8b 44 24 2c          	mov    0x2c(%rsp),%eax
    5d1e:	89 43 18             	mov    %eax,0x18(%rbx)
    5d21:	8b 44 24 08          	mov    0x8(%rsp),%eax
    5d25:	89 43 1c             	mov    %eax,0x1c(%rbx)
    5d28:	78 06                	js     5d30 <_Z15bitonic_compareIN5Table10TableEntryEXadL_ZNS0_7t1_compES1_S1_EEEvP8TraceMemIT_Ebii+0x190>
    5d2a:	45 3b 7e 2c          	cmp    0x2c(%r14),%r15d
    5d2e:	7c 22                	jl     5d52 <_Z15bitonic_compareIN5Table10TableEntryEXadL_ZNS0_7t1_compES1_S1_EEEvP8TraceMemIT_Ebii+0x1b2>
    5d30:	48 8d 0d b1 c4 01 00 	lea    0x1c4b1(%rip),%rcx        # 221e8 <g_dyn_entry_table+0x1e8>
    5d37:	48 8d 15 bc c5 01 00 	lea    0x1c5bc(%rip),%rdx        # 222fa <_ZZN8TraceMemIN5Table10TableEntryEE5writeEiS1_E8__func__>
    5d3e:	48 8d 3d b6 c4 01 00 	lea    0x1c4b6(%rip),%rdi        # 221fb <g_dyn_entry_table+0x1fb>
    5d45:	be 48 00 00 00       	mov    $0x48,%esi
    5d4a:	e8 91 5c 00 00       	call   b9e0 <__assert>
    5d4f:	49 8b 0e             	mov    (%r14),%rcx
    5d52:	8b 44 24 28          	mov    0x28(%rsp),%eax
    5d56:	48 01 cd             	add    %rcx,%rbp
    5d59:	44 89 6d 08          	mov    %r13d,0x8(%rbp)
    5d5d:	89 45 00             	mov    %eax,0x0(%rbp)
    5d60:	8b 44 24 24          	mov    0x24(%rsp),%eax
    5d64:	89 45 04             	mov    %eax,0x4(%rbp)
    5d67:	8b 44 24 18          	mov    0x18(%rsp),%eax
    5d6b:	89 45 0c             	mov    %eax,0xc(%rbp)
    5d6e:	8b 44 24 1c          	mov    0x1c(%rsp),%eax
    5d72:	89 45 10             	mov    %eax,0x10(%rbp)
    5d75:	8b 44 24 20          	mov    0x20(%rsp),%eax
    5d79:	89 45 14             	mov    %eax,0x14(%rbp)
    5d7c:	8b 44 24 3c          	mov    0x3c(%rsp),%eax
    5d80:	89 45 18             	mov    %eax,0x18(%rbp)
    5d83:	8b 44 24 04          	mov    0x4(%rsp),%eax
    5d87:	89 45 1c             	mov    %eax,0x1c(%rbp)
    5d8a:	48 83 c4 48          	add    $0x48,%rsp
    5d8e:	5b                   	pop    %rbx
    5d8f:	5d                   	pop    %rbp
    5d90:	41 5c                	pop    %r12
    5d92:	41 5d                	pop    %r13
    5d94:	41 5e                	pop    %r14
    5d96:	41 5f                	pop    %r15
    5d98:	c3                   	ret    
    5d99:	0f 1f 80 00 00 00 00 	nopl   0x0(%rax)
    5da0:	8b 74 24 08          	mov    0x8(%rsp),%esi
    5da4:	39 f0                	cmp    %esi,%eax
    5da6:	0f 9f c2             	setg   %dl
    5da9:	83 f2 01             	xor    $0x1,%edx
    5dac:	3a 54 24 0c          	cmp    0xc(%rsp),%dl
    5db0:	0f 85 0b ff ff ff    	jne    5cc1 <_Z15bitonic_compareIN5Table10TableEntryEXadL_ZNS0_7t1_compES1_S1_EEEvP8TraceMemIT_Ebii+0x121>
    5db6:	45 85 db             	test   %r11d,%r11d
    5db9:	78 06                	js     5dc1 <_Z15bitonic_compareIN5Table10TableEntryEXadL_ZNS0_7t1_compES1_S1_EEEvP8TraceMemIT_Ebii+0x221>
    5dbb:	45 3b 5e 2c          	cmp    0x2c(%r14),%r11d
    5dbf:	7c 22                	jl     5de3 <_Z15bitonic_compareIN5Table10TableEntryEXadL_ZNS0_7t1_compES1_S1_EEEvP8TraceMemIT_Ebii+0x243>
    5dc1:	48 8d 0d 20 c4 01 00 	lea    0x1c420(%rip),%rcx        # 221e8 <g_dyn_entry_table+0x1e8>
    5dc8:	48 8d 15 2b c5 01 00 	lea    0x1c52b(%rip),%rdx        # 222fa <_ZZN8TraceMemIN5Table10TableEntryEE5writeEiS1_E8__func__>
    5dcf:	48 8d 3d 25 c4 01 00 	lea    0x1c425(%rip),%rdi        # 221fb <g_dyn_entry_table+0x1fb>
    5dd6:	be 48 00 00 00       	mov    $0x48,%esi
    5ddb:	e8 00 5c 00 00       	call   b9e0 <__assert>
    5de0:	49 8b 0e             	mov    (%r14),%rcx
    5de3:	8b 44 24 28          	mov    0x28(%rsp),%eax
    5de7:	48 01 cb             	add    %rcx,%rbx
    5dea:	45 85 ff             	test   %r15d,%r15d
    5ded:	44 89 6b 08          	mov    %r13d,0x8(%rbx)
    5df1:	89 03                	mov    %eax,(%rbx)
    5df3:	8b 44 24 24          	mov    0x24(%rsp),%eax
    5df7:	89 43 04             	mov    %eax,0x4(%rbx)
    5dfa:	8b 44 24 18          	mov    0x18(%rsp),%eax
    5dfe:	89 43 0c             	mov    %eax,0xc(%rbx)
    5e01:	8b 44 24 1c          	mov    0x1c(%rsp),%eax
    5e05:	89 43 10             	mov    %eax,0x10(%rbx)
    5e08:	8b 44 24 20          	mov    0x20(%rsp),%eax
    5e0c:	89 43 14             	mov    %eax,0x14(%rbx)
    5e0f:	8b 44 24 3c          	mov    0x3c(%rsp),%eax
    5e13:	89 43 18             	mov    %eax,0x18(%rbx)
    5e16:	8b 44 24 04          	mov    0x4(%rsp),%eax
    5e1a:	89 43 1c             	mov    %eax,0x1c(%rbx)
    5e1d:	78 06                	js     5e25 <_Z15bitonic_compareIN5Table10TableEntryEXadL_ZNS0_7t1_compES1_S1_EEEvP8TraceMemIT_Ebii+0x285>
    5e1f:	45 39 7e 2c          	cmp    %r15d,0x2c(%r14)
    5e23:	7f 22                	jg     5e47 <_Z15bitonic_compareIN5Table10TableEntryEXadL_ZNS0_7t1_compES1_S1_EEEvP8TraceMemIT_Ebii+0x2a7>
    5e25:	48 8d 0d bc c3 01 00 	lea    0x1c3bc(%rip),%rcx        # 221e8 <g_dyn_entry_table+0x1e8>
    5e2c:	48 8d 15 c7 c4 01 00 	lea    0x1c4c7(%rip),%rdx        # 222fa <_ZZN8TraceMemIN5Table10TableEntryEE5writeEiS1_E8__func__>
    5e33:	48 8d 3d c1 c3 01 00 	lea    0x1c3c1(%rip),%rdi        # 221fb <g_dyn_entry_table+0x1fb>
    5e3a:	be 48 00 00 00       	mov    $0x48,%esi
    5e3f:	e8 9c 5b 00 00       	call   b9e0 <__assert>
    5e44:	49 8b 0e             	mov    (%r14),%rcx
    5e47:	8b 44 24 14          	mov    0x14(%rsp),%eax
    5e4b:	48 01 cd             	add    %rcx,%rbp
    5e4e:	44 89 65 08          	mov    %r12d,0x8(%rbp)
    5e52:	89 45 00             	mov    %eax,0x0(%rbp)
    5e55:	8b 44 24 10          	mov    0x10(%rsp),%eax
    5e59:	89 45 04             	mov    %eax,0x4(%rbp)
    5e5c:	8b 44 24 38          	mov    0x38(%rsp),%eax
    5e60:	89 45 0c             	mov    %eax,0xc(%rbp)
    5e63:	8b 44 24 34          	mov    0x34(%rsp),%eax
    5e67:	89 45 10             	mov    %eax,0x10(%rbp)
    5e6a:	8b 44 24 30          	mov    0x30(%rsp),%eax
    5e6e:	89 45 14             	mov    %eax,0x14(%rbp)
    5e71:	8b 44 24 2c          	mov    0x2c(%rsp),%eax
    5e75:	89 45 18             	mov    %eax,0x18(%rbp)
    5e78:	8b 44 24 08          	mov    0x8(%rsp),%eax
    5e7c:	89 45 1c             	mov    %eax,0x1c(%rbp)
    5e7f:	48 83 c4 48          	add    $0x48,%rsp
    5e83:	5b                   	pop    %rbx
    5e84:	5d                   	pop    %rbp
    5e85:	41 5c                	pop    %r12
    5e87:	41 5d                	pop    %r13
    5e89:	41 5e                	pop    %r14
    5e8b:	41 5f                	pop    %r15
    5e8d:	c3                   	ret    
    5e8e:	66 90                	xchg   %ax,%ax

0000000000005e90 <_Z13bitonic_mergeIN5Table10TableEntryEXadL_ZNS0_7t1_compES1_S1_EEEvP8TraceMemIT_Ebii.part.13>:
    5e90:	41 57                	push   %r15
    5e92:	89 c8                	mov    %ecx,%eax
    5e94:	41 56                	push   %r14
    5e96:	41 55                	push   %r13
    5e98:	41 54                	push   %r12
    5e9a:	29 d0                	sub    %edx,%eax
    5e9c:	55                   	push   %rbp
    5e9d:	53                   	push   %rbx
    5e9e:	48 89 fd             	mov    %rdi,%rbp
    5ea1:	41 89 d6             	mov    %edx,%r14d
    5ea4:	48 83 ec 18          	sub    $0x18,%rsp
    5ea8:	83 f8 01             	cmp    $0x1,%eax
    5eab:	89 74 24 08          	mov    %esi,0x8(%rsp)
    5eaf:	89 4c 24 0c          	mov    %ecx,0xc(%rsp)
    5eb3:	0f 8e 9e 00 00 00    	jle    5f57 <_Z13bitonic_mergeIN5Table10TableEntryEXadL_ZNS0_7t1_compES1_S1_EEEvP8TraceMemIT_Ebii.part.13+0xc7>
    5eb9:	bb 01 00 00 00       	mov    $0x1,%ebx
    5ebe:	66 90                	xchg   %ax,%ax
    5ec0:	01 db                	add    %ebx,%ebx
    5ec2:	39 d8                	cmp    %ebx,%eax
    5ec4:	7f fa                	jg     5ec0 <_Z13bitonic_mergeIN5Table10TableEntryEXadL_ZNS0_7t1_compES1_S1_EEEvP8TraceMemIT_Ebii.part.13+0x30>
    5ec6:	d1 fb                	sar    %ebx
